ccopy_reg
_reconstructor
p1
(cpykov
Vector
p2
c__builtin__
dict
p3
(dp4
S'A'
F0.065420560747663545
sS'c'
F0.018691588785046728
sS'g'
F0.23364485981308408
sS'G'
F0.15887850467289719
sS'h'
F0.046728971962616821
sS'C'
F0.07476635514018691
sS'1'
F0.0093457943925233638
sS'0'
F0.046728971962616821
sS'3'
F0.0093457943925233638
sS'r'
F0.10280373831775699
sS't'
F0.084112149532710276
sS'y'
F0.037383177570093455
sS'x'
F0.11214953271028037
stRp5
.ccopy_reg
_reconstructor
p1
(cpykov
Chain
p2
c__builtin__
dict
p3
(dp4
(S'g'
S'h'
tp5
F0.16
s(S'r'
S'0'
tp6
F0.36363636363636365
s(S'A'
S't'
tp7
F0.85714285714285721
s(S'G'
S'G'
tp8
F0.82352941176470584
s(S'y'
S'g'
tp9
F0.25
s(S'A'
S'y'
tp10
F0.14285714285714285
s(S'x'
S'G'
tp11
F0.25
s(S'x'
S'x'
tp12
F0.33333333333333331
s(S'G'
S'x'
tp13
F0.058823529411764705
s(S'g'
S'c'
tp14
F0.080000000000000002
s(S'0'
S'x'
tp15
F0.59999999999999998
s(S'h'
S'g'
tp16
F0.79999999999999993
s(S'G'
S'0'
tp17
F0.058823529411764705
s(S'3'
S'1'
tp18
F1
s(S'c'
S'r'
tp19
F1
s(S'C'
S'A'
tp20
F1
s(S'x'
S'y'
tp21
F0.083333333333333329
s(S'g'
S'g'
tp22
F0.68000000000000005
s(S'x'
S'g'
tp23
F0.25
s(S'1'
S'C'
tp24
F1
s(S'y'
S'x'
tp25
F0.5
s(S'0'
S't'
tp26
F0.39999999999999997
s(S'g'
S'x'
tp27
F0.080000000000000002
s(S'G'
S'y'
tp28
F0.058823529411764705
s(S'r'
S'C'
tp29
F0.63636363636363635
s(S'h'
S'y'
tp30
F0.19999999999999998
s(S'y'
S't'
tp31
F0.25
s(S'x'
S'h'
tp32
F0.083333333333333329
s(S't'
S'r'
tp33
F1
stRp34
(dp35
S'_guess'
p36
g1
(cpykov
Vector
p37
g3
(dp38
S'A'
F0.065420560747663545
sS'c'
F0.018691588785046728
sS'g'
F0.23364485981308408
sS'G'
F0.15887850467289719
sS'h'
F0.046728971962616821
sS'C'
F0.07476635514018691
sS'1'
F0.0093457943925233638
sS'0'
F0.046728971962616821
sS'3'
F0.0093457943925233638
sS'r'
F0.10280373831775699
sS't'
F0.084112149532710276
sS'y'
F0.037383177570093455
sS'x'
F0.11214953271028037
stRp39
sb.S'31CAtrCAtrCAtrCAtr0trCAyxghgggggcr0xxGGGGyxGGGGGGxxxGGGGGGG0xxggggghggggggggcr0xyghggxgxhgghytr0trCAtrCAtrCA'
p1
.(lp1
(F8.9914900000000006
F81.326583999999997
tp2
a.cnumpy.core.multiarray
scalar
p1
(cnumpy
dtype
p2
(S'f8'
I0
I1
tRp3
(I3
S'<'
NNNI-1
I-1
I0
tbS'W\xc7\xa1J\xc7>\x88?'
tRp4
.F1.9863528875738553e-32
.