ccopy_reg
_reconstructor
p1
(cpykov
Vector
p2
c__builtin__
dict
p3
(dp4
S'A'
F0.037499999999999999
sS'C'
F0.041666666666666664
sS'E'
F0.0041666666666666666
sS'D'
F0.025000000000000001
sS'G'
F0.22916666666666674
sS'I'
F0.037499999999999999
sS'H'
F0.24166666666666667
sS'y'
F0.066666666666666666
sS'x'
F0.041666666666666671
sS'a'
F0.0041666666666666666
sS'c'
F0.0083333333333333332
sS'g'
F0.020833333333333332
sS'i'
F0.0041666666666666666
sS'0'
F0.04583333333333333
sS'r'
F0.029166666666666667
sS'u'
F0.029166666666666664
sS't'
F0.020833333333333332
sS'7'
F0.045833333333333337
sS'9'
F0.0083333333333333332
sS'8'
F0.04583333333333333
sS'z'
F0.012500000000000001
stRp5
.ccopy_reg
_reconstructor
p1
(cpykov
Chain
p2
c__builtin__
dict
p3
(dp4
(S'G'
S'H'
tp5
F0.14545454545454539
s(S'r'
S'H'
tp6
F0.14285714285714285
s(S'A'
S't'
tp7
F0.44444444444444448
s(S'G'
S'G'
tp8
F0.67272727272727251
s(S'z'
S'y'
tp9
F0.66666666666666663
s(S'u'
S'u'
tp10
F0.14285714285714288
s(S'y'
S'r'
tp11
F0.0625
s(S'u'
S'G'
tp12
F0.7142857142857143
s(S'x'
S'C'
tp13
F0.099999999999999992
s(S'8'
S'i'
tp14
F0.090909090909090912
s(S'I'
S'D'
tp15
F0.11111111111111112
s(S'x'
S'H'
tp16
F0.19999999999999998
s(S'y'
S'x'
tp17
F0.25
s(S'y'
S'I'
tp18
F0.125
s(S'D'
S'D'
tp19
F0.16666666666666666
s(S'8'
S'H'
tp20
F0.18181818181818182
s(S'9'
S'8'
tp21
F1
s(S'D'
S'G'
tp22
F0.16666666666666666
s(S'0'
S'y'
tp23
F0.54545454545454553
s(S'x'
S'u'
tp24
F0.19999999999999998
s(S'I'
S'G'
tp25
F0.33333333333333337
s(S'G'
S'0'
tp26
F0.054545454545454529
s(S't'
S'r'
tp27
F1
s(S'y'
S'H'
tp28
F0.3125
s(S'D'
S'E'
tp29
F0.16666666666666666
s(S'r'
S'0'
tp30
F0.14285714285714285
s(S'g'
S'g'
tp31
F0.80000000000000004
s(S'7'
S'D'
tp32
F0.090909090909090898
s(S'8'
S'8'
tp33
F0.27272727272727276
s(S'A'
S'0'
tp34
F0.11111111111111112
s(S'G'
S'z'
tp35
F0.018181818181818174
s(S'H'
S'y'
tp36
F0.051724137931034482
s(S'x'
S'I'
tp37
F0.099999999999999992
s(S'G'
S'D'
tp38
F0.018181818181818174
s(S'x'
S'0'
tp39
F0.29999999999999999
s(S'7'
S'8'
tp40
F0.090909090909090898
s(S'c'
S'r'
tp41
F0.5
s(S'E'
S'G'
tp42
F1
s(S'7'
S'7'
tp43
F0.36363636363636359
s(S'H'
S'C'
tp44
F0.017241379310344827
s(S'H'
S'H'
tp45
F0.58620689655172409
s(S'0'
S't'
tp46
F0.090909090909090912
s(S'r'
S'C'
tp47
F0.5714285714285714
s(S'G'
S'C'
tp48
F0.018181818181818174
s(S'8'
S'I'
tp49
F0.18181818181818182
s(S'A'
S'C'
tp50
F0.33333333333333337
s(S'0'
S'x'
tp51
F0.18181818181818182
s(S'H'
S'I'
tp52
F0.068965517241379309
s(S'A'
S'y'
tp53
F0.11111111111111112
s(S'x'
S'x'
tp54
F0.099999999999999992
s(S'0'
S'u'
tp55
F0.090909090909090912
s(S'I'
S'H'
tp56
F0.55555555555555558
s(S'G'
S'x'
tp57
F0.036363636363636348
s(S'y'
S'y'
tp58
F0.25
s(S'H'
S'0'
tp59
F0.034482758620689655
s(S'C'
S'H'
tp60
F0.10000000000000001
s(S'C'
S'A'
tp61
F0.90000000000000002
s(S'a'
S'0'
tp62
F1
s(S'c'
S'a'
tp63
F0.5
s(S'i'
S'g'
tp64
F1
s(S'8'
S'G'
tp65
F0.090909090909090912
s(S'G'
S'u'
tp66
F0.018181818181818174
s(S'r'
S'c'
tp67
F0.14285714285714285
s(S'g'
S'c'
tp68
F0.20000000000000001
s(S'D'
S'z'
tp69
F0.16666666666666666
s(S'0'
S'z'
tp70
F0.090909090909090912
s(S'H'
S'G'
tp71
F0.22413793103448276
s(S'G'
S'I'
tp72
F0.018181818181818174
s(S'z'
S'x'
tp73
F0.33333333333333331
s(S'D'
S'u'
tp74
F0.33333333333333331
s(S'7'
S'H'
tp75
F0.1818181818181818
s(S'7'
S'G'
tp76
F0.27272727272727271
s(S'u'
S'D'
tp77
F0.14285714285714288
s(S'H'
S'D'
tp78
F0.017241379310344827
s(S'8'
S'7'
tp79
F0.18181818181818182
stRp80
(dp81
S'_guess'
p82
g1
(cpykov
Vector
p83
g3
(dp84
S'A'
F0.037499999999999999
sS'C'
F0.041666666666666664
sS'E'
F0.0041666666666666666
sS'D'
F0.025000000000000001
sS'G'
F0.22916666666666674
sS'I'
F0.037499999999999999
sS'H'
F0.24166666666666667
sS'y'
F0.066666666666666666
sS'x'
F0.041666666666666671
sS'a'
F0.0041666666666666666
sS'c'
F0.0083333333333333332
sS'g'
F0.020833333333333332
sS'i'
F0.0041666666666666666
sS'0'
F0.04583333333333333
sS'r'
F0.029166666666666667
sS'u'
F0.029166666666666664
sS't'
F0.020833333333333332
sS'7'
F0.045833333333333337
sS'9'
F0.0083333333333333332
sS'8'
F0.04583333333333333
sS'z'
F0.012500000000000001
stRp85
sb.S'78igggggcrCAtrCAtr0trCA0xuGGGGGGG0yxHHHGHHHG#77GGGGGx0uuGGGGGGG#88HHHGHG#88GGGCAyx0zyIHIGGI#98IHDEGGG#77GGGGxx0yrHIDDzxIGzyIHIGGG0yxHGHGHG0yxCACAtrCACACAtrca0xuDGGGGGG#77GGGGDuG#88HCHyHHHyyHHHHHHHHyyHHHHHH0yyHHHHHH0yyHHHHHH#87HGHGHGHG#77DuGGuGGG#87HGHHHG#98IHIHHH'
p1
.(lp1
(F1800.5590540000001
F1801.0901699999999
tp2
a(F48.451737999999999
F364.69914999999997
tp3
a(F155.63874899999999
F432.95238000000001
tp4
a(F209.13242099999999
F477.29521199999999
tp5
a(F66.644750999999999
F373.9402
tp6
a(F50.114458999999997
F363.35326900000001
tp7
a(F154.91086799999999
F433.633692
tp8
a(F51.426012999999998
F351.24361299999998
tp9
a(F7.2395509999999996
F329.29827399999999
tp10
a(F125.31406699999999
F444.06054499999999
tp11
a(F20.790225
F331.92519299999998
tp12
a(F6.8670559999999998
F327.21052300000002
tp13
a.cnumpy.core.multiarray
scalar
p1
(cnumpy
dtype
p2
(S'f8'
I0
I1
tRp3
(I3
S'<'
NNNI-1
I-1
I0
tbS'\x83\xe2ka\xa5\x10\x85?'
tRp4
.F1.8421913077365871e-35
.