ccopy_reg
_reconstructor
p1
(cpykov
Vector
p2
c__builtin__
dict
p3
(dp4
S'A'
F0.013333333333333334
sS'C'
F0.026666666666666668
sS'E'
F0.026666666666666668
sS'D'
F0.013333333333333334
sS'y'
F0.013333333333333334
sS'c'
F0.013333333333333334
sS'e'
F0.026666666666666668
sS'i'
F0.3866666666666666
sS'h'
F0.013333333333333334
sS'0'
F0.12000000000000001
sS'r'
F0.10666666666666667
sS'u'
F0.013333333333333334
sS't'
F0.093333333333333338
sS'w'
F0.013333333333333334
sS'v'
F0.013333333333333334
sS'9'
F0.026666666666666668
sS'z'
F0.080000000000000002
stRp5
.ccopy_reg
_reconstructor
p1
(cpykov
Chain
p2
c__builtin__
dict
p3
(dp4
(S'9'
S'i'
tp5
F0.5
s(S'C'
S'r'
tp6
F0.5
s(S'i'
S'c'
tp7
F0.034482758620689662
s(S'r'
S'0'
tp8
F0.875
s(S'y'
S'D'
tp9
F1
s(S'e'
S'z'
tp10
F0.5
s(S'9'
S'9'
tp11
F0.5
s(S'h'
S'e'
tp12
F1
s(S'E'
S'C'
tp13
F0.5
s(S'0'
S'z'
tp14
F0.22222222222222221
s(S'u'
S'0'
tp15
F1
s(S'z'
S'w'
tp16
F0.16666666666666669
s(S'D'
S'h'
tp17
F1
s(S'z'
S'u'
tp18
F0.16666666666666669
s(S'z'
S'z'
tp19
F0.33333333333333337
s(S'v'
S'0'
tp20
F1
s(S'E'
S'E'
tp21
F0.5
s(S'c'
S'r'
tp22
F1
s(S'r'
S'C'
tp23
F0.125
s(S'0'
S't'
tp24
F0.77777777777777779
s(S'w'
S'E'
tp25
F1
s(S'e'
S'v'
tp26
F0.5
s(S'i'
S'i'
tp27
F0.89655172413793116
s(S'A'
S'y'
tp28
F1
s(S'z'
S'i'
tp29
F0.33333333333333337
s(S'i'
S'z'
tp30
F0.034482758620689662
s(S't'
S'r'
tp31
F1
s(S'C'
S'A'
tp32
F0.5
s(S'i'
S'e'
tp33
F0.034482758620689662
stRp34
(dp35
S'_guess'
p36
g1
(cpykov
Vector
p37
g3
(dp38
S'A'
F0.013333333333333334
sS'C'
F0.026666666666666668
sS'E'
F0.026666666666666668
sS'D'
F0.013333333333333334
sS'y'
F0.013333333333333334
sS'c'
F0.013333333333333334
sS'e'
F0.026666666666666668
sS'i'
F0.3866666666666666
sS'h'
F0.013333333333333334
sS'0'
F0.12000000000000001
sS'r'
F0.10666666666666667
sS'u'
F0.013333333333333334
sS't'
F0.093333333333333338
sS'w'
F0.013333333333333334
sS'v'
F0.013333333333333334
sS'9'
F0.026666666666666668
sS'z'
F0.080000000000000002
stRp39
sb.S'99iiiiiiiiiiiiiiiiiiiiiiiiiizzicr0zu0zwEECrCAyDhezziiev0tr0tr0tr0tr0tr0tr0tr'
p1
.(lp1
(F1803.537374
F1803.7433020000001
tp2
a.cnumpy.core.multiarray
scalar
p1
(cnumpy
dtype
p2
(S'f8'
I0
I1
tRp3
(I3
S'<'
NNNI-1
I-1
I0
tbS'\xe7\xe9m\x9b\xc0,\x88?'
tRp4
.F1.3405027024361513e-15
.