ccopy_reg
_reconstructor
p1
(cpykov
Vector
p2
c__builtin__
dict
p3
(dp4
S'A'
F0.20000000000000001
sS'a'
F0.2196078431372549
sS'C'
F0.20000000000000001
sS'G'
F0.021568627450980392
sS'H'
F0.0019607843137254902
sS'c'
F0.22156862745098038
sS'1'
F0.0019607843137254902
sS'0'
F0.0019607843137254902
sS'3'
F0.0019607843137254902
sS'r'
F0.062745098039215685
sS't'
F0.062745098039215685
sS'x'
F0.0039215686274509803
stRp5
.ccopy_reg
_reconstructor
p1
(cpykov
Chain
p2
c__builtin__
dict
p3
(dp4
(S'G'
S'H'
tp5
F0.090909090909090912
s(S'A'
S't'
tp6
F0.049019607843137254
s(S'G'
S'G'
tp7
F0.81818181818181823
s(S'x'
S'G'
tp8
F0.5
s(S'1'
S'c'
tp9
F1
s(S'x'
S'x'
tp10
F0.5
s(S'A'
S'0'
tp11
F0.0098039215686274508
s(S'r'
S'c'
tp12
F0.90625
s(S'0'
S'x'
tp13
F1
s(S'H'
S'G'
tp14
F1
s(S'A'
S'c'
tp15
F0.81372549019607843
s(S'a'
S't'
tp16
F0.23214285714285715
s(S'3'
S'1'
tp17
F1
s(S'G'
S't'
tp18
F0.090909090909090912
s(S'a'
S'C'
tp19
F0.7678571428571429
s(S'C'
S'A'
tp20
F1
s(S'r'
S'C'
tp21
F0.09375
s(S'c'
S'a'
tp22
F1
s(S'A'
S'C'
tp23
F0.12745098039215685
s(S't'
S'r'
tp24
F1
stRp25
(dp26
S'_guess'
p27
g1
(cpykov
Vector
p28
g3
(dp29
S'A'
F0.20000000000000001
sS'a'
F0.2196078431372549
sS'C'
F0.20000000000000001
sS'G'
F0.021568627450980392
sS'H'
F0.0019607843137254902
sS'c'
F0.22156862745098038
sS'1'
F0.0019607843137254902
sS'0'
F0.0019607843137254902
sS'3'
F0.0019607843137254902
sS'r'
F0.062745098039215685
sS't'
F0.062745098039215685
sS'x'
F0.0039215686274509803
stRp30
sb.S'31caCAcaCACACACAtrcaCAcaCAcaCAcatrcaCAcaCAcaCAcatrcaCAcaCAcaCAcatrcaCAcaCAcaCAcatrcaCAcaCAcaCAcatrcaCAcaCAcaCAcatrcaCAcaCAcaCAcaCAcaCACACAcaCAcatrcaCAcaCAcaCAcatrcaCAcaCAcaCAcatrcaCAcaCAcaCAcatrcaCAcaCAcaCAcatrCAtrCACACAtrcaCAcaCAcaCAcatrcatrcaCAcaCAcaCAcaCAcaCAcaCAcaCAcatrcaCAcaCAcaCAcatrcaCAcaCAcaCAcatrcaCAcaCAcaCAcatrcaCAcaCAcaCAcatrcaCAcaCAcaCAcatrcaCAcaCAcaCAcatrcaCAcaCAcaCAcatrcaCAcaCAcaCAcatrcaCAcaCAcaCAcatrcaCAcaCAcaCAcatrcaCAcaCACACACAtrCACAcaCACAtrcatrcatrcaCAcaCACA0xxGGGGGGGGGHGGtrcaCAcaCAcaCAc'
.(lp1
(F8.9111379999999993
F39.392685999999998
tp2
a.cnumpy.core.multiarray
scalar
p1
(cnumpy
dtype
p2
(S'f8'
I0
I1
tRp3
(I3
S'<'
NNNI-1
I-1
I0
tbS'\x89\xfb\xee\xd3\xebW\x90?'
tRp4
.F1.7101827367098698e-62
.