ccopy_reg
_reconstructor
p1
(cpykov
Vector
p2
c__builtin__
dict
p3
(dp4
S'A'
F0.0035958288385472851
sS'C'
F0.0010787486515641855
sS'E'
F0.0010787486515641855
sS'D'
F0.0086299892125134819
sS'G'
F0.0028766630708378276
sS'F'
F0.0017979144192736426
sS'I'
F0.0010787486515641855
sS'a'
F0.001438331535418914
sS'c'
F0.001438331535418914
sS'e'
F0.45559151384394103
sS'd'
F0.30169003955411727
sS'g'
F0.036677454153182312
sS'f'
F0.089536138079827396
sS'i'
F0.023013304566702621
sS'h'
F0.064005753326141682
sS'7'
F0.0003595828838547285
sS'0'
F0.001438331535418914
sS'u'
F0.001438331535418914
sS'4'
F0.0003595828838547285
sS'w'
F0.0003595828838547285
sS'v'
F0.0010787486515641855
sS'y'
F0.000719165767709457
sS'x'
F0.000719165767709457
stRp5
.ccopy_reg
_reconstructor
p1
(cpykov
Chain
p2
c__builtin__
dict
p3
(dp4
(S'w'
S'v'
tp5
F1
s(S'D'
S'G'
tp6
F0.16666666666666671
s(S'h'
S'i'
tp7
F0.16292134831460672
s(S'u'
S'u'
tp8
F0.5
s(S'A'
S'F'
tp9
F0.099999999999999992
s(S'i'
S'h'
tp10
F0.48437500000000011
s(S'c'
S'A'
tp11
F0.25
s(S'I'
S'g'
tp12
F0.66666666666666674
s(S'a'
S'C'
tp13
F0.25
s(S'e'
S'F'
tp14
F0.00078926598263614838
s(S'g'
S'i'
tp15
F0.1372549019607843
s(S'd'
S'f'
tp16
F0.061978545887961846
s(S'C'
S'e'
tp17
F0.33333333333333337
s(S'I'
S'h'
tp18
F0.33333333333333337
s(S'0'
S'v'
tp19
F0.25
s(S'G'
S'0'
tp20
F0.12500000000000003
s(S'e'
S'A'
tp21
F0.00078926598263614838
s(S'g'
S'h'
tp22
F0.38235294117647056
s(S'A'
S'A'
tp23
F0.099999999999999992
s(S'G'
S'i'
tp24
F0.12500000000000003
s(S'g'
S'g'
tp25
F0.43137254901960781
s(S'F'
S'F'
tp26
F0.19999999999999998
s(S'F'
S'D'
tp27
F0.19999999999999998
s(S'0'
S'w'
tp28
F0.25
s(S'0'
S'u'
tp29
F0.5
s(S'u'
S'd'
tp30
F0.25
s(S'i'
S'G'
tp31
F0.015625000000000003
s(S'c'
S'd'
tp32
F0.5
s(S'h'
S'g'
tp33
F0.23595505617977527
s(S'x'
S'I'
tp34
F0.5
s(S'G'
S'h'
tp35
F0.25000000000000006
s(S'd'
S'd'
tp36
F0.46007151370679372
s(S'G'
S'g'
tp37
F0.12500000000000003
s(S'e'
S'e'
tp38
F0.59510655090765585
s(S'v'
S'v'
tp39
F0.33333333333333337
s(S'A'
S'f'
tp40
F0.099999999999999992
s(S'C'
S'A'
tp41
F0.66666666666666674
s(S'f'
S'd'
tp42
F0.17269076305220885
s(S'G'
S'y'
tp43
F0.12500000000000003
s(S'4'
S'0'
tp44
F1
s(S'A'
S'C'
tp45
F0.099999999999999992
s(S'i'
S'e'
tp46
F0.015625000000000003
s(S'v'
S'e'
tp47
F0.33333333333333337
s(S'd'
S'e'
tp48
F0.45530393325387358
s(S'D'
S'd'
tp49
F0.16666666666666671
s(S'e'
S'd'
tp50
F0.31412786108918705
s(S'E'
S'e'
tp51
F0.33333333333333337
s(S'D'
S'E'
tp52
F0.083333333333333356
s(S'x'
S'x'
tp53
F0.5
s(S'F'
S'f'
tp54
F0.39999999999999997
s(S'G'
S'x'
tp55
F0.12500000000000003
s(S'y'
S'y'
tp56
F0.5
s(S'g'
S'0'
tp57
F0.019607843137254898
s(S'i'
S'd'
tp58
F0.031250000000000007
s(S'v'
S'f'
tp59
F0.33333333333333337
s(S'g'
S'd'
tp60
F0.019607843137254898
s(S'D'
S'e'
tp61
F0.12500000000000003
s(S'A'
S'a'
tp62
F0.099999999999999992
s(S'e'
S'g'
tp63
F0.00078926598263614838
s(S'g'
S'G'
tp64
F0.0098039215686274491
s(S'f'
S'e'
tp65
F0.49799196787148597
s(S'F'
S'd'
tp66
F0.19999999999999998
s(S'D'
S'I'
tp67
F0.041666666666666678
s(S'D'
S'A'
tp68
F0.083333333333333356
s(S'i'
S'g'
tp69
F0.18750000000000003
s(S'c'
S'D'
tp70
F0.25
s(S'7'
S'4'
tp71
F1
s(S'd'
S'h'
tp72
F0.0011918951132300355
s(S'e'
S'f'
tp73
F0.086819258089976314
s(S'y'
S'i'
tp74
F0.5
s(S'd'
S'D'
tp75
F0.017878426698450536
s(S'e'
S'i'
tp76
F0.0015785319652722968
s(S'f'
S'f'
tp77
F0.32931726907630521
s(S'A'
S'D'
tp78
F0.099999999999999992
s(S'h'
S'd'
tp79
F0.0056179775280898866
s(S'E'
S'C'
tp80
F0.33333333333333337
s(S'u'
S'E'
tp81
F0.25
s(S'A'
S'c'
tp82
F0.39999999999999997
s(S'D'
S'D'
tp83
F0.25000000000000006
s(S'E'
S'f'
tp84
F0.33333333333333337
s(S'a'
S'A'
tp85
F0.75
s(S'G'
S'I'
tp86
F0.12500000000000003
s(S'D'
S'F'
tp87
F0.083333333333333356
s(S'h'
S'h'
tp88
F0.5842696629213483
s(S'i'
S'i'
tp89
F0.26562500000000006
s(S'd'
S'a'
tp90
F0.0035756853396901062
s(S'h'
S'G'
tp91
F0.011235955056179773
stRp92
(dp93
S'_guess'
p94
g1
(cpykov
Vector
p95
g3
(dp96
S'A'
F0.0035958288385472851
sS'C'
F0.0010787486515641855
sS'E'
F0.0010787486515641855
sS'D'
F0.0086299892125134819
sS'G'
F0.0028766630708378276
sS'F'
F0.0017979144192736426
sS'I'
F0.0010787486515641855
sS'a'
F0.001438331535418914
sS'c'
F0.001438331535418914
sS'e'
F0.45559151384394103
sS'd'
F0.30169003955411727
sS'g'
F0.036677454153182312
sS'f'
F0.089536138079827396
sS'i'
F0.023013304566702621
sS'h'
F0.064005753326141682
sS'7'
F0.0003595828838547285
sS'0'
F0.001438331535418914
sS'u'
F0.001438331535418914
sS'4'
F0.0003595828838547285
sS'w'
F0.0003595828838547285
sS'v'
F0.0010787486515641855
sS'y'
F0.000719165767709457
sS'x'
F0.000719165767709457
stRp97
sb.S'740uuECAcdaAcDAaACeAFDAcAfdaCAcdaAADDdeedddeddededddedefefdeddddddeddeeeeeddedfdeeeddedeeeeddeddedddddeeedeeddeeddeeeeddfddddededddddeddfedededdddfddedddeddddddddddedeedddddddddeeddeddedddddedeeddedeeeefdedddeeeeeeddeedddddeddeeeeddeddedfeddeedddeddededeeddfeddddddfddddeeddeddeedddeddeedeeeedeefdedDDddfedddddeedededddeededdedeededdddeededddddeededddddfedddeddddefdededeeddddddddeeeddeedeedddeddddedeedeeddddeddeddfdedddeeddddeededfdeeedDDdddddeddefdedddeeeddeeddddeeedeededdedededeeddeedddeedeeddedeeddedddeddddddddddedddddedeeddedeeedddeedeeeddeeeedfddededeedddeeeeeededededddedddddfdddddeeeeeedfdedfeeededdeedeeedddedddeddefeedededddededdddeddfddededeeeeededeedddeddddeedefdeefedeeeeedeeeeeeeeedddddedeededddedddddedfededdeddeededddedddeedeeeddeeeedDeeedededddeddeeededeeeeeeeeeeeddedeeeddeedddeeeeedededdeedeeeeeddedededeeedfeeddededeedeeeeedeedeeddeedeededeeeeeeeefdffeefededeeeedeefeeeeeeffeeeeeddeeeeddefdeeedeffedffeedddeeeeddedeeedfefeedeeeeeeddeeeedeeeeddeededddeeddedefeddfddededeeddeddddddededddeededddeddeeedeeeedeefdeedeeeddededeeeeddeeeeeeedeedeeeedeeeeededeedeeeeddeeeeddededeefeddddddddddedefddedededddeddfdeefffeefffefffdedfdeddddededddefdddeddfeedeededdededdddeddeededddedefeeeeeddddddeddddededdddeeedDDddddddeeeeededdededffeedddddfdeeedddedddedddddededeeeedeedeeddededeeeddddeeeedddeeedddddddddedddeeeddddedeeeegGyyihhhhhhhghhhgghhhhhhghgggidDGhhhighghghigggihgdDIgghgigihgihgdDGhhhhghhdDGggg0uuddeddeefeefefefedeeeeeeeeeeeeedfeeeeeeeeeeedeffeeedeeeeeedeeedffeeefdeeeeeeeeeeeeededeeeededeeeeeeeeeeddeeeeeeeeeeeeeeeeeefdefeeedddeeeeeeeefedeeefeeedDEeeeeeeeeedeeefeedddeeefddedefeeeeedffeeeedeeeeedeefeeeeeeffeeedeefefeeeeeffffeefeeedeeedddfddfedffedfdefdeeefedeeffeeeffeffeeeeffdffffeeeefffefeeefefefeefeeiefeeefeffedefffeeffffefeeeedeeeeffeedffefffeeeeeeddedeedefeeedeeeeeedeeefeefeeeeedeeeeedefeeeeeeeeeeeeiGIhiiiigiiidDGigihhhihihihhiiigihiiiigihhihiihhggghhhihhhighgghhghhghhghgghhghihihggiiihhihihhiiighghhhhihhhhghghhhgighhhihihhhhhhhhhghghihhhhhhhhihhhihhhhhgggghhhhigghhghhghghhhhgghgihhihhhhhhhhhhhhhhhhhhhGxxIgghhhhggggghgghhihhhggghhhghghhhhiihhggghggggiihihgggggghggggghigggghggihg0vveeedefeededffefeeeedeeeeeeefffeeeeeeeedeeefeeeeeeeffdfeddeefeeeeeeeeeeeeeeeeeefeeeeefeedfeeefeeeeeeeffeeeeeeeeeeeeeeeddefdeeeeeeedeeeefeeeeeefedeeeeddeeedeeedeeeeeeededdeddfeededdeddfeeeeeedeeeeeeeeeeeeeedefeefeeededededfeeeedddeefeeeefddeeeeeeeeedddfeeeeeeeeeeeeddededeeeeeeeffeedddededdeeeeddeeeededdedddddhG0wvfeeeeedeedeedeeddeeeeeefeeefeeedDDeeedfeedddffededeeeddeeeeeefffffeeefeeeeefedfeedfdeefedfeeeeeeefedDEfffffffdDFdDFfffeefffffffffedddddedefeefeeeedeeeeedeeeefedddeeeedeeedDDeeeeefeededeefedeeefeeeffeeedeeeeefefeffeeeeeefefeeeeeedfddfeeeddeeeeefefeddeedddeeeeddfddedeeeeddededeedeeededeeeeeeeeeeededdeeeeeeeeeedeeeedefffffffffffeeFFffffffdfdeeeeedefeeded'
p1
.(lp1
(F1.018305
F623083.52080599999
tp2
a.cnumpy.core.multiarray
scalar
p1
(cnumpy
dtype
p2
(S'f8'
I0
I1
tRp3
(I3
S'<'
NNNI-1
I-1
I0
tbS'~\x89z\xf4\xaa\xb0\x82?'
tRp4
.F0
.