ccopy_reg
_reconstructor
p1
(cpykov
Vector
p2
c__builtin__
dict
p3
(dp4
S'A'
F0.0018111254851228978
sS'E'
F0.00077619663648124189
sS'D'
F0.014230271668822767
sS'G'
F0.00051746442432082796
sS'F'
F0.00051746442432082796
sS'6'
F0.00077619663648124189
sS'8'
F0.00051746442432082796
sS'5'
F0.0015523932729624838
sS'a'
F0.0010349288486416559
sS'e'
F0.00077619663648124189
sS'd'
F0.0077619663648124202
sS'7'
F0.0010349288486416559
sS'1'
F0.013971539456662352
sS'0'
F0.43078913324708923
sS'r'
F0.021733505821474774
sS'u'
F0.35239327296248391
sS'4'
F0.14721862871927557
sS'w'
F0.00077619663648124189
sS'v'
F0.0010349288486416559
sS'y'
F0.00025873221216041398
sS'x'
F0.00025873221216041398
sS't'
F0.00025873221216041398
stRp5
.ccopy_reg
_reconstructor
p1
(cpykov
Chain
p2
c__builtin__
dict
p3
(dp4
(S'v'
S'D'
tp5
F0.25
s(S'4'
S'4'
tp6
F0.44815465729349735
s(S'u'
S'u'
tp7
F0.031571218795888395
s(S'a'
S'd'
tp8
F0.25
s(S'4'
S'D'
tp9
F0.014059753954305797
s(S'D'
S'a'
tp10
F0.036363636363636369
s(S'5'
S'0'
tp11
F0.16666666666666669
s(S't'
S't'
tp12
F1
s(S'v'
S'E'
tp13
F0.25
s(S'4'
S'5'
tp14
F0.0052724077328646741
s(S'D'
S'D'
tp15
F0.40000000000000002
s(S'7'
S'w'
tp16
F0.25
s(S'0'
S'y'
tp17
F0.00060060060060060068
s(S'6'
S'4'
tp18
F0.33333333333333337
s(S'A'
S'd'
tp19
F0.2857142857142857
s(S'8'
S'5'
tp20
F0.5
s(S'5'
S'D'
tp21
F0.33333333333333337
s(S'4'
S'v'
tp22
F0.0017574692442882246
s(S'u'
S'w'
tp23
F0.00073421439060205565
s(S'E'
S'D'
tp24
F0.33333333333333337
s(S'x'
S'd'
tp25
F1
s(S'5'
S'u'
tp26
F0.16666666666666669
s(S'u'
S'v'
tp27
F0.0022026431718061667
s(S'u'
S'A'
tp28
F0.0014684287812041113
s(S'A'
S'0'
tp29
F0.2857142857142857
s(S'd'
S'A'
tp30
F0.033333333333333333
s(S'u'
S'd'
tp31
F0.0044052863436123335
s(S'E'
S'd'
tp32
F0.33333333333333337
s(S'u'
S'0'
tp33
F0.94273127753303954
s(S'G'
S'D'
tp34
F1
s(S'1'
S'0'
tp35
F0.31481481481481488
s(S'4'
S'u'
tp36
F0.015817223198594021
s(S'1'
S'd'
tp37
F0.018518518518518521
s(S'd'
S'd'
tp38
F0.26666666666666666
s(S'D'
S'0'
tp39
F0.20000000000000001
s(S'e'
S'0'
tp40
F0.33333333333333337
s(S'0'
S't'
tp41
F0.00060060060060060068
s(S'a'
S'D'
tp42
F0.25
s(S'4'
S'd'
tp43
F0.0070298769771528985
s(S'1'
S'u'
tp44
F0.037037037037037042
s(S'4'
S'0'
tp45
F0.46045694200351489
s(S'v'
S'e'
tp46
F0.25
s(S'a'
S'a'
tp47
F0.25
s(S'D'
S'd'
tp48
F0.25454545454545457
s(S'6'
S'7'
tp49
F0.33333333333333337
s(S'r'
S'0'
tp50
F0.92857142857142849
s(S'A'
S'D'
tp51
F0.14285714285714285
s(S'0'
S'u'
tp52
F0.94054054054054059
s(S'r'
S'D'
tp53
F0.011904761904761906
s(S'1'
S'1'
tp54
F0.037037037037037042
s(S'4'
S'1'
tp55
F0.042179261862917393
s(S'r'
S'd'
tp56
F0.023809523809523812
s(S'E'
S'A'
tp57
F0.33333333333333337
s(S'4'
S'x'
tp58
F0.0017574692442882246
s(S'D'
S'e'
tp59
F0.018181818181818184
s(S'4'
S'A'
tp60
F0.0017574692442882246
s(S'w'
S'E'
tp61
F0.33333333333333337
s(S'5'
S'4'
tp62
F0.33333333333333337
s(S'u'
S'a'
tp63
F0.0022026431718061667
s(S'a'
S'0'
tp64
F0.25
s(S'd'
S'u'
tp65
F0.13333333333333333
s(S'F'
S'd'
tp66
F0.5
s(S'D'
S'A'
tp67
F0.05454545454545455
s(S'y'
S'u'
tp68
F1
s(S'7'
S'4'
tp69
F0.5
s(S'0'
S'r'
tp70
F0.058258258258258262
s(S'1'
S'D'
tp71
F0.11111111111111113
s(S'd'
S'D'
tp72
F0.26666666666666666
s(S'd'
S'0'
tp73
F0.26666666666666666
s(S'6'
S'w'
tp74
F0.33333333333333337
s(S'4'
S'6'
tp75
F0.0017574692442882246
s(S'F'
S'e'
tp76
F0.5
s(S'D'
S'u'
tp77
F0.018181818181818184
s(S'w'
S'F'
tp78
F0.66666666666666674
s(S'u'
S'r'
tp79
F0.0036710719530102785
s(S'u'
S'E'
tp80
F0.00073421439060205565
s(S'r'
S'u'
tp81
F0.035714285714285712
s(S'v'
S'u'
tp82
F0.25
s(S'A'
S'u'
tp83
F0.14285714285714285
s(S'e'
S'D'
tp84
F0.66666666666666674
s(S'D'
S'r'
tp85
F0.018181818181818184
s(S'A'
S'G'
tp86
F0.14285714285714285
s(S'd'
S'a'
tp87
F0.033333333333333333
s(S'7'
S'G'
tp88
F0.25
s(S'u'
S'D'
tp89
F0.01027900146842878
s(S'1'
S'4'
tp90
F0.48148148148148157
s(S'8'
S'7'
tp91
F0.5
stRp92
(dp93
S'_guess'
p94
g1
(cpykov
Vector
p95
g3
(dp96
S'A'
F0.0018111254851228978
sS'E'
F0.00077619663648124189
sS'D'
F0.014230271668822767
sS'G'
F0.00051746442432082796
sS'F'
F0.00051746442432082796
sS'6'
F0.00077619663648124189
sS'8'
F0.00051746442432082796
sS'5'
F0.0015523932729624838
sS'a'
F0.0010349288486416559
sS'e'
F0.00077619663648124189
sS'd'
F0.0077619663648124202
sS'7'
F0.0010349288486416559
sS'1'
F0.013971539456662352
sS'0'
F0.43078913324708923
sS'r'
F0.021733505821474774
sS'u'
F0.35239327296248391
sS'4'
F0.14721862871927557
sS'w'
F0.00077619663648124189
sS'v'
F0.0010349288486416559
sS'y'
F0.00025873221216041398
sS'x'
F0.00025873221216041398
sS't'
F0.00025873221216041398
stRp97
sb.S'440u0u0u0u#44uDd#410r0u#110u0u#440u0u0u0u0u0u0u#440u0u#440u0u#440u0u0u#440u0u#440u0u#140u0u0r0u#440u0u0u0u0u0u0u0u0u0u0u0u0u0u0u0u0u0u0u0u0u0u0u0u0u0u0u0u0u0u0u0u0u0u0u0u0u0u0u0u0u0u0u0u0u0u0u0u0u0u0u0u0u0u0u#440u0u0u#440u0u0u0u0u0u0r0u#440u0u0u0u0u0u0u#410u0r#440u0u0u#440u0u0u0r0u0u#44uD0u#410u0u0u#440u0u0u0u0u0u0u0u0u#440r0u0u0u0u0u0u0u0u0r0u#440u0u#44DDd0u#440u0u0u0u0u0u0u0u0u0u0u0u0u#440u0u0u#440u0u#140u0u0u0r0u#440u0u#440u0u#440u0u0u0r0u0u#440u0u0u#410r0u#440u0u0r#41DDda#440u0r0u0r0u0u#440u0r0u0u0u0u#140u0u0u#140u0u0u#440u0u0u0u#440u0u0u0u0u0u0u0u0u#440u0u0u0u0u#440u0u#440u0u#44D0u0u#440u0u0u0u0u0u0u0u0u0u0u0u0u0u0u#440u0u0u0u0u0u0u#440u0u0u0u0u0u0u0u0u0u0u0u0u0u0u#410u0u0u0u0u0u#74D0u0u0uuDD#440u0u0u0u0u0u0u0u0u0u0u#440u0u0u#41D0uru#140u0u0u0u0u#440u0u0u#440r0r#140u0u#440u0u#140u0u0u0u0u0u0u0r#440u0u#140u0u0u0u0u#410u0u#440u0u0u0u0u0t#440u0u0u0r0u0u0uurd0u0u0u#44AuuDa#140u0u0u#440r0u0u0u0u0u0u0u0u0u0u0u0u0u#140u0u#440u0u0u0u0u0u0u0u0u0u0u0u0u0r0u0r#440u0u0u0u0u0u#440u0u0u#140u0u0u#440u0u0u#440u0u#44uDDDdD#140u0u0u0u#440u0u0u0u#440u0u#440u0u#140u0u0u#440u0u#540u0u0u0u0r#440u0u#44uuuuuuuD#440u0u0u0u0u#140r0u0u#440u0r#440u0u0u#440u0u0u0u0u0u#440u0u#440u0u0u0u0u#440u0u0u0u0u0u0u0u#440u0u0u0u0u#440u0u0r0u0u0r0u0u0u0u0u0u0u#440u0u0u#440u0u0u0u0u#440u0u#440u0u0u0u0u0u#440u0u#440u0u0u#440u0u0u0u0u0u#440u0u0u0u0u0u0u#440u0u#440u0r0u0u0u0u0r0u0u0r0u0u0u0u0u0u#450u0u0u#67wEAd#440u0u0u#440r0u0u0u0r0u0u#440u0u#440u0u0r0u#46wFeDe0u#440u0u0u0u0u0r0r0u0u0u#410u0u#440u0u#440u0u0u0u0u0u0u0u0u0r0u0u0u0u0u0u0u0u0r0u#440u0u#440u0u0u#440u0u#440u0u0u0u0u0u0u0u0u0u0u0u0r0u#440u0u0u0u#440u0u#440u0u0u0u0u0r0u0u0u0u0u0u#440u0u0u0u0r#440u0u0u#440u0u0u#440u0u0u0u#440u0u#44DA0uuuD#440u0u#440u0u0u0u0u0u0u0u0u0u0u0u0u#440u0u#440u0u0r0u0u0u0u0u0u0r0u0u0u0u0u0u#440u0u#140u0u0u0u0u#64uwFduud#440u0u0u0u0u0u0u0u#440u0u0u0u0u#440u0u0u0u0u#41dDDD0u0uuuEddDDDDAd0u0uuuAGDA#45DdD0u#140u0u#440u0u0u#440u0u#440u0u#440u0u#440u0u#41udd#140u0r#410u0u0u0u0u#440u0u0u0u0u#440u0u#440u0u#440r0u0u0u0u0u#440u0u0u0u0u0u#440u0u0u#440u0u0u#41D0u#440u0r0u0u0u0u0u0u0u0u0u0u0u0u0u0u#440u0u#44uud#440u0u#41D0u#45Dru#440r0u#440u0r0u#440u0u0u0r0u#110u0u#440u0u0u0u0u0u#440u0u0u#44DddD0u0u#440u0u0u0u0u#44dDDduuD#440u0r#440u0u0u0u0u0u0u0u0u0u0u0u0u0u0u0u0u0u0u0u0u0u0u0u0u0u0u0u0u0u0u0u0u0u0u0u0u0u#440u0u0u#44xdA0u0uuDDd#440u0u0u0u0u0u0u0u0u0u0u0u0u0u0r0u0u0u0u0u0u0u0u0u#440u0u0u#440u0u0u0u0u0u0u0u0u0u0u0u#44uDD#140u0u#440u0u#440u0r0u0u0u0u0u0u#440u0u#440u0u#440u0u0u0u#440u0u0u#440u0u0u#440u0u#440u0u0u#440u0u#440u0u0u0u#44Dd0uuaDDDad#140u0u#140u0u#440u0u0r0u0u0r0u0u0u#440u0u0u0u0u#440u0u0u#440u0u#440u0u0u#440u0u#44dd0uvuAD0u0uuua#440u0u0u0r#440u0u0u0u0u0u#140u0u#440u0u0u0u0u0u#440u0u0u0u0u0u0u#74dDd0urD#440u0u#440u0u#440u0u0u0u0u0u0u0u#440u0u0u0r#440u0u0u0u0u0u0u0u0u0u0u0u0u#440r0u0u0u0u0u0u#440u0u#440u0u0r0u0u0u0u0u0u0u0u0u0u0u0u0u0u0u0u0u0u0u0u0u0u#140u0u#87GDd0yuD#440u0u0u#440u0u#440u0u#440u0u0u0u0u0u#440u0u0u0u0u0u0u0u0u0u0u0u0u0u0r0u0u0u0r0u0r0u0u0u0u0u0u0u0u0u0r0u0u0r0u0u#440u0u#440u0r#440u0u0u0u0u0u0u#440u0u0u0u0u#440u0u#440u0u0u0u#440u0u0u0u0u0u0u0u0u0u0u0u#440u0u0u#440u0r#440u0r0u#410u0u0u#440u0u0u#440u0u0u0u#410u0u0u0u0r0u#440u0u0u0u0u0u0u0u0u0u0u0u0u0u0u0u0u0u0u0u0u0u0u0u0u#440u0u0u0u#440u0u0u#440u0u0u0r0u0u0u0u0u0u0u0r0u0u0u0u0u0u0r0r0u0u0u0u0u0u0u0u0u0u0u0u0u0u0u0u0u0u0u0u0u0u0u0r0u0u0u0u0u0u0u0u0u0u0u0u0u0u0u0u0u0u0u0u0u0u0u0u#440u0u0u0u#440u0u0u#440u0u0u#44D0uudD#85uaa0uuD#440u0u0u0u#440u0u0u#440u0u0u0u0u0u0u0u0u0u0u0u#440u0u#440u0u0u0u0u0u0u0u0u0u0u0u0u0u0u0u0u0u0u#440u0u0u0u0u0u0u0u0r0u0u0u0u0r0u0u0u0u0u0u#440u0u0u0u0u0u0u0u0u#440u0u0u0u0u0u0u0u0u0u0r0u0u0u#440u0u0u0u#410u0u#44uuuuvEDD#440r0u0u0u0u0u#440u0u0u0u0u0u0u0u0u0u0u0u0u0u0u0u0u0r#410u0u0u0u0u0u0u0u0u0u#440u0u0u0u0u0u0u#410u0u0u0u0u0u0u0u#440u0u0r#440u0u0u0u#440u0u#440u0u#41DDD#440r0u0u#440u0u#410u0u0u#41Dddd#440u0u0u0u0u0u0u0u0u0u0r0u0r0r0r0u0u0u0u0u0u0u0u0u0u0u0u0u0u#440u0u0u0u0u#44uDDd#440u0u0u0u0u0r0u#440u0u0u0r#44d0uvDDD#440u0r0u0u0r0u0u0u0u0u#440u0u0r0u#440u0u#440u0u0u0u0u0u0u#440u0u#440u0u#54veDD#440u0u#440u0u0u0u0u0u0u0r0u0u0u0u0u0u0u0u0r0u0u0u0u0u0u0u0u#440u0u#440u0u0u0u0u0u#440u0u#140u0u0u#440u0u0r0u0u0u#440u0u0u0u#440u0u0u0u0u0u0u0u0u#440r0u0r0u0u0u0u#440u0u#440u0u#140u0u0u0u0u0r#44DduuDurduuuuuuuuuuuuuruuuud#440u0u0r0u0r0u0u0u0u#440u0r#440u0u#440u0u0u0u#440u0u0u0u0u0u0u0u#440u0u0u0u#140u0u0u0u0u#440u0u0u0u0u0u0u#440u0u0u0u0u#41uddd#440u0u0u0u0u0u0u0u0u#440u0u0u#440u0u#410u0u0u#440u0u#440u0u#440u0u0u0u0u0u0u0u0u0u0u0u0u0u0u0u0u0u#440u0u#140u0u0u0u#440u0u0u0u#440u0r0u0u0u0u0u0u0r0u0u0u0u0u0u0u0u'
p1
.(lp1
(F14172.271354
F24831.922884
tp2
a(F320720.18434899999
F2072.1281319999998
tp3
a(F37935.321906999998
F19578.359670999998
tp4
a(F36346.958817999999
F154215.80841600001
tp5
a(F339172.34381699999
F399253.936552
tp6
a(F19552.231919000002
F3970231.029385
tp7
a(F149647.91068299999
F126909.407702
tp8
a(F222592.745379
F175224.985285
tp9
a(F425479.92518199998
F181897.28738299999
tp10
a(F206991.31413899999
F11394.098924
tp11
a(F3798.6716190000002
F327709.12271899998
tp12
a(F55438.689204000002
F34741.139736999998
tp13
a(F28435.433528000001
F193322.08193799999
tp14
a(F32781.232585999998
F39146.989291999998
tp15
a(F109009.09363
F588683.35400100006
tp16
a(F45188.330542999996
F148623.634212
tp17
a(F884789.11024299997
F660434.20694399998
tp18
a(F159940.04835299999
F385924.263408
tp19
a(F343770.73009199998
F1963.758988
tp20
a(F127706.258751
F78328.380327000006
tp21
a(F123574.812936
F38569.664178999999
tp22
a(F123611.29498599999
F38396.616231
tp23
a(F709513.550636
F397702.28968300001
tp24
a(F2190.0126049999999
F1858.7252089999999
tp25
a(F34737.735688000001
F33230.067454999997
tp26
a(F193277.70052099999
F103529.78264200001
tp27
a(F21327.544138000001
F528467.32869400003
tp28
a(F585450.44345499994
F276184.62227400002
tp29
a(F103762.81808
F233475.51545000001
tp30
a(F249635.22980999999
F19534.255821999999
tp31
a(F724782.30542400002
F180378.974407
tp32
a(F181827.62797999999
F93260.717980999994
tp33
a(F123558.699458
F115923.151822
tp34
a(F3220209.1070309998
F61342.657520000001
tp35
a(F2064.75621
F1845.8536839999999
tp36
a(F169929.939002
F103923.661355
tp37
a(F666203.63015700004
F217924.627003
tp38
a(F78905.088527999993
F62359.168210999997
tp39
a(F497526.67650399997
F611518.89110200002
tp40
a(F91093.101756999997
F726471.45397499995
tp41
a(F521012.78704000002
F90333.540068999995
tp42
a(F109159.010778
F193315.90556700001
tp43
a(F33801.434138999997
F24403.997335
tp44
a(F1363065.0870360001
F349237.49065599998
tp45
a(F2103.4352199999998
F1927.730986
tp46
a(F142773.38696100001
F127659.763007
tp47
a(F98391.605377999993
F104177.964561
tp48
a(F87222.325551999995
F55789.953104
tp49
a(F154246.37186499999
F591699.19150700001
tp50
a(F1967.8840250000001
F1890.1447740000001
tp51
a(F108914.953903
F45223.399861999998
tp52
a(F262292.33816099999
F72853.827596000003
tp53
a(F1959.9411720000001
F1892.2230119999999
tp54
a(F19550.336947
F21295.648727
tp55
a(F112491.07881399999
F32818.996142999997
tp56
a(F38420.796779999997
F40825.902406000001
tp57
a(F3805.541964
F327700.86085200001
tp58
a(F284709.28334999998
F78169.005825
tp59
a(F28788.511437000001
F50315.452386999998
tp60
a(F275110.126927
F185779.362437
tp61
a(F437616.87501000002
F1239169.8850370001
tp62
a(F13407.635614000001
F271079.37844300002
tp63
a(F108718.493493
F100231.700371
tp64
a(F1389621.1631400001
F275138.00827799999
tp65
a(F2013.2172029999999
F1868.6241030000001
tp66
a(F58241.678726999999
F20751.785927000001
tp67
a(F42002.280159000002
F28751.54924
tp68
a(F2072510.322379
F677326.64147300005
tp69
a(F131021.18887100001
F50822.721834999997
tp70
a(F330138.33337399998
F582654.46297400002
tp71
a(F25408.912112999998
F162934.34353300001
tp72
a(F28567.730196
F424291.43663100002
tp73
a(F132079.42075700001
F96389.353508999993
tp74
a(F1136256.783881
F231903.044639
tp75
a(F79194.603833000001
F2180.4556670000002
tp76
a(F256189.24415799999
F1184727.292743
tp77
a(F106370.126865
F19574.554118
tp78
a(F54003.125014999998
F39228.761548000002
tp79
a(F525514.66302199999
F114758.89752699999
tp80
a(F55704.220199000003
F35379.808283999999
tp81
a(F424286.06920500001
F128776.35159799999
tp82
a(F452839.48221400002
F152192.52949799999
tp83
a(F281175.079715
F77353.422550999996
tp84
a(F7.6976089999999999
F2165.3326400000001
tp85
a(F161829.88523499999
F272325.01902399998
tp86
a(F25452.747530000001
F101567.229209
tp87
a(F460950.45418200002
F320910.211625
tp88
a(F11612.888327999999
F349020.26275699999
tp89
a(F55689.059109000002
F34764.473407999998
tp90
a(F45224.408016000001
F148125.81731899999
tp91
a(F516992.53046400001
F1374130.89427
tp92
a(F144257.22005100001
F269286.859956
tp93
a(F14168.877415999999
F461096.393958
tp94
a(F466112.87653200002
F112494.16058700001
tp95
a(F123551.910305
F115911.835807
tp96
a(F300748.275066
F432291.67258000001
tp97
a(F209089.29351799999
F67627.480647000004
tp98
a(F28761.162595000002
F395469.90760099998
tp99
a(F11372.467933
F21093.357398
tp100
a(F52444.531249
F33944.925537000003
tp101
a(F38487.956900999998
F444605.71384899999
tp102
a(F28562.896809999998
F45164.877189999999
tp103
a(F103783.628348
F595654.04791800003
tp104
a(F55895.645116
F146979.080434
tp105
a(F77539.344366000005
F72629.855507999993
tp106
a(F5.0085769999999998
F2331.4789369999999
tp107
a(F905667.77875099995
F526752.37783200003
tp108
a(F42067.122601000003
F152153.49299
tp109
a(F108665.516483
F753445.83727799996
tp110
a(F502271.604827
F93273.997080000001
tp111
a(F189112.73225299999
F2273.2120150000001
tp112
a(F87577.736910000007
F162349.001946
tp113
a(F181821.815198
F365344.30274499999
tp114
a(F19575.284414999998
F803673.37378200004
tp115
a(F86937.827357999995
F131029.06092600001
tp116
a(F192644.79830900001
F33890.917529999999
tp117
a(F264977.00772300002
F451791.45672000002
tp118
a(F112319.401388
F714678.60898100003
tp119
a(F91227.054279999997
F141130.6342
tp120
a(F90545.574437000003
F33181.368328999997
tp121
a(F140067.643484
F314661.83433400001
tp122
a(F64575.463643000003
F38880.407982999997
tp123
a(F67741.507014000003
F115652.772768
tp124
a(F633338.57829600002
F921389.70332600002
tp125
a(F30576.332127000001
F180151.41720200001
tp126
a(F50628.098430999999
F54284.901024999999
tp127
a(F701717.70913500001
F112497.06550500001
tp128
a(F2247.4680910000002
F2002.232483
tp129
a(F440368.846678
F75690.683225999994
tp130
a(F19547.935684
F58220.257687999998
tp131
a(F651975.95073299995
F148009.146201
tp132
a(F84237.345079999999
F58447.419606000003
tp133
a(F205595.484711
F80798.717585999999
tp134
a(F123599.198518
F38435.662452999997
tp135
a(F2180.8656700000001
F25.044454000000002
tp136
a(F320598.28268800001
F131077.860957
tp137
a(F112461.93487899999
F57735.691429999999
tp138
a(F30467.375123000002
F151684.999324
tp139
a(F1866.150386
F1847.7701930000001
tp140
a(F2107.0890629999999
F1860.0401320000001
tp141
a(F19501.459384999998
F14158.987827000001
tp142
a(F103717.603422
F89146.402381000007
tp143
a(F239478.31702300001
F154220.444132
tp144
a(F83243.325511000003
F41766.190773000002
tp145
a(F71510.046883999996
F19589.684313000002
tp146
a(F233415.95023399999
F268837.72844199999
tp147
a(F2313.45244
F1869.6921179999999
tp148
a(F3784.1102980000001
F327723.102946
tp149
a(F520019.19990299997
F684675.78118599998
tp150
a(F64608.713054
F39015.591031999997
tp151
a(F19877.960027000001
F261798.027412
tp152
a(F70746.948082999996
F50274.884135
tp153
a(F347669.42064500001
F2470018.4698620001
tp154
a(F323090.04354300001
F311370.27461999998
tp155
a(F205025.10996500001
F104075.718452
tp156
a(F546385.66388300003
F80377.584701999993
tp157
a(F1906.640699
F1839.1898679999999
tp158
a(F34518.800661000001
F71653.181641000003
tp159
a(F84742.640545999995
F1140628.6635179999
tp160
a(F1959.0194610000001
F6.4798590000000003
tp161
a(F64506.025417999997
F1647437.7522770001
tp162
a(F2033.6302889999999
F1908.2606860000001
tp163
a(F2012.728053
F1975.8306560000001
tp164
a(F65696.310310999994
F61423.902173000002
tp165
a(F86295.682153999995
F54838.621378999997
tp166
a(F33409.935225000001
F79445.194312000007
tp167
a(F34869.601498000004
F90837.814595000003
tp168
a(F55771.186263000003
F461297.29226199997
tp169
a(F1391646.098709
F1228126.647995
tp170
a(F2020.695123
F1942.4132500000001
tp171
a(F999458.78718099999
F35838.207481999998
tp172
a(F1880.8771589999999
F1893.539822
tp173
a(F162364.32364700001
F19544.610928999999
tp174
a(F87284.427496999997
F90540.516709999996
tp175
a(F19108.363531999999
F362592.62280700001
tp176
a(F2317.5959440000001
F1892.323085
tp177
a(F1243738.8490269999
F87000.287519999998
tp178
a(F413281.50660999998
F520144.67762700003
tp179
a(F284336.00226199999
F127747.053296
tp180
a(F64655.570459000002
F2093.1964560000001
tp181
a(F157760.084045
F14143.2899
tp182
a(F21349.745776
F346279.963705
tp183
a(F67506.539401999995
F160706.480411
tp184
a(F80745.461521999998
F28588.934794000001
tp185
a(F128705.690158
F332168.21353299997
tp186
a(F416133.00159200002
F440131.38949700003
tp187
a(F546676.28436799999
F1394338.9017700001
tp188
a(F64678.694143000001
F13959.846299999999
tp189
a(F407317.80369299999
F226841.07730500001
tp190
a(F218107.780172
F51007.357212000003
tp191
a(F1728038.8931819999
F667437.725584
tp192
a(F50757.918745000003
F93288.187990999999
tp193
a(F2072.5464969999998
F1812.034024
tp194
a(F205752.20087199999
F302786.47806499997
tp195
a(F39186.214500000002
F67122.996566000002
tp196
a(F71651.979942000005
F19576.546740999998
tp197
a(F249821.348467
F40426.302333
tp198
a(F96886.911988000007
F301033.99982600001
tp199
a(F670180.11194700003
F809327.49712700001
tp200
a(F884411.03641199996
F50574.264219999997
tp201
a(F497557.17864400003
F109272.837176
tp202
a(F1873.4574250000001
F1896.726253
tp203
a(F21260.057132999998
F62195.373219000001
tp204
a(F19509.801179999999
F57616.959983000001
tp205
a(F79301.533521999998
F161883.362845
tp206
a(F35752.234085999997
F65769.661802000002
tp207
a(F114946.236855
F90368.339718999996
tp208
a(F1912.590408
F1911.4490679999999
tp209
a(F1234872.328374
F752265.59771500004
tp210
a(F126113.74907000001
F20628.433032000001
tp211
a(F78653.681729999997
F107353.890335
tp212
a(F195901.00210700001
F1046981.150986
tp213
a(F87749.874498000005
F130421.026556
tp214
a(F157837.59003399999
F1063629.671351
tp215
a(F157165.51891000001
F497734.91769199999
tp216
a(F86927.498147999999
F131005.096832
tp217
a(F87179.054268000007
F131022.881225
tp218
a(F1968.9922309999999
F1867.3372750000001
tp219
a(F223749.419223
F643029.24073099997
tp220
a(F3775.6206830000001
F327746.86487200001
tp221
a(F168583.24929499999
F280636.35650300002
tp222
a(F177903.85441
F32999.667120999999
tp223
a(F80328.314608000001
F196234.040473
tp224
a(F1216049.7739889999
F2005386.2643889999
tp225
a(F640892.15006999997
F109235.964378
tp226
a(F13636.205877
F24788.300635
tp227
a(F25438.694142
F35772.382900999997
tp228
a(F30509.705514000001
F71409.134963999997
tp229
a(F183606.935956
F21332.341423999998
tp230
a(F1022138.622411
F184424.5049
tp231
a(F1539279.400508
F754976.94363800006
tp232
a(F134461.01401399999
F49986.259106999998
tp233
a(F123550.036435
F115914.95988900001
tp234
a(F96982.569143999994
F300941.04841300001
tp235
a(F103717.523984
F89137.780968999999
tp236
a(F775346.13578300003
F520046.17107500002
tp237
a(F38040.851604000003
F11588.739357
tp238
a(F55631.411864000002
F34941.211605999997
tp239
a(F19596.545213000001
F635832.69629500003
tp240
a(F611314.48022599996
F157465.868067
tp241
a(F90455.114258000001
F33245.389882000003
tp242
a(F36308.834020000002
F21408.781292
tp243
a(F2123916.0483559999
F325167.41045299999
tp244
a(F114731.708552
F143221.005496
tp245
a(F2142.5436089999998
F1844.4985999999999
tp246
a(F2419.3870040000002
F1888.011332
tp247
a(F56563.224847999998
F391631.16885700001
tp248
a(F72630.482713999998
F23749.670028
tp249
a(F55549.707694999997
F68063.860742000004
tp250
a(F140656.46288599999
F41969.362102999999
tp251
a(F269041.661953
F93255.470616000006
tp252
a(F86998.544307000004
F131012.376427
tp253
a(F33868.865514999998
F56567.060771999997
tp254
a(F36074.994618999997
F21244.685178
tp255
a(F21389.753992999998
F104506.857519
tp256
a(F609819.80053000001
F1685080.2509659999
tp257
a(F7.2655950000000002
F2492.9651699999999
tp258
a(F55737.628670999999
F551128.74949299998
tp259
a(F72306.861533999996
F100584.08571
tp260
a(F104233.191496
F28792.557194000001
tp261
a(F55689.118158999998
F34756.191812999998
tp262
a(F158299.25431700001
F453022.18491700001
tp263
a(F88044.738933999994
F90417.560188000003
tp264
a(F172713.97212300001
F56570.646511999999
tp265
a(F28475.431660999999
F100380.76201599999
tp266
a(F96546.096682999996
F17525.190499
tp267
a(F2060.4303439999999
F1927.6253240000001
tp268
a(F103747.311607
F89170.958610000001
tp269
a(F620733.30470900005
F61245.797559999999
tp270
a(F1635428.516966
F935928.93569399999
tp271
a(F1931.8771959999999
F1858.3818000000001
tp272
a(F87408.089305999994
F90542.714076000004
tp273
a(F106870.926211
F1728456.9560080001
tp274
a(F6.2210200000000002
F1967.483594
tp275
a(F154762.80687
F285379.37053399999
tp276
a(F502901.87079299998
F157648.30315299999
tp277
a(F1828.90203
F1842.937473
tp278
a(F115652.612951
F21263.301909999998
tp279
a(F32712.092997
F39137.955384000001
tp280
a(F125439.90453099999
F79112.396089999995
tp281
a(F1215435.1998640001
F336852.53343700001
tp282
a(F524399.04640500003
F354888.82872300001
tp283
a(F3383022.5662739999
F869881.120841
tp284
a(F2473.4645869999999
F1850.0201
tp285
a(F68959.703622000001
F258586.934022
tp286
a(F86904.829748999997
F131007.77430799999
tp287
a(F218473.01556500001
F382744.15023899998
tp288
a(F19550.769276999999
F57556.683433999999
tp289
a(F19553.864183000002
F183117.883004
tp290
a(F14460.496112000001
F24579.977450999999
tp291
a(F223761.030126
F193775.05572800001
tp292
a(F1354700.7531870001
F922242.705678
tp293
a(F774734.27166900004
F269029.94523700001
tp294
a(F182389.00263900001
F184242.13138899999
tp295
a(F1452184.738538
F64497.533170000002
tp296
a(F211168.562416
F65559.295830000003
tp297
a(F39202.761908
F44991.967570000001
tp298
a(F2170.9575220000002
F1909.0441060000001
tp299
a(F80719.363790999996
F73652.727450999999
tp300
a(F128758.245474
F1716038.3744969999
tp301
a(F50462.774490000003
F157997.76066
tp302
a(F1121517.0191510001
F723382.24847700004
tp303
a(F141288.519011
F283827.36325200001
tp304
a(F346149.14447599999
F1811279.28229
tp305
a(F172690.068272
F793651.79888899997
tp306
a(F144301.488556
F548563.24798900005
tp307
a(F521521.01068499999
F362730.67597899999
tp308
a(F2361.8555510000001
F1917.893454
tp309
a(F365157.70478799997
F28155.632342000001
tp310
a(F653417.77871500002
F774312.74956200004
tp311
a(F609293.30999900005
F1019146.268106
tp312
a(F249429.81474999999
F19525.913462
tp313
a(F58111.646898999999
F54722.186569999998
tp314
a(F62192.718715000003
F42042.147465000002
tp315
a(F57294.323977
F62302.233236
tp316
a(F106980.938393
F160198.79539399999
tp317
a(F268889.02328700002
F527324.01323399995
tp318
a(F35758.212237
F65776.922686000005
tp319
a(F114035.70671899999
F154469.023158
tp320
a.cnumpy.core.multiarray
scalar
p1
(cnumpy
dtype
p2
(S'f8'
I0
I1
tRp3
(I3
S'<'
NNNI-1
I-1
I0
tbS'\x9d\xf5b\xde\x1e\xd9t?'
tRp4
.F5.1917713595509183e-11
.