ccopy_reg
_reconstructor
p1
(cpykov
Vector
p2
c__builtin__
dict
p3
(dp4
S'A'
F0.02
sS'x'
F0.12000000000000001
sS'C'
F0.02
sS'G'
F0.059999999999999998
sS'g'
F0.19999999999999998
sS'I'
F0.10000000000000001
sS'h'
F0.080000000000000002
sS'c'
F0.02
sS'0'
F0.059999999999999998
sS'r'
F0.12
sS't'
F0.10000000000000001
sS'H'
F0.02
sS'8'
F0.040000000000000001
sS'z'
F0.040000000000000001
stRp5
.ccopy_reg
_reconstructor
p1
(cpykov
Chain
p2
c__builtin__
dict
p3
(dp4
(S'A'
S't'
tp5
F1
s(S'g'
S'g'
tp6
F0.80000000000000004
s(S'H'
S'I'
tp7
F1
s(S'r'
S'0'
tp8
F0.5
s(S'8'
S'8'
tp9
F0.5
s(S'x'
S'x'
tp10
F0.16666666666666666
s(S'I'
S'H'
tp11
F0.39999999999999997
s(S'g'
S'c'
tp12
F0.10000000000000001
s(S'0'
S'x'
tp13
F0.66666666666666674
s(S'G'
S'z'
tp14
F0.33333333333333337
s(S'x'
S't'
tp15
F0.16666666666666666
s(S'h'
S'g'
tp16
F0.25
s(S'g'
S'x'
tp17
F0.10000000000000001
s(S'c'
S'r'
tp18
F1
s(S'G'
S'I'
tp19
F0.66666666666666674
s(S'0'
S't'
tp20
F0.33333333333333337
s(S'z'
S'x'
tp21
F1
s(S'x'
S'g'
tp22
F0.16666666666666666
s(S'h'
S'h'
tp23
F0.75
s(S'C'
S'A'
tp24
F1
s(S'r'
S'C'
tp25
F0.16666666666666669
s(S'x'
S'z'
tp26
F0.16666666666666666
s(S'I'
S'G'
tp27
F0.59999999999999998
s(S'x'
S'I'
tp28
F0.33333333333333331
s(S't'
S'r'
tp29
F1
s(S'8'
S'h'
tp30
F0.5
s(S'r'
S't'
tp31
F0.33333333333333337
stRp32
(dp33
S'_guess'
p34
g1
(cpykov
Vector
p35
g3
(dp36
S'A'
F0.02
sS'x'
F0.12000000000000001
sS'C'
F0.02
sS'G'
F0.059999999999999998
sS'g'
F0.19999999999999998
sS'I'
F0.10000000000000001
sS'h'
F0.080000000000000002
sS'c'
F0.02
sS'0'
F0.059999999999999998
sS'r'
F0.12
sS't'
F0.10000000000000001
sS'H'
F0.02
sS'8'
F0.040000000000000001
sS'z'
F0.040000000000000001
stRp37
sb.S'88hhhhggggggcrtrtrCAtr0tr0xtr0xxggggxIGIHIGzxzxIGIH'
p1
.(lp1
(F1801.1156040000001
F1801.120165
tp2
a.cnumpy.core.multiarray
scalar
p1
(cnumpy
dtype
p2
(S'f8'
I0
I1
tRp3
(I3
S'<'
NNNI-1
I-1
I0
tbS']\xcf9\xf0\xe3J\x87?'
tRp4
.F6.6591474876797524e-15
.