ccopy_reg
_reconstructor
p1
(cpykov
Vector
p2
c__builtin__
dict
p3
(dp4
S'A'
F0.0023226437390489385
sS'C'
F4.0748135772788395e-05
sS'E'
F4.0748135772788395e-05
sS'7'
F4.0748135772788395e-05
sS'G'
F0.0041970579845972055
sS'F'
F8.1496271545576789e-05
sS'I'
F4.0748135772788395e-05
sS'a'
F0.0023633918748217266
sS'c'
F0.00048897762927346074
sS'e'
F8.1496271545576789e-05
sS'd'
F0.00032598508618230716
sS'g'
F0.78782445703109083
sS'f'
F8.1496271545576789e-05
sS'i'
F0.0013854366162748054
sS'h'
F0.0027301250967768226
sS'1'
F4.0748135772788395e-05
sS'0'
F0.0005297257650462491
sS'r'
F0.0015076810235931707
sS'u'
F0.00016299254309115358
sS't'
F8.1496271545576789e-05
sS'w'
F0.00012224440731836518
sS'v'
F0.00012224440731836518
sS'y'
F0.00085571085122855637
sS'x'
F0.19404262255001833
sS'z'
F0.00048897762927346074
stRp5
.ccopy_reg
_reconstructor
p1
(cpykov
Chain
p2
c__builtin__
dict
p3
(dp4
(S'c'
S'g'
tp5
F0.16666666666666666
s(S'G'
S'G'
tp6
F0.37864077669902907
s(S'u'
S'u'
tp7
F0.25
s(S'g'
S'a'
tp8
F0.00077583531602358545
s(S'A'
S'F'
tp9
F0.017543859649122806
s(S'a'
S'd'
tp10
F0.017241379310344831
s(S'0'
S'x'
tp11
F1
s(S'h'
S'x'
tp12
F0.044776119402985072
s(S'a'
S'0'
tp13
F0.051724137931034489
s(S'h'
S'a'
tp14
F0.014925373134328358
s(S'G'
S'F'
tp15
F0.0097087378640776673
s(S'z'
S'z'
tp16
F0.083333333333333329
s(S'c'
S'a'
tp17
F0.83333333333333337
s(S'x'
S'g'
tp18
F0.49370012599748003
s(S'7'
S'1'
tp19
F1
s(S'g'
S'i'
tp20
F0.0013965035688424535
s(S'a'
S'g'
tp21
F0.27586206896551729
s(S'r'
S'A'
tp22
F0.32432432432432429
s(S'e'
S'A'
tp23
F1
s(S'g'
S'h'
tp24
F0.002793007137684907
s(S'A'
S'A'
tp25
F0.2982456140350877
s(S'g'
S'g'
tp26
F0.86945277749043137
s(S'd'
S'g'
tp27
F0.375
s(S'w'
S'G'
tp28
F0.66666666666666663
s(S'a'
S'f'
tp29
F0.017241379310344831
s(S'u'
S'A'
tp30
F0.25
s(S'A'
S'0'
tp31
F0.14035087719298245
s(S'A'
S'g'
tp32
F0.070175438596491224
s(S'g'
S'y'
tp33
F0.00072411296162201309
s(S'd'
S'A'
tp34
F0.25
s(S'F'
S'A'
tp35
F0.5
s(S'v'
S'G'
tp36
F0.33333333333333331
s(S'A'
S'I'
tp37
F0.017543859649122806
s(S'h'
S'g'
tp38
F0.94029850746268651
s(S'g'
S'f'
tp39
F5.1722354401572356e-05
s(S'd'
S'd'
tp40
F0.25
s(S'G'
S'g'
tp41
F0.4271844660194174
s(S'A'
S'r'
tp42
F0.035087719298245612
s(S'x'
S'r'
tp43
F0.0067198656026879466
s(S'F'
S'x'
tp44
F0.5
s(S'g'
S'x'
tp45
F0.1225819799317265
s(S'u'
S'g'
tp46
F0.25
s(S't'
S'r'
tp47
F0.5
s(S'A'
S'C'
tp48
F0.017543859649122806
s(S'r'
S'i'
tp49
F0.027027027027027025
s(S'g'
S'e'
tp50
F5.1722354401572356e-05
s(S'a'
S'a'
tp51
F0.068965517241379323
s(S'a'
S'x'
tp52
F0.051724137931034489
s(S'y'
S'g'
tp53
F0.33333333333333331
s(S'w'
S'0'
tp54
F0.33333333333333331
s(S'x'
S'x'
tp55
F0.49265014699706011
s(S'v'
S'u'
tp56
F0.33333333333333331
s(S'a'
S'G'
tp57
F0.25862068965517243
s(S'G'
S'x'
tp58
F0.0097087378640776673
s(S'f'
S'd'
tp59
F0.5
s(S'g'
S'v'
tp60
F5.1722354401572356e-05
s(S'r'
S'a'
tp61
F0.54054054054054046
s(S'v'
S'a'
tp62
F0.33333333333333331
s(S'a'
S'i'
tp63
F0.017241379310344831
s(S'g'
S'd'
tp64
F0.00015516706320471707
s(S'E'
S'A'
tp65
F1
s(S'A'
S'a'
tp66
F0.035087719298245612
s(S'g'
S'G'
tp67
F0.0012413365056377365
s(S'A'
S'x'
tp68
F0.017543859649122806
s(S'x'
S'y'
tp69
F0.0014699706005879883
s(S'y'
S'x'
tp70
F0.66666666666666663
s(S'g'
S'u'
tp71
F5.1722354401572356e-05
s(S'u'
S'h'
tp72
F0.25
s(S'A'
S'E'
tp73
F0.017543859649122806
s(S'x'
S'c'
tp74
F0.00041999160016799666
s(S'i'
S'g'
tp75
F1
s(S'I'
S'd'
tp76
F1
s(S'x'
S'h'
tp77
F0.00251994960100798
s(S'g'
S'z'
tp78
F0.00056894589841729602
s(S't'
S'u'
tp79
F0.5
s(S'g'
S't'
tp80
F5.1722354401572356e-05
s(S'G'
S'A'
tp81
F0.17475728155339804
s(S'C'
S'a'
tp82
F1
s(S'g'
S'c'
tp83
F5.1722354401572356e-05
s(S'f'
S'a'
tp84
F0.5
s(S'x'
S'i'
tp85
F0.0010499790004199917
s(S'A'
S'c'
tp86
F0.017543859649122806
s(S'x'
S'v'
tp87
F0.00041999160016799666
s(S'a'
S'c'
tp88
F0.12068965517241381
s(S'a'
S'A'
tp89
F0.051724137931034489
s(S'a'
S't'
tp90
F0.017241379310344831
s(S'x'
S'0'
tp91
F0.00020999580008399833
s(S'r'
S'G'
tp92
F0.1081081081081081
s(S'z'
S'x'
tp93
F0.83333333333333337
s(S'A'
S'G'
tp94
F0.31578947368421056
s(S'x'
S'a'
tp95
F0.00020999580008399833
s(S'1'
S'a'
tp96
F1
s(S'z'
S'c'
tp97
F0.083333333333333329
s(S'd'
S'a'
tp98
F0.125
s(S'a'
S'e'
tp99
F0.017241379310344831
s(S'x'
S'w'
tp100
F0.000629987400251995
s(S'a'
S'r'
tp101
F0.034482758620689662
stRp102
(dp103
S'_guess'
p104
g1
(cpykov
Vector
p105
g3
(dp106
S'A'
F0.0023226437390489385
sS'C'
F4.0748135772788395e-05
sS'E'
F4.0748135772788395e-05
sS'7'
F4.0748135772788395e-05
sS'G'
F0.0041970579845972055
sS'F'
F8.1496271545576789e-05
sS'I'
F4.0748135772788395e-05
sS'a'
F0.0023633918748217266
sS'c'
F0.00048897762927346074
sS'e'
F8.1496271545576789e-05
sS'd'
F0.00032598508618230716
sS'g'
F0.78782445703109083
sS'f'
F8.1496271545576789e-05
sS'i'
F0.0013854366162748054
sS'h'
F0.0027301250967768226
sS'1'
F4.0748135772788395e-05
sS'0'
F0.0005297257650462491
sS'r'
F0.0015076810235931707
sS'u'
F0.00016299254309115358
sS't'
F8.1496271545576789e-05
sS'w'
F0.00012224440731836518
sS'v'
F0.00012224440731836518
sS'y'
F0.00085571085122855637
sS'x'
F0.19404262255001833
sS'z'
F0.00048897762927346074
stRp107
sb.S'71ax0xrA0xw0xrA0xrA0xrA0xrA0xrA0xra0xra0xrA0xrA0xra0xxggggggggxxggggggggxxggggggggxxggggggggxxggggggggxxggggggggGAAGGggggggggxxggggggggxxggggggggxxggggggggxxggggggggxxggggggggxxggggggggxxggggggggxxggggggggxxggggggggxxggggggggxxggggggggxxggggggggxxggggggggxxggggggggxxggggggggxxggggggggxxggggggggxxggggggggxxggggggggxxggggggggxxggggggggxxggggggggxxggggggggxxggggggggxxggggggggxxggggggggxxggggggggxxggggggggxxggggggggxxggggggggxxggggggggxxggggggggxxggggggggxxggggggggxxggggggggxxggggggggxxggggggggxxggggggggxxggggggggxxggggggggxxggggggggxxggggggggxxggggggggxxggggggggxxggggggggxxggggggggGFxxggggggggxxggggggggxxggggggggxxggggggggxxggggggggxxggggggggxxggggggggxxggggggggxxggggggggxxggggggggxxggggggggxxggggggggxxggggggggxxggggggggxxggggggggxxggggggggxxggggggggxxggggggggxxggggggggxxggggggggxxggggggggxxggggggggxxggggggggxxggggggggxxggggggggxxggggggggxxggggggggxxggggggggxxggggggggxxggggggggxxggggggggxxggggggggxxggggggggxxggggggggxxggggggggxxggggggggxxggggggggxxggggggggxxggggggggxxggggggggxxggggggggxxgggghgggxyggggggggxxggggggggxxggggggggxxggggggggGAAgGggggggggxxggggggggxxggggggggxxggggggggxxggggggggxxggggggggxxggggggggxxggggggggxxggggggggxxggggggggxxggggggggxxggggggggxxggggggggxxggggggggxxggggggggxxggggggggxxggggggggxxggggggggxxggggggggxxggggggggxxggggggggxxggggggggxxggggggggxxggggggggxxggggggggxxggggggggxxggggggggxxggggggggxxggggggggxxggggggggxxggggggggxxggggggggxxggggggggxxggggggggxxggggggggxxggggggggxxggggggggxxggggggggxxggggggggxxggggggggxxggggggggxyggggggggxxggggggggxxggggggggzzcadAFAacaaigggeAIdatuAEACacgfaafdgcaacaeAAcacgdAaAxxggggggggxxggggggggxraGGgggggddghxxggggggggxxggggggggxxggggggggxxggggggggxxggggggggxxggggggggxxggggggggxxggggggggxxggggggggxxggggggggxxggggggggxxggggggggxxggggggggxxggggggggxxggggggggxxgghgggggxxggggggggxxggggggggxxggggggggxxggggggggxxggggggggxxggggggggxxggggggggxxggggggggxxggggggggxxggggggggxxggggggggxxggggggggxxggggggggxxggggggggxxggggggggxxggggggggxxggggggggxxggggggggxxggggggggxxggggggggxxggggggggxxggggggggxxggggggggxxggggggggxxggggggggxxggggggggxxggggggggxxggggggggxxggggggggxwGGggggggggxxggggggggxxggggggggxxggggggggxxggggggggxxggggggggxxggggggggxxggggggggxxggggggggxxggggggggxxggggggggxxggggggggxxggggggggxxggggggggxxggggggggxxggggggggxxggggggggxxggggggggxxggggggggxxggggggggxxggggggggxxggggggggxxggggggggxxggggggggxxggggggggxxggggggggxxggggggggxxggggggggxxggggggggxxggggggggxxggggggggxxggggggggxxggggggggxxggggggggxxggggggggxxggggggggxxggggggggxxggggggggxxggggggggxxggggggggxxggggggggxxggggggggxxggggggggxxggggggggxxggggggggxxggggggggxxggggggggxxggggggggxxggggggggxrAGGggggggggxxggggggggxxggggggggxxggggggggxxggggggggxxggggggggxxggggggggxxggggggggxxggggggggxxggggggggxxggggggggxxggggggggxxggggggggxxggggggggxxggggggggxxggggggggxxggggggggxxggggggggxxggggggggxxggggggggxxggggggggxxggggggggxxggggggggxxggggggggxxggggggggxxggggggggxxggggggggxxggggggggxxggggggggxxggggggggxxggggggggxxggggggggxxggggggggxxggggggggxxggggggggxxggggggggxxggggggggxxggggggggxxggggggggxxggggggggxxggggggggxxggggggggxxggggggggxxggggggggxxggggggggxxggggggggxxggggggggGArGGggggggggxxggggggggxxggggggggxxggggggggxxggggggggxxggggggggxxggggggggtriggaggggggxxggggggggxxggggggggxxggggggggxxgggghgggxxggggggggxxggggggggxxggggggggxxggggggggxxggggggggxxggggggggxxggggggggxxggggggggxxggggggggxxggggggggxxggggggggxxggggggggxxggggggggxxggggggggxxggggggggxxggggggggxxggggggggxxggggggggxxggggggggxxggggggggxxggggggggxxggggggggxxggggggggxxggggggggxxggggggggxxggggggggxxggggggggxxggggggggxxggggggggxxggggggggxxggggggggxxggggggggxxggggggggxxggggggggGAAgGggggggggxxggggggggxxggggggggxxggggggggxxggggggggxxggggggggxxggggggggxxggggggggxxggggggggxxggggggggxxggggggggxxggggggggxxggggggggxxggggggggxxggggggggxxggggggggxxggggggggxxggggggggxxggggggggxxggggggggxxggggggggxxggggggggxxggggggggxxggggggggxxggggggggxxggggggggxxggggggggxxggggggggxxggggggggxxggggggggxxggggggggxxggggggggxxggggggggxxggggggggxxggggggggxxggggggggxxggggggggxxggggggggxxggggggggxxggggggggxxggggggggxxggggggggxxgghgggggxxggggggggxxggggggggxxggggggggxxggggggggxxggggigggGAAGGggggggggxxggggggggxxggggggggxxggggggggxxggggggggxxggggggggxxggggggggxxggggggggxxggggggggxxggggggggxxggggggggxxggggggggxxggggggggxxggggggggxxggggggggxxggggggggxxggggggggxxggggggggxxggggggggxxggggggggxxggggggggxxggggggggxxggggggggxxggggggggxxggggggggxxggggggggxxggggggggxxggggggggxxggggggggxxggggggggxxggggggggxxggggggggxxggggggggxxggggggggxxggggggggxxggggggggxxggggggggxxggggggggxxggggggggxxggggggggxxggggggggxxggggggggxxggggggggxxggggggggxxggggggggxxggggggggxraGGggggggggxxggggggggxxggggggggxxggggggggxxggggggggxxggggggggxxggggggggxxggggggggxxggggggggxxggggggggxxggggggggxxggggggggxxggggggggxxggggggigzxggggggggxxggggggggxxggggggggxxggggggggxxggggggggxxggggggggyxggggggggxxggaggggggxxggggggggxxggggggggxxggggggaggxxggggggggxxggggggggxxgghgggggxxggggggggxxggggggggxxggggggggxxggggggggxxggggggggxxggggggggxxggggggggxxggggggggxxggggggggxxggggggggxxggggggggxxggggggggxxggggggggxxggggggggxxggggggggxxggggggggxxggggggggxxggggggggxxggggggggxxggggggggxxggggggggxxggggggggGAAGGggggggggxxggggggggxxggggggggxxggggggggxxggggggggxxggggggggxxggggggggxxggggggggxxggggggggyxggggggggxxggggggggxxggghggggxxggggggggxxggggggggxxggggggggxxggggggggxxggggggggxxggggggggxxggggggggxxggggggggxxhgggggggxxggggggggxxggggggggxxggggggggxxggggggggxxggggggggxxggggggggxxggggggggxxggggghggxxggggggggyxggggggggxxggggggggxxggggggggxxggggggggxxigggggggxxggggggggxxggggggggxxggggggggxxggggggggxxggggggggxxggggggggxxggggggggxxggggggggxxggggggggxxggggggggxxggggggggxraGGggggggggxxggggggggxxggggggggxxggggggggxxggggggggxxggggggggxxggggggggxxggggggggxxggggggggxxggggggggxxggggggggxxggggggggxxggggggggxxggggggggxxggggggggxxggggggggxxggggggggxxggggggggxxggggggggxxggggggggxxggggggggxxggggggggxxggggggggxxggggggggxxggggggggxxggggggggxxggggggggxxggggggggxxggggggggxxggggggggxxggggggggxxggggggggxxggggggggxxggggggggxxggggggggxxggggggggxxggggggggxxggggggggxxggggggggxxggggggggxxggggggggxxggggggggxxggggggggxxggggggggxxggggggggxxggggggggxxggggggggxxggggggggxxgggggggggarGGggggggggxxggggggggxxggggggggxxggggggggxxggggggggxxggggggggxxggggggggxxggggggggxxggggggggxxggggggggxxggggggggxxggggggggxxggggggggxxggggggggxxggggggggxxggggggggxxggggggggxxggggggggxxggggggggxxggggggggxxggggggggxxggggggggxxggggggggxxggggggggxxggggggggxxggggggggxxggggggggxxggggggggxxggggggggxxggggggggxxggggggggxxgghgggggxxggggggggxxggggggggxxggggggggxxggggggggxxggggggggxxggggggggxxggggggggxxggggggggxxggggggggxxggggggggxxgggghgggxxggggggggxxggggggggxxggggggggxxggggggggxxggggggggxraGGggggggggxxggggggggxxggggggggxxggggggggxxggggggggxxggggggggxxggggggggxxggggggggxxggggggggxxggggggggxxggggggggxxggggggggxxggggggggxxggggggggxxggggggggxxggggggggxxggggggggxxggggggggxxggggggggxxggggggggxxggggggggxxggggggggxxggggggggxxggggggggxxggggggggxxggggggggxxggggggggxxggggggggxxggggggggxxggggggggxxggggggggyxggggggggxxggggggggxxggggggggxxggggggggxxggggggggxxggggggggxxggggggggxxggggggggxxggggggggxxggggggggxxggggggggxxggggggggxxggggggggxxggggggggxxggggggggxxggggggggxrAGGggggggggxxggggggggxxggggggggxxggggggggxxggggggggxxggggggggzxggggggggxxggggggggxxggggggggxxggggggggxxggggggggxxggggggggxxggggggggxxggggggggxxggggggggxxggggggggxxggggggggxxggggggggxxggggggggxxggggggggxxggggggggxxggggggggxxggggggggyxggggggggxxggggggggxxggggggggxxggggggggxxggggggggxxggggggggxxggggggggxxggggggggxxggggggggxxggggggggxxggggggggxxggggggggxxggggggggxxggggggggxxggggggggxxggggggggxxggggggggxxggggggggxxggggggggxxggggggggxxggggggggxxggggggggxxggggggggxxggggggggxxggggggggxxggggggggxxggggggggGAAGGggggggggxxggggggggxxggggggggxxggggggggxxggggggggxxggggggggxxggggggggxxggggggggxxggggggggxxggggggggxxggggggggxxggggggggxxggggggggxxggggggggxxggggggggxxggggggggxxggggggggxxggggggggxxggggggggxxggggggggxxggggggggxxggggggggxxggggggggxxggggggggxxggggggggxxggggggggxxgggggghgxxggggggggxxggggggggxxggggggggxxggggggggxxggggggggxxggggggggxxggggggggxxggggggggxxggggggggxxggggggggxxggggggggxxggggggggxxggggggggxxggggggggxxggggggggxxggggggggxxggggggggxxggggggggxxggggggggGAAGGggggggggxxggggggggxxggggggggxxggggggggxxggggggggxxggggggggxxggggggggxxggggggggxxggggggggxxggggggggxxggggggggxxggggggggxxgggggghgxxggggggggxxggggggggxxggggggggxxggggggggxxggggggggxxggggggggxxggggggggxxggggggggxxggggggggxxggggggggxxggggggggxxggggggggxxggggggggxxggggggggxxggggggggxxgghgggggxxggggggggxxggggggggxxggggggggxxggggggggxxggggggggxxggggggggxxggggggggxxggggggggxxggggggggxxggggggggxxggggggggxxggggggggxxggggggggxxggggggggxxggggggggxxggggggggxxggggggggxxggggggggxxggggggggxxggggggggxraGGggggggggxxggggggggxxggggggggxxggggggggxxggggggggxxggggggggxxggggggggxxggggggggxxhgggggggxxggggggggxxggggggggxxggggggggxxgghgggggxxggggggggxxggggggggxxggggggggxxggggggggxxggggggggxxggggggggxxggggggggxxggggggggxxggggggggxxggggggggxxggggggggxxggggggggxxggggggggxxggggggggxxggggggggxxggggggggxxggggggggxxggggggggxxggggggggxxggggggggxxggggggggxxggggggggxxggggggggxxggggggggxxggggggggxxggggggggxxggggggggxxggggggggxxggggggggxxggggggggxxggggggggxxggggggggxxggggggggxxggggggggxraGGggggggggxxggggggggxxggggggggxxggggggggxxggggggggxxggggggggxxggggggggxxgggggggguugggggggggxxggggggggxxggggggggxxggggggggxxggggggggxxggggggggxxggggggggxxggggggggxxggggggggxxggggggggxxggggggggxxggggggggxxggggggggxxggggggggxxggggggggxxggggggggxxggggggggxxggggggggxxggggggggxxggggggggxxggggggggxxggggggggxxggggggggxxggggggggxxggggggggxxggggggggxxggggggggxxggggggggxxggggggggxxggggggggxxggggggggxxggggggggxxggggggggxxggggggggxxhgggaggigxxggigggggxxggggggggxxggggggggxxggggigggxraGGggigigggxxggaggggggxxggggggggxxggggggggxxggggggggxxggggggggxxggggggggxxggggggggxxggggggggxxggggggggxxggggggggxxggggggggxxggggggggxxggggggggxxggggggggxxggggggggxxggggggggxxggggggggxxggggggggxxggggggggxxggggggggxxggggggggxxgggghgggxxggggggggxxggggggggxxggggggggxxggggggggxxggggggggxxhgggggggxxggggggggxxggggggggxxggggggggxxggggggggxxggggggggxxggggggggxxggggggggxxggggggggxxggggggggxxggggggggxxggggggggxxggggggggxxggggggggxxggggggggxxggggggggxxggggggggxxggggggggxxggggggggxxggggggggxxggggggggxrAGGggggggggxxggggggggxxggggggggxxggggggggxxggggggggxxggggghggxxggggggggxxggggggggxxggggggghxxggggggggxxggggggggxxggggggggxxggggggggxxggggggggxxggggggggxxggggggggxxggggggggxxggggggggxxggggggggxxggggggggxxggggggggxxggggggggxxggggggggxxggggggggxxggggggggxxgggggghgxxggggggggxxggggggggxxggggggggxxggggggggxxggggggggxxggggggggxxggggggggxxggggggggxxggggggggxxggggggggxxggggggggxxggggggggxxggggggggxxggggggggxxggggggggxxggggggggxxggggggggxxggggggggxxggggggggxxggggggggxraGGggggggggxxggggggggxxggggggggxxggggggggxxggggggggxxggggggggxxggggggggxxggggggggxxggggggggxxggggggggxxggggggggxxggggggggxxggggggggxxggggggggxxggggggggxxggggggggxxggggggggxxggggggggxxggggggggxxggggggggxxggggggggxxggggggggxxggggggggxxggggggggxxggggggggxxggggggggxxggggggggxxggggggggxxggggggggxxggggggggxxgggghgggxxggggggggxxggggggggxxggggggggxxggggggggxxggggggggxxggggggggxxggggggggxxggggggggxxgghgggggxxggggggggxxggggggggxxggggggggxxggggggggxxggggggggxxggggggggxxggggggggxxggggggggxxggggggggxragGggggggggxxggggggggxxggggggggxxggggggggxxggggggggxxggggggggxxggggggggxxggggggggxxggggggggxxggggggggxxggggggggxxggggggggxxggggggggxxggggggggxxggggggggxxgghgggggxxggggggggxxggggggggxxggggggggxxggggggggxxggggggggxxggggggggxxggggggggxxggggggggxxggggggggxxggggggggxxggggggggxxggggggggxxggggggggxxggggggggxxggggggggxxggggggggxxggggggggxxggggggggyxggggggggxxggggggggxxggggggggxxggggggggxxggggggggxxggggggggxxggggggggxxggggggggxxggggggggxxggggggggxxggggggggxxgghgggggxxggggggggxxggggggggxxggggggggxxcaggggggggGAAGGggggggggxxggggggggxxggggggggxxggggggggxxggggggggxxggggggggxxggggggggxxggggggggxxggggggggxxggggggggxxggggggggxxggggggggxxggggggggxxggggggggxxggggggggxxggggggggxxggggggggxxggggggggxxggggggggxxggggggggxxggggggggxxggggggggxxggggggggxxggggggggxxggggggggxxggggggggxxggggggggxxggggggggxxggggggggxxggggggggxxgggggghgxxggggggggxxggggggggxxggggggggxxggggggggxxggggggggxxggggggggxxggggggggxxggggggggxxggggggggxxggggggggxxggggggggxxggggggggxxggggggggxxggggggggxxgghgggggxxggggggggxxggggggggxxggggggggxxggggggggxxggggggggxxggggggggGAAgGggggggggxxggggggggxxggggggggxxggggggggxxggggggggxxggggggggxxggggggggxxgghgggggxyggggggggxxggggggggxxggggggggxxggggggggxxggggggggxxggggggggxxggggggggxxggggggggxxggggggggxxggggggggxxggggggggxxggggggggxxggggggggxxggggggggxxggggggggxxggggggggxxgghgggggxxggggggggxxggggggggxxgggghgggxxggggggggxxggggggggxxggggggggxxggggggggxxggggggggxxggggggggxxggggggggxxggggggggxxhgggggggxxggggggggxyggggggggxxgggggghgxxggggggggxxgghgggggxxggggggggxxggggggggxyggggggggxxggggggggxxggggggggxxggggggggxxggggggggxxggggggggxxggggggggxxhgggggggxraggggggggggxxggggggggxxggggggggxxggggggggxxggggggggxxggggggggxxggggggggxxggggggggxxggggggggxxggggggggxxggggggggxxggggggggxxggggggggxxggggggggxxggggggggxxggggggggxxggggggggxxggggggggxxggggggggxxggggggggxxggggggggxxggggggggxxggggggggyxggggggggxxggggggggxxggggggggxxggggggggxxggggggggxxggggggggxxggggggggxxggggggggxxggggggggxxggggggggxxggggggggxxggggggggxxggggggggxxggggggggxxggggggggxxggggggggxxggggggggxxggggggggxxggggggggxxggggggggxxggggggggxxggggggggxxggggggggxxgghgggggxxggggggggxxggggggggxxggggggggxxggggggggxxggggggggxxgggggggggaAGxggigggggxxggggggggxxggggggggxxggggggggxxggggggggxxggggggggxxggggggggxxggggggggxxggggigggxxggggggggxxggggggggxxggggggggxxggggggggxxggggggggxxggggggggxxggggggggxxggggggggxxggggggggxxggggggggxxggggggggxxggggggggxxggggggggxxggggggggxxggggggggxxhgggggggxxggggggggxxggggggggxxggggggggxxhgggggggxxggggigggxxggggggggxxggggggggxxggggggggxxggggggggxxggggggggxxggggggggxxggggggggxxggggggggxxggggggggxxgggggghgxxggggggggxxggggggggxxggggggggxxigggggggxxggggggggxxggggggggxxigggggggxxggggggggxxggggggggxxggggggggxxggggggggxxggggggggxraGGggggggggxxggggggggxxggggggggxxggggggggxxggggggggxxggggggggxxggggggggxxggggggggyxggggggggxxhgggggggxxggggggggxxggggggggxxggggggggxxggggggggxxggggggggxxggggggggxxggggggggxxggggggggxxggggggggxxggggggggxxggggggggxxggggggggxxggggggggxxggggggggxxggggggggxxgghgggggxxggggggggxxggggggggxxggggggggxxggggggggyxggggggggxxggggggggxxggggggggyxggggggggxxigggggggxxggggggggxxggggggggxxggggggggxxggggggggxxggggggggxxggggggggxxggggggggxxggggggggxxggggggggxxhgggggggxxggggggggxxggggggggxxggggggggxxggggggggxxggggggggxxggggggggxxggggggggxxgggggggggaaxxggggggggxxggggggggxxggggggggxxggggggggxxggggggggxxggggggggxxggggigggxxggggggggxxggggggggxxggggggggxxggggggggxxggggggggyxggggggggzxggggggggxxhgggggggxxggggggggxxggggggggxxggggggggxxggggggggxxggggggggxxggggggggxxggggggggxxggggggggxxgggghgggxxggggggggxxgghgggggxxggggggggxxggggggggxxggggggggxxggggggggxxggggggggzxigggggigxxggggggggxxgggghgggzxggggggggxxggggggggxxggggigggxxggggggggxxggggggggxxggggggggxxggggggggxxggggggggxxggggggggxxggggggggxxggggggggxxggggggggxxggggggggxxggggggggxxggggggggxxgggggghgzxggggggigxxggggggggxvaGGgghgggggxxggggggggxxggggggggxxggggggggxxggggggggxxggggggggxxggggggggxxggggggggxxggggggggxxggggggggxxggggggggxxggggggggxxggggggggxxggggggggxxggggggggxxggggggggxxggggggggxxggggggggxxggggggggxxggggggggxxggggggggxxggggggggxxggggggggxxggggggggxxggggggggxxggggggggxxggggggggxxggggggggxxggggggggxxggggggggxxggggggggxxggggggggxxggggggggxxggggggggxxggggggggxxggggggggxxggggggggxxggggggggxxggggggggxxggggggggxxggggggggxxggggggggxxggggggggxxggggggggxxggggggggxxggggggggxxggggggggxxggggggggxxggggggggxxggggggggxxggggggggxxggggggggxxgggggggggarGGggggggggxxggggggggxxggggggggxxggggggggxxggggggggxxggggggggxxggggggggxxggggggggxxggggggggxxggggggggxxggggggggxxggggggggxxggggggggxxggggggggxxggggggggxxggggggggxxggggggggxxggggggggxxggggggggxxggggggggxxggggggggxxggggggggxxggggggggxxggggggggxxggggggggxxggggggggxxggggggggxxggggggggxxggggggggxxggggggggxxggggggggxxggggggggxxggggggggxxggggggggxxggggggggxxggggggggxxggggggggxxggggggggxxggggggggxxggggggggxxggggggggxxggggggggxxggggggggxxggggggggxxggggggggxxggggggggxxggggggggxxggggggggxxggggggggxxggggggggxxggggggggxraGGggggggggxxggggggggxxggggggggxxggggggggxxggggggggxxggggggggxxggggggggxxggggggggxxggggggggxxgggghgggxxggggggggxxggggggggxxggggggggxxggggggggxxggggggggxxggggggggxxcacacacaggaggggaxxggggggggxxggggggggxxggggggggxxggggggggxxggggggggxxggggggggxxggggggggxxggggggggxxggggggggxxggggggggxxggggggggxxggggggggxxggggggggxxggggggggxxggggggggxxggggggggxxggggggggxxggggggggxxggggggggxxggggggggxxggggggggxxggggggggxxggggggggxxggggggggxxggggggggxxggggggggxxggggggggxxggggggggxxggggggggxxggggggggxxggggggggxxggggggggxxggggggggxxggggggggxxggggggggxxggggggggxwGGggggggggxxggggggggxxggggggggxxggggggggxxggggggggxxggggggggxxggggggggxxggggggggxxggggggggxxggggggggxxggggggggxxggggggggxxggggggggxxggggggggxxggggggggxxggggggggxxggggggggxxggggggggxxggggggggxxggggggggxxggggggggxxggggggggxxggggggggxxggggggggxxggggggggxxgghgggggxxggggggggxxggggggggxxggggggggxxggggggggxxggggggggxxggggggggxxggggggggxxggggggggxxggggggggxxggggggggxxggggggggxxggggggggxxggggggggxxggggggggxxggggggggxxggggggggxxggggggggxxggggggggxxggggggggxxggggggggxxggggggggxxggggggggxxggggggggxxggggggggxxggggggggxxggggggggxxggggggggGAAGGggggggggxxggggggggxxggggggggxxggggggggxxggggggggxxggggggggxxggggggggxxggggggggxxggggggggxxggggggggxxggggggggxxggggggggxxggggggggxxggggggggxxggggggggxxggggggggxxggggggggxxggggggggxxggggggggxxggggggggxxggggggggxxggggggggxxggggggggxxggggggggxxggggggggxxggggggggxxggggggggxxggggggggxxggggggggxxggggggggxxggggggggxxggggggggxxggggghggxxggggggggxxggggggggxxggggggggxxggggggggxxggggggggxxggggggggxxggggggggxxggggggggxxggggggggxxggggggggxxggggggggxxggggggggxxggggggggxxggggggggxxggggggggxxggggggggxxggggggggxxggggggggxxggggggggxxggggggggGAAGGggggggggxxggggggggxxggggggggxxggggggggxxggggggggxxggggggggxxggggggggxxggggggggxxggggggggxxggggggggxxggggggggxxggggggggxxggggggggxxggggggggvuhggggggggxxggggggggxxggggggggxxggggggggxxggggggggxxggggggggxxggggggggxxggggggggxxggggggggxxggggggggxxggggggggzxggggggggxxggggggggxxggggggggxxggddgggggxxggggggggxxggggggggxxggggggggxxggggggggxxggggggggxxggggggggxxggggggggxxggggggggxxggggggggxxggggggggxxggggggggxxggggggggxxggggggggxxggggggggxxggggggggxxggggggggxxggggggggxxggggggggxxggggggggxxggggggggxxggggggggxxggggggggxxggggggggxxggggggggGAAGGggggggggxxggggggggxxggggggggxxggggggggxxggggggggxxggggggggxxggggggggxxggggggggxxggggggggxxggggggggxxggggggggxxggggggggxxggggggggxxggggggggxxggggggggxxggggggggxxggggggggxxggggggggxxggggggggxxggggggggxxggggggggxxggggggggxxggggggggxxggggggggxxggggggggxxggggggggxxggggggggxxggggggggxxggggggggxxggggggggxxggggggggxxggggggggxxggggggggxxggggggggxxggggggggxxggggggggxxggggggggxxggggggggxxggggggggxxggggggggxxggggggggxxggggggggxxggggggggxxggggggggxxggggggggxxggggggggxxggggggggxxggggggggxxggggggggxxggggggggxxggggggggxxggggggggxxgggggggggaAGGggggggggxxggggggggxxggggggggxxghaGGggggxxggggggggxxggggggggxxggggggggxxggggggggxxggggggggxxggggggggxxggggggggxxggggggggxxggggggggxxggggggggxxggggggggxxggggggggxxggggggggxxggggggggxxggggggggxxggggggggxxggggggggxxggggggggxxggggggggxxggggggggxxggggggggxxggggggggxxggggggggxxggggggggxxggggggggxxggggggggxxggggggggxxggggggggxxggggggggxxggggggggxxggggggggxxggggggggxxggggggggxxggggggggxxggggggggxxggggggggxxggggggggxxggggggggxxggggggggxxggggggggxxggggggggxxggggggggxxggggggggxxggggggggxxggggggggxxggggggggxxggggggggxxggggggggxraggggggggggxxggggggggxxggggggggxxggggggggxxggggggggxxggggggggxxggggggggxxggggggggxxggggggggxxggggigggxxggggggggxxggggggggxxggggggggxxggggggggxxggggggggxxggggggggxxggggggggxxggggggggxxggggggggxxggggggggxxggggggggxxggggggggxxggggggggxxggggggggxxggggggggxxggggggggxxggggggggxxggggggggxxggggggggxxggggggggxxggggggggxxggggggggxxggggggggxxggggggggxxggggggggxxggggggggxxggggggggxxggggggggxxggggggggxxggggggggxxggggggggxxggggggggxxggggggggxxggggggggxxggggggggxxggggggggxxggggggggxxggggggggxxggggggggxxggggggggxxggggggggxxggggggggxxggggggggxraGGggggggggxxggggggggxxggggggggxxggggggggxxggggggggxxggggggggxxggggggggxxggggggggxxggggggggxxggggggggxxggggggggxxggggggggxxggggggggxxggggggggxxggggggggxxggggggggxxggggggggxyggggggggxxggggggggyxggggggggxxggggggggxxggggggggxxggggggggxxggggggggxxggggggggxxggggggggxxggggggggxxggggggggxxggggggggxxggggggggxxggggggggxxggggggggxxggggggggxxggggggggxxggggggggxxggggggggxxggggggggxxggggggggxxggggggggxxggggggggxxggggggggxxggggggggxxggggggggxxggggggggxxggggggggxxggggggggxxggggggggxxggggggggxxggggggggxxggggggggxxggggggggxxggggggggxxggggggggxraGGggggggggxxggggggggxxggggggggxxggggggggxxggggggggxxggggggggxxggggggggxxggggggggxxggggggggxxggggggggxxggggggggxxggggggggxxggggggggxxggggggggxxggggggggxxggggggggxxggggggggxxggggggggxxggggggggxxggggggggxxggggggggxxggggggggxxggggggggxxggggggggxxggggggggxxggggggggxxggggggggxxggggggggxxggggggggxxggggggggxxggggggggxxggggggggxxggggggggxxggggggggxxggggggggxxggggggggxxggggggggxxggggggggxxggggggggxxggggggggxxggggggggxxggggggggxxggigggggxxggggggggxxggggggggxxggggggggxxggggggggxxggggggggxxggggggggxxggggggggxxggggggggxxggggggggxxggggggggxrAGGggggggggxxggggggggxxggggggggxxggggggggxxggggggggxxggggggggxxggggggggxxggggggggxxggggggggxxggggggggxxggggggggxxggggggggxxggggggggxxggggggggxxggggggggxxggggggggxxggggggggxxggggggggxxggggggggxxggggggggxxggggggggxxggggggggxxggggggggxxggggigigxxggggggggxxggggggggxxggggggggxxggggggggxxggggggggxxggggggggxxggggggggxxggggggggxxggggggggxxggggghggxxggggggggxxggggggggxxggggggggxxggggggggxxggggggggxxggggggggxxggggggggxxggggggggxxggggggggxxggggggggxxgghgggggxxggggggggxxggggggggxxggggggggxxggggggggxxggggggggxxggggggggxxggggggggxxggggggggGAAGGggggggggxxggggggggxxggggggggxxggggggggxxggggggggxxggggggggxxggggggggxxggggggggxxggggggggxxggaggggggxxggggghggxxggggggggxxggggggggxxggggggggzxggggggggxxggggggggxxggggggggxxggggggggxxggggggggxxggggggggxxggggggggxxggggggggxxggggggggxxggggggggxxggggggggxxggggggggxxggggggggxxggggggggxxggggggggxxggggggggxxggggggggxxggggggggxxggggggggxxggggggggxxggggggggxxggggggggxxggggggggxxggggggggxxggggggggxxggggggggxxggggggggxxggggggggxxggggggggxxggggggggxxggggggggyxggggggggxxggggggggxxggggggggxxggggggggxxggggggggxxgggghgggxxggggggggxxggggggggGAAgGggggggggxxggggggggxxggggggggxxggggggggxxggggggggxxggggggggxxggggggggxxggggggggxxggggggggxxggggggggxxggggggggxxggggggggxxggggggggxxggggggggxxggggggggxxggggggggxxggggggggxxggggggggxxggggggggxxggggggggxxggggggggxxggggggggxxggggggggxxggggggggxxggggggggxxggggggggxxggggggggxxggggggggxxggggggggxxggggggggxxgggggghgxxggggggggxxggggggggxxgghgggggxxggggggggxxggggggggxxggggggggxxggggggggxxggggggigxxggggggggxxggggggggxxggggggggxxggggggggxxggggggggxxgggggghgxxggggggggxxggggggggxxggggggggxxgghgggggxxggggggggxxggggggggxxggggggggxxggggggggGArGGggggggggxxggggggggxxggigggggxxggggggggxxhgggggggxxggggggggxxggggggggxxggggggggxxggggggggxxggggggggxxggggggggxxggigggggxxggggggggxxgggghgggxxggggggigxxggggggggxxggggggggxxggggggggxxggggggggxxggggggggxxggggggggxxggggggggxxggggggggxxggggggggxxggggggggxxggggggggxxggggggggxxggggggggxxggggggggxxggggggggxxggggggggxxggggggggxxggggggggxxggggghggxxggggggggxxggggggggxxggggggggxxggggggggxxggggggggxxggggggggxxggggggggxxggggggggxxggggggggxxggggggggxxggggggggxxggggggggxxggggggggxxggggggggxxggggggggxxggggggggxxggggggggxxggggggggxraggggggggggxxggggggggxxggggggggxxggggggggxxggggggggxxggggggggxxggggggggxxggggggggxxggggggggxxggggggggxxggggggggxxggggggggxxggggggggxxggggggggxxggggggggxxggggggggxxggggggggxxggggggggxxggggggggxxggggggggxxggggggigxxggggggggxxggggggggxxggggggggxxggggggggxxggggggggxxggggggggxxggggggggxxggggggggxxggggggggxxggggggggxxggggggggxxggggggggxxggggggggxxggggggggxxggggggggxxggggggggxxggggggggxxggggggggxxggggggggxxggggggggxxggggggggxxggggggggxxggggggggxxggggggggxxggggggggxxggggggggxxggggggggxxggggggggxxggggggggxxggggggggxxggggggggxxggggggggxraGGggggggggxxggggggggxxggaggggggxxggggggggxxggggggggxxggggggggxxggggggggxxggggggggxxggggggggxxggggggggxxggggggggxxggggggggxxggggggggxxggggggggxxggggggggxxggggggggxxggggggggxxggggggggxxggggggggxxggggggggzxggggggggxxggggggggxxggggggggxxggggggggxxggggggggxxggggggggxxggggggggzxggggggggxxggggggggxxggggggggxxggggggggxxggggggggxxggggggggxxggggggghxxggggggggxxggggggggxxggggggggxxggggggggxxggggggggxxggggggggxxggggggggxyggggggggxxgghgggggxxggggggggxxggggggggxxggggggggxxggggggggxxggggggggxxggggggggxxggggggggxxggggggggxxggggggggxxggggggggxvGGggggggggxxggggggggxxggggggggxxggggggggxxggggggggxxggggggggxxggggggggxxggggggggxxggggggggxxggggggggxxggggggggxxggggggggxxggggggggxxggggggggxxggggggggxxggggggggxxggggggggxxggggggggxxggggggggxxggggggggxxggggggggxxggggggggxxggggggggxxggggggggxxggggggggxxggggggggxxggggggggxxggggggggxxggggggggxxggggggggxxggggggggxxggggggggxxggggggggxxggggggggxxggggggggxxggggggggxxggggggggxxggggggggxxggggggggxxggigggggxxggggggggxxggggggggxxggggggggxxggggggggxxggggggggyxaggigigggxxggggggggxxggggggggxxggggggggxxggggggggxxggggggggxxggggggggxxggggggggGAAGGggggggggxxggggggggxxggggggggxxggggggggxxggggggggxxggggggggxxggggggggxxggggggggxxggggggggxxggggggggxxggggggggxxggggggggxxggggggggxxggggggggxxggggggggxxggggggggxxggggggggxxggggggggxxggggggggxxggggggggxxggggggggxxggggggggxxggggggggxxggggggggxxggggggggxxggggggggxxggggggggxxggggggggxxggggggggxxggggggggxxggggggggxxggggggggxxggggggggxxggggggggxxggaggggggxxggggggggxxggggggggxxggggggggxxggggggggxxggggggggxxggggggggxxggggggggxxggggggggxxggggggggxxggggggggxxggggggggxxggggggggxxggggggggxxggggggggxxggggggggxxggggggggxxgggghgigxxggggggggGAAGGggggggggxxggggggggxxggggggggxxggggggggxxggggggggxxggggggggxxggggggggxxggggggggxxggggggggxxgggggggg'
p1
.(lp1
(F5.0490890000000004
F24.996198
tp2
a.cnumpy.core.multiarray
scalar
p1
(cnumpy
dtype
p2
(S'f8'
I0
I1
tRp3
(I3
S'<'
NNNI-1
I-1
I0
tbS'\x03\xaa\x12{I.x?'
tRp4
.F0
.