ccopy_reg
_reconstructor
p1
(cpykov
Vector
p2
c__builtin__
dict
p3
(dp4
S'A'
F0.051724137931034482
sS'C'
F0.051724137931034482
sS'a'
F0.017241379310344827
sS'c'
F0.034482758620689655
sS'e'
F0.051724137931034482
sS'd'
F0.017241379310344827
sS'f'
F0.017241379310344827
sS'i'
F0.034482758620689655
sS'h'
F0.18965517241379309
sS'0'
F0.034482758620689655
sS'r'
F0.068965517241379309
sS'u'
F0.15517241379310348
sS't'
F0.051724137931034482
sS'w'
F0.017241379310344827
sS'v'
F0.017241379310344827
sS'y'
F0.034482758620689655
sS'8'
F0.034482758620689655
sS'z'
F0.1206896551724138
stRp5
.ccopy_reg
_reconstructor
p1
(cpykov
Chain
p2
c__builtin__
dict
p3
(dp4
(S'a'
S'a'
tp5
F1
s(S'A'
S't'
tp6
F0.33333333333333331
s(S'r'
S'0'
tp7
F0.5
s(S'8'
S'8'
tp8
F0.5
s(S'h'
S'e'
tp9
F0.18181818181818182
s(S'z'
S'h'
tp10
F0.2857142857142857
s(S'w'
S'u'
tp11
F1
s(S'e'
S'u'
tp12
F1
s(S'z'
S'z'
tp13
F0.14285714285714285
s(S'0'
S't'
tp14
F0.5
s(S'u'
S't'
tp15
F0.11111111111111109
s(S'z'
S'f'
tp16
F0.14285714285714285
s(S'z'
S'i'
tp17
F0.14285714285714285
s(S'u'
S'z'
tp18
F0.44444444444444436
s(S't'
S'r'
tp19
F1
s(S'y'
S'h'
tp20
F0.5
s(S'u'
S'w'
tp21
F0.11111111111111109
s(S'h'
S'u'
tp22
F0.090909090909090912
s(S'v'
S'u'
tp23
F1
s(S'u'
S'd'
tp24
F0.11111111111111109
s(S'c'
S'r'
tp25
F0.5
s(S'0'
S'z'
tp26
F0.5
s(S'A'
S'c'
tp27
F0.33333333333333331
s(S'f'
S'u'
tp28
F1
s(S'd'
S'v'
tp29
F1
s(S'z'
S'u'
tp30
F0.2857142857142857
s(S'u'
S'y'
tp31
F0.22222222222222218
s(S'h'
S'c'
tp32
F0.090909090909090912
s(S'y'
S'z'
tp33
F0.5
s(S'h'
S'h'
tp34
F0.63636363636363646
s(S'8'
S'h'
tp35
F0.5
s(S'C'
S'A'
tp36
F1
s(S'r'
S'C'
tp37
F0.5
s(S'i'
S'i'
tp38
F0.5
s(S'c'
S'a'
tp39
F0.5
s(S'A'
S'C'
tp40
F0.33333333333333331
s(S'i'
S'e'
tp41
F0.5
stRp42
(dp43
S'_guess'
p44
g1
(cpykov
Vector
p45
g3
(dp46
S'A'
F0.051724137931034482
sS'C'
F0.051724137931034482
sS'a'
F0.017241379310344827
sS'c'
F0.034482758620689655
sS'e'
F0.051724137931034482
sS'd'
F0.017241379310344827
sS'f'
F0.017241379310344827
sS'i'
F0.034482758620689655
sS'h'
F0.18965517241379309
sS'0'
F0.034482758620689655
sS'r'
F0.068965517241379309
sS'u'
F0.15517241379310348
sS't'
F0.051724137931034482
sS'w'
F0.017241379310344827
sS'v'
F0.017241379310344827
sS'y'
F0.034482758620689655
sS'8'
F0.034482758620689655
sS'z'
F0.1206896551724138
stRp47
sb.S'88hhhhhheuzhhhcr0zuyzzhuziieudvuyheuwuzfuzutr0trCAtrCACAc'
.(lp1
(F1802.0331269999999
F1801.9208450000001
tp2
a.cnumpy.core.multiarray
scalar
p1
(cnumpy
dtype
p2
(S'f8'
I0
I1
tRp3
(I3
S'<'
NNNI-1
I-1
I0
tbS'\x08ry\xee\x1b\xfc\x86?'
tRp4
.F1.3402755822083357e-21
.