ccopy_reg
_reconstructor
p1
(cpykov
Vector
p2
c__builtin__
dict
p3
(dp4
S'A'
F0.0018779342723004694
sS'C'
F0.0028169014084507044
sS'D'
F0.0028169014084507039
sS'G'
F0.0056338028169014088
sS'H'
F0.0018779342723004694
sS'9'
F0.00093896713615023472
sS'8'
F0.00093896713615023472
sS'a'
F0.0037558685446009389
sS'c'
F0.0028169014084507039
sS'd'
F0.017840375586854459
sS'g'
F0.40938967136150239
sS'i'
F0.10234741784037557
sS'h'
F0.19530516431924885
sS'0'
F0.0075117370892018786
sS's'
F0.00093896713615023472
sS'r'
F0.016901408450704227
sS'u'
F0.097652582159624413
sS't'
F0.0028169014084507044
sS'w'
F0.0075117370892018778
sS'v'
F0.0018779342723004694
sS'y'
F0.028169014084507043
sS'x'
F0.050704225352112692
sS'z'
F0.037558685446009391
stRp5
.ccopy_reg
_reconstructor
p1
(cpykov
Chain
p2
c__builtin__
dict
p3
(dp4
(S'y'
S'r'
tp5
F0.033333333333333333
s(S'A'
S't'
tp6
F1
s(S'G'
S'G'
tp7
F0.5
s(S's'
S'y'
tp8
F1
s(S'h'
S'i'
tp9
F0.13461538461538458
s(S'u'
S'u'
tp10
F0.24038461538461536
s(S'c'
S'u'
tp11
F0.33333333333333337
s(S'i'
S'h'
tp12
F0.30275229357798172
s(S'a'
S'd'
tp13
F0.5
s(S'0'
S'x'
tp14
F0.49999999999999994
s(S'r'
S'w'
tp15
F0.055555555555555546
s(S'z'
S'h'
tp16
F0.099999999999999992
s(S'h'
S'x'
tp17
F0.0048076923076923071
s(S'w'
S'u'
tp18
F0.25
s(S'D'
S'D'
tp19
F0.33333333333333337
s(S'z'
S's'
tp20
F0.024999999999999998
s(S'x'
S'g'
tp21
F0.14814814814814811
s(S'u'
S'a'
tp22
F0.028846153846153848
s(S'g'
S'i'
tp23
F0.03899082568807339
s(S'9'
S'8'
tp24
F1
s(S'r'
S'x'
tp25
F0.27777777777777773
s(S'x'
S'u'
tp26
F0.44444444444444431
s(S'z'
S'i'
tp27
F0.42499999999999999
s(S'G'
S'0'
tp28
F0.16666666666666666
s(S't'
S'r'
tp29
F1
s(S'i'
S'x'
tp30
F0.0091743119266055051
s(S'g'
S'h'
tp31
F0.20642201834862384
s(S'i'
S'c'
tp32
F0.0091743119266055051
s(S'g'
S'g'
tp33
F0.6674311926605504
s(S'u'
S'v'
tp34
F0.0096153846153846159
s(S'z'
S'r'
tp35
F0.125
s(S'r'
S'y'
tp36
F0.16666666666666666
s(S'z'
S'u'
tp37
F0.049999999999999996
s(S'z'
S'c'
tp38
F0.024999999999999998
s(S'h'
S'g'
tp39
F0.48076923076923067
s(S'h'
S'y'
tp40
F0.0048076923076923071
s(S'G'
S'h'
tp41
F0.16666666666666666
s(S'c'
S'r'
tp42
F0.33333333333333337
s(S'u'
S'y'
tp43
F0.21153846153846154
s(S'D'
S'0'
tp44
F0.33333333333333337
s(S'y'
S'd'
tp45
F0.033333333333333333
s(S'r'
S'z'
tp46
F0.16666666666666666
s(S'C'
S'A'
tp47
F1
s(S'r'
S'C'
tp48
F0.16666666666666666
s(S'g'
S'w'
tp49
F0.0045871559633027517
s(S'h'
S'd'
tp50
F0.024038461538461536
s(S'H'
S'g'
tp51
F0.5
s(S'u'
S'x'
tp52
F0.22115384615384615
s(S'a'
S'x'
tp53
F0.25
s(S'y'
S'g'
tp54
F0.33333333333333331
s(S'v'
S'w'
tp55
F0.5
s(S'r'
S'0'
tp56
F0.055555555555555546
s(S'x'
S'G'
tp57
F0.055555555555555539
s(S'x'
S'x'
tp58
F0.14814814814814811
s(S'0'
S'u'
tp59
F0.24999999999999997
s(S'H'
S'H'
tp60
F0.5
s(S'G'
S'x'
tp61
F0.16666666666666666
s(S'g'
S'v'
tp62
F0.0022935779816513758
s(S'i'
S'd'
tp63
F0.055045871559633038
s(S'g'
S'd'
tp64
F0.0045871559633027517
s(S'8'
S'0'
tp65
F1
s(S'0'
S't'
tp66
F0.12499999999999999
s(S'w'
S'z'
tp67
F0.5
s(S'x'
S'D'
tp68
F0.018518518518518514
s(S'x'
S'y'
tp69
F0.055555555555555539
s(S'g'
S'x'
tp70
F0.01146788990825688
s(S'i'
S'u'
tp71
F0.045871559633027532
s(S'y'
S'x'
tp72
F0.066666666666666666
s(S'g'
S'u'
tp73
F0.061926605504587152
s(S'd'
S'u'
tp74
F0.73684210526315785
s(S'z'
S'w'
tp75
F0.024999999999999998
s(S'c'
S'x'
tp76
F0.33333333333333337
s(S'i'
S'g'
tp77
F0.1743119266055046
s(S'x'
S'h'
tp78
F0.037037037037037028
s(S'u'
S'z'
tp79
F0.28846153846153849
s(S'v'
S'x'
tp80
F0.5
s(S'a'
S'z'
tp81
F0.25
s(S'y'
S'i'
tp82
F0.29999999999999999
s(S'd'
S'D'
tp83
F0.052631578947368425
s(S'h'
S'u'
tp84
F0.0048076923076923071
s(S'd'
S'0'
tp85
F0.15789473684210528
s(S'z'
S'd'
tp86
F0.024999999999999998
s(S'z'
S'g'
tp87
F0.17499999999999999
s(S'd'
S'r'
tp88
F0.052631578947368425
s(S'D'
S'u'
tp89
F0.33333333333333337
s(S'g'
S'c'
tp90
F0.0022935779816513758
s(S'h'
S'H'
tp91
F0.0048076923076923071
s(S'x'
S'i'
tp92
F0.037037037037037028
s(S'0'
S'z'
tp93
F0.12499999999999999
s(S'z'
S'z'
tp94
F0.024999999999999998
s(S'y'
S'h'
tp95
F0.23333333333333331
s(S'w'
S'x'
tp96
F0.125
s(S'x'
S'0'
tp97
F0.018518518518518514
s(S'w'
S'w'
tp98
F0.125
s(S'i'
S'w'
tp99
F0.0091743119266055051
s(S'h'
S'h'
tp100
F0.3413461538461538
s(S'i'
S'r'
tp101
F0.064220183486238536
s(S'r'
S'd'
tp102
F0.11111111111111109
s(S'x'
S'a'
tp103
F0.018518518518518514
s(S'i'
S'i'
tp104
F0.33027522935779818
s(S'x'
S'w'
tp105
F0.018518518518518514
stRp106
(dp107
S'_guess'
p108
g1
(cpykov
Vector
p109
g3
(dp110
S'A'
F0.0018779342723004694
sS'C'
F0.0028169014084507044
sS'D'
F0.0028169014084507039
sS'G'
F0.0056338028169014088
sS'H'
F0.0018779342723004694
sS'9'
F0.00093896713615023472
sS'8'
F0.00093896713615023472
sS'a'
F0.0037558685446009389
sS'c'
F0.0028169014084507039
sS'd'
F0.017840375586854459
sS'g'
F0.40938967136150239
sS'i'
F0.10234741784037557
sS'h'
F0.19530516431924885
sS'0'
F0.0075117370892018786
sS's'
F0.00093896713615023472
sS'r'
F0.016901408450704227
sS'u'
F0.097652582159624413
sS't'
F0.0028169014084507044
sS'w'
F0.0075117370892018778
sS'v'
F0.0018779342723004694
sS'y'
F0.028169014084507043
sS'x'
F0.050704225352112692
sS'z'
F0.037558685446009391
stRp111
sb.S'980xxghggggghhhguuuyiuzhihgirziiiihguziihghgghghggdrd0xx0zziiguxuxuuuziduzihduxuyihhhigwzgxGxGGGG0xxghggggghggghhgghhguxguyduyhihhighhgggggggghghggggggghgggghghduzryiihiihhghhiiihihhgihHHgggvxGhhghggghgigggggghgghghhhhgggggghhghggggghgggghhgggggihghhghggghggghgghggghhggghggggggggggghgghggggghggiggghghgghhhhhhiiduzihihguuuygiiduyihduziirxuyhgggggghgghhhghhhgghhguygihduziihirzguvwwuxuxuziiduxhiiuyhguzduuuxuzrxuyguzgihihhhhhhuuuyhhhgwziwxhghghhhixD0uuxuzsyihhhihgggigguyghggghihhhhguuuzguxuzguuuziuziiguuuygigggghhhgghgggggggggggggghihhguyhguzguxuuuxuziiiihhhhduzirxuxuygxygxxghggggghgggggggghggxyxyhgghyxgiggghggghghgggggghxxgggxxggggggggggggggggggggghghgghggggggggggghghgggggggggggghhhgggggghhhhghhguyghihhhhiihguxuxuazcuadDDuuxuzrwuxuzguxuxuzryiiihiguzhhhhhhiiiiiduyihhiuzwzuziiiduyiiiguyguxuxuxwzrziiiggghghgggggggiiryguyhguzhiigirxicxad0uuuuzihigggghhhghhghghiiihhiggghghhhiguyirxihihggigggduzuuuyrd0xxxggighgggggggggggggggghhghghggghghgghgggggggggggggghgggggggggghgggggggggggggghghggggghgggggggggggiuaxuxuzhggggggghggggghgihgghigggggggghgggggggcr0trCAtrCAtrCA'
p1
.(lp1
(F5.0162599999999999
F810815.03199000005
tp2
a.cnumpy.core.multiarray
scalar
p1
(cnumpy
dtype
p2
(S'f8'
I0
I1
tRp3
(I3
S'<'
NNNI-1
I-1
I0
tbS'w\x0e_f6S\x82?'
tRp4
.F0
.