ccopy_reg
_reconstructor
p1
(cpykov
Vector
p2
c__builtin__
dict
p3
(dp4
S'A'
F0.0011363636363636363
sS'C'
F0.00022727272727272727
sS'E'
F0.00090909090909090909
sS'D'
F0.010227272727272727
sS'G'
F0.0029545454545454545
sS'F'
F0.00045454545454545455
sS'I'
F0.001818181818181818
sS'H'
F0.006363636363636363
sS'a'
F0.00068181818181818187
sS'c'
F0.00068181818181818187
sS'e'
F0.007045454545454544
sS'd'
F0.0068181818181818179
sS'g'
F0.28954545454545455
sS'f'
F0.0020454545454545456
sS'i'
F0.12386363636363637
sS'h'
F0.54159090909090901
sS'0'
F0.00068181818181818187
sS'5'
F0.00045454545454545455
sS'y'
F0.00090909090909090909
sS'x'
F0.0013636363636363635
sS'z'
F0.00022727272727272727
stRp5
.ccopy_reg
_reconstructor
p1
(cpykov
Chain
p2
c__builtin__
dict
p3
(dp4
(S'G'
S'H'
tp5
F0.076923076923076927
s(S'e'
S'G'
tp6
F0.032258064516129038
s(S'D'
S'G'
tp7
F0.1111111111111111
s(S'h'
S'i'
tp8
F0.10239194292908101
s(S'i'
S'a'
tp9
F0.0036697247706422016
s(S'H'
S'h'
tp10
F0.50000000000000011
s(S'i'
S'h'
tp11
F0.4642201834862385
s(S'c'
S'A'
tp12
F0.66666666666666663
s(S'I'
S'i'
tp13
F0.25000000000000006
s(S'0'
S'x'
tp14
F0.33333333333333331
s(S'A'
S'e'
tp15
F0.20000000000000001
s(S'e'
S'c'
tp16
F0.032258064516129038
s(S'x'
S'H'
tp17
F0.16666666666666669
s(S'f'
S'D'
tp18
F0.1111111111111111
s(S'y'
S'x'
tp19
F0.5
s(S'y'
S'I'
tp20
F0.25
s(S'g'
S'i'
tp21
F0.098116169544740964
s(S'H'
S'i'
tp22
F0.14285714285714288
s(S'd'
S'f'
tp23
F0.033333333333333333
s(S'x'
S'g'
tp24
F0.16666666666666669
s(S'I'
S'h'
tp25
F0.25000000000000006
s(S'0'
S'y'
tp26
F0.33333333333333331
s(S'A'
S'd'
tp27
F0.20000000000000001
s(S'I'
S'G'
tp28
F0.12500000000000003
s(S'G'
S'0'
tp29
F0.076923076923076927
s(S'f'
S'i'
tp30
F0.1111111111111111
s(S'y'
S'H'
tp31
F0.25
s(S'g'
S'h'
tp32
F0.50706436420722134
s(S'5'
S'5'
tp33
F0.5
s(S'G'
S'i'
tp34
F0.15384615384615385
s(S'g'
S'g'
tp35
F0.38697017268445838
s(S'x'
S'x'
tp36
F0.16666666666666669
s(S'A'
S'0'
tp37
F0.20000000000000001
s(S'd'
S'A'
tp38
F0.033333333333333333
s(S'a'
S'E'
tp39
F0.33333333333333331
s(S'H'
S'y'
tp40
F0.035714285714285719
s(S'h'
S'g'
tp41
F0.27318506084767102
s(S'G'
S'h'
tp42
F0.23076923076923078
s(S'G'
S'g'
tp43
F0.23076923076923078
s(S'e'
S'e'
tp44
F0.64516129032258074
s(S'H'
S'H'
tp45
F0.071428571428571438
s(S'F'
S'E'
tp46
F0.5
s(S'C'
S'A'
tp47
F1
s(S'G'
S'y'
tp48
F0.15384615384615385
s(S'h'
S'd'
tp49
F0.0058749475451112055
s(S'5'
S'e'
tp50
F0.5
s(S'D'
S'C'
tp51
F0.022222222222222223
s(S'i'
S'e'
tp52
F0.0018348623853211008
s(S'D'
S'H'
tp53
F0.33333333333333331
s(S'd'
S'e'
tp54
F0.033333333333333333
s(S'e'
S'd'
tp55
F0.096774193548387122
s(S'E'
S'e'
tp56
F0.5
s(S'D'
S'E'
tp57
F0.044444444444444446
s(S'I'
S'H'
tp58
F0.12500000000000003
s(S'A'
S'A'
tp59
F0.20000000000000001
s(S'H'
S'0'
tp60
F0.035714285714285719
s(S'H'
S'd'
tp61
F0.035714285714285719
s(S'i'
S'd'
tp62
F0.0036697247706422016
s(S'g'
S'd'
tp63
F0.0062794348508634218
s(S'E'
S'H'
tp64
F0.5
s(S'g'
S'G'
tp65
F0.00078492935635792772
s(S'h'
S'I'
tp66
F0.00041963911036508607
s(S'a'
S'F'
tp67
F0.66666666666666663
s(S'f'
S'e'
tp68
F0.55555555555555547
s(S'c'
S'a'
tp69
F0.33333333333333331
s(S'F'
S'd'
tp70
F0.5
s(S'D'
S'I'
tp71
F0.1111111111111111
s(S'i'
S'g'
tp72
F0.22018348623853209
s(S'x'
S'h'
tp73
F0.33333333333333337
s(S'e'
S'f'
tp74
F0.16129032258064518
s(S'd'
S'D'
tp75
F0.8666666666666667
s(S'f'
S'f'
tp76
F0.22222222222222221
s(S'g'
S'c'
tp77
F0.00078492935635792772
s(S'h'
S'H'
tp78
F0.0020981955518254302
s(S'i'
S'f'
tp79
F0.0018348623853211008
s(S'I'
S'g'
tp80
F0.25000000000000006
s(S'x'
S'i'
tp81
F0.16666666666666669
s(S'0'
S'z'
tp82
F0.33333333333333331
s(S'H'
S'G'
tp83
F0.035714285714285719
s(S'A'
S'c'
tp84
F0.20000000000000001
s(S'D'
S'D'
tp85
F0.37777777777777782
s(S'G'
S'I'
tp86
F0.076923076923076927
s(S'e'
S'D'
tp87
F0.032258064516129038
s(S'H'
S'g'
tp88
F0.14285714285714288
s(S'z'
S'x'
tp89
F1
s(S'h'
S'h'
tp90
F0.61393201846412093
s(S'd'
S'x'
tp91
F0.033333333333333333
s(S'i'
S'i'
tp92
F0.30458715596330271
s(S'h'
S'G'
tp93
F0.0020981955518254302
stRp94
(dp95
S'_guess'
p96
g1
(cpykov
Vector
p97
g3
(dp98
S'A'
F0.0011363636363636363
sS'C'
F0.00022727272727272727
sS'E'
F0.00090909090909090909
sS'D'
F0.010227272727272727
sS'G'
F0.0029545454545454545
sS'F'
F0.00045454545454545455
sS'I'
F0.001818181818181818
sS'H'
F0.006363636363636363
sS'a'
F0.00068181818181818187
sS'c'
F0.00068181818181818187
sS'e'
F0.007045454545454544
sS'd'
F0.0068181818181818179
sS'g'
F0.28954545454545455
sS'f'
F0.0020454545454545456
sS'i'
F0.12386363636363637
sS'h'
F0.54159090909090901
sS'0'
F0.00068181818181818187
sS'5'
F0.00045454545454545455
sS'y'
F0.00090909090909090909
sS'x'
F0.0013636363636363635
sS'z'
F0.00022727272727272727
stRp99
sb.S'55eeeeeeedffedDEecAcaFEeefeeeffefeeeedeeeeeeeeefefihhhhhhhghhhhhhhhhhhhiihhhhhhhhhgghhgghhhggghghighhhghghhiggghgghghhghgghgghhhggghhigihhhhhhghhighhigghgghgggghghggghihhhhihghhhghhggiggghhgghhghhghhgggggghgggggggihigghhhghggghhgghghhhhhhghhghhhgghhhgihhghgghhhhghghhhhghghghhgghghhhgihhghhghhhghhghhghhihgihhhhhhhhgihhihigigighhghhhgghghhhhihhhhhhhgghhghhhghhghhhhhigihhhhhhgdDGghghhihhhgghghgggihhhhhhhghhgihgggghhggghhhhhhgghhghiigiggigihghgiggghhgghgigihghhhhgggggiggghhhgiggghghhighhhihgghihgghhhhgghhggghhghhghhgghggghggiigghhihhgghhighhghgghhghghhhhhhhghhhhhhhhhhhhhhhhhhhhhhhhhgghghhhhghhhghhhhghhhghhhhhhhhhhhgihhghhhgggihhghhghhhhggggihihghgigihigiihghhhghghhhggigggggihgggghgggihgihghgghhghhghhhhggghgigggggghhiiggghghghghigggggghhghghgghhhhhghihhihihihhhhhhhihhhhhhiiiihihhhhhhhhihhhhhhhhhhhhiihihhhihhiihhhhhhhhghhghhiihgghghghhgggighhhgggghihghhhggghhghiiihhhiiiiiihiihihiiiiiiiihhihiiihihhhhiiiiiiggghhhhihhghghhhghhiihhihhgighhhggiighhhihhhhgghhhhigghhgihhhhhgihhhhhhhgghgihgggghghghhihghghhghhdDHhhghhhhhhhgggihghgdDIihiiihhhiiihhiihiiihhhhhhhiihhghghhhhghghgighhhhggihhhgghghhhhhhghghiihghhihhhhigghhhhhhhghhhhhdDHihhhggihhhhhhiihhhhhhghhgihhhghhhiihhhhhhhhhhihhhhghhhhhgiihhgighhhhhhihhihhghhhhihhigihhhigghhiiiiiihhhghhiiiiiiiihhhiihiiiiiiiiiiiiiiiiiiiiiighihihhghhiiihighhhiaEHhghghhihhhhghhhhihhhhhghhigighhhhhhhhhhhhghgghhhhhhhhghhhhhhghhghihhhgihighhhihhiihiighhghhdDDDDDHhdDDDDDDDDDHghhhhhgghhhghghghhighighghghgghhhhhhhghhghhhhhghhhhghghhhhhhggghhghhgghghggihhhghghghhihhhghhhghhhghhhghhgghhghhhgihhhhhhghgghghhggghghihhghhhhghhihghhhggghhhghghhghgghhghhgdDGhghgghghghhgggghhhgghihgghggghhhgghhhhhghggghgihhgggggghghhgggghhhhhghhhgghhhhghhhhhhhhhhhhhghhhhhhghhhhhhhghiighghhghghighghghgghhgighhghghhghhghhhgghhghhhhghhhhhhhhighghhhghhhhhghhhgghghhhggggghgiigiihghhgihhghghhggghghghhgggggghgghggghhgghhgggggghhgghghhggigghghggggghhghhghhhgggihhghhhhgihihggGihgghghggghhhghgghighhghgghhgghhgihhhhghhhhhhhhhhhhhihhhhhhghgihhihhhiihhihihhhhhhgihhhhiihiihhhgcAdAA0yxhhhhhhggigghhgghdDIhgghghhghgghhghdDHgiihhgihghghhhghhgiighdDHgiigghhhdDHdDHhgghhdDHhgggghggghdDHhhhhgghggggghhghghhhgghghhgghggghggggghghghhhihhgghgghhhhhggghhghhggghhggghhghgdDIggghhdDGhhhgggggghhghggggghgghhhhhgghigigghggighighhghghhghdDGggggggggghhggghggiighghghhhggghhhhhhgghhhghgghhhihighiggihhhiigiihhhghghghggiigghhgghhhhhghgggggggggghiggggggggihghghhhhhihhhghghhhhhhhghhhhghhhhhgghhghhhhhhhhhghghhhhhhghghhgihhhhgghhhghihhIGHHGhhhhhhhhHhHhhhghghhhgghhghhhhhhhhhhhgghihhhgihiihhighghghifDHghiiighggghhiihigggggighgdDHhgghgghgghhhggggghggghggghgggggggghgghghghhgghhhgghhghgghghghghhggihhhggdDGghhggghgggiggggghighhhhhhhhhhhhhhhghhhhhhhhhhhhhhhhhhhiihihhgdDHhhhhhhhghghhghihhhhhhhhhihhihhhhhhghhhhhhhghihhhhhhhhhhhggighghhhhhhhhghgihhhhgghigghhhhhhigghghiidDIiggggghggghghhghghggghhhhhhgghhggghhgghghghghgigggghghhhhhhhghgggghhghighhihhgghghhghhghgghhHyIghghighggghghhhghhgghhghhhhhhghhhhhhhhhhhhhhhhhhhghhgghhhhhghgihhhhghhghhhhhhhhhhhgghghhhhhhghhhhhihhhhhhghhhhhhhhhhhhhhhghhghhhhhhhhhhhhihhhhhhhhhghhgihhhhhhggihhhhghgihihhhihgghhghhghhhhhighihghhhdDHighhighhihgggihhhgighghhggghgghghghggghhhgggihhhhghigggghghghgghihgighghghghiigiihH0zxhggiihghGIHigihghiihghgiiihiiiiiiiighhggghhhgiihigihggghgghhhiggiihihgigiihhihighggghghhhhhhgghhhghghhiggghggihihghighggigggihihggighghghgghggggghhigghghgggigggggggghhgggghghggggihhghhhhggiggghghhhghhhhhhghghgighhghhhgihhhhhhhhhhiihhhhihhhhihghieDHhhhhhhidDCAeGihhhhhihgihihghhghhggihhggighghgghhggghhihhihihhGyxiighihhhhhggghihhghhhhghhhhhhhhhhhhghhhhhhhhhiihhhihhiighhghghgghhghgiggggghggggghgghhggggghgihhhhihhghiiiihhhhhhhhhhhhhhhhhhihhhhhhghighdDDDDDDEHhhhhhhhhhhhhhhhhhhhhhhghhhhhghighhghhhhgghhhhghghhgghhghghhhihihhhhhhhihgghiiiaFdxHihihhhihhhghhghghiihhhgiihihhghhihhhhhhhhgdDIhhighiiihhhghhghhhhghhG0xxghgghhigihhghigggghhghggghhhghiiggggihhggggggghhhhhhhhhihhhhhhhhhhhhhhhhhhghhhhhhhggghhghhhhhhhhhgghhghihhhhhhhhhiihhiiiiiiihhihhhhhghghhhghhhhhhhihghghhhhhhhhhhhghihihihgggghhghhhghggiighghgighhhghhgghhighghhgighiihiihihihgghhggggghghihigggggghhghghhhgghhhihghgghhhhhhighggghghghhhihGyHhgghihghhghhhgghhhghgihhigghiihhhhhgihghihghghhhhhihhghhihhhihhhhhihhhhhggghhhhhhghhhhhhghhghighhhhhhghghihhgghhhihhhhhhhhhhhhhhhhhhhghgghiggggghhhhghhhhhhihhhhhhhhhihhhhiiiiiiiiihihhihiiiihihhhHHhhhiiiiiihiihhhihhghgghhihihhhhhhhhgihhhhhhhhhhhhhhhhhhghhghghhgihihhighhhhhgghhgghhhhhhhihiihiihihgighhggihhihhhhhhhhhhhghghhhhhhhhhhghhhhhihhhhhgghgghghhiiihhhhgghhhhgihG'
p1
.(lp1
(F317.018303
F317.49261300000001
tp2
a.cnumpy.core.multiarray
scalar
p1
(cnumpy
dtype
p2
(S'f8'
I0
I1
tRp3
(I3
S'<'
NNNI-1
I-1
I0
tbS'%\xb2>\xcf\x0f\x95\x82?'
tRp4
.F0
.