ccopy_reg
_reconstructor
p1
(cpykov
Vector
p2
c__builtin__
dict
p3
(dp4
S'A'
F0.0050951653682765
sS'B'
F1.2834169693391686e-05
sS'E'
F0.021689746781831942
sS'D'
F0.023525033047986962
sS'F'
F0.020919696600228448
sS'a'
F0.12932992800030801
sS'b'
F5.1336678773566743e-05
sS'e'
F0.17187520053390148
sS'd'
F0.17489123041184845
sS'f'
F0.35258030981685645
sS'1'
F1.2834169693391686e-05
sS'0'
F0.00021818088478765867
sS's'
F2.5668339386783372e-05
sS'r'
F0.0056213663257055589
sS'u'
F0.031610559954823716
sS'4'
F3.8502509080175061e-05
sS'w'
F0.046588035987011819
sS'v'
F0.015914370419805691
stRp5
.ccopy_reg
_reconstructor
p1
(cpykov
Chain
p2
c__builtin__
dict
p3
(dp4
(S'v'
S'D'
tp5
F0.0048387096774193551
s(S'w'
S'v'
tp6
F0.12424242424242424
s(S'4'
S'4'
tp7
F0.33333333333333331
s(S'F'
S'B'
tp8
F0.00061349693251533746
s(S'u'
S'u'
tp9
F0.33089727974015437
s(S'r'
S'e'
tp10
F0.0045662100456621002
s(S'w'
S'D'
tp11
F0.0011019283746556473
s(S'f'
S'E'
tp12
F0.0050232964472917878
s(S'A'
S'e'
tp13
F0.0025188916876574302
s(S'f'
S'w'
tp14
F0.022240827023878858
s(S'f'
S'a'
tp15
F0.22648514851485146
s(S'd'
S'f'
tp16
F0.16012328465546347
s(S'f'
S'F'
tp17
F0.0046228887594641811
s(S's'
S'f'
tp18
F0.5
s(S'u'
S'F'
tp19
F0.010962241169305727
s(S'w'
S'f'
tp20
F0.25454545454545452
s(S'u'
S'e'
tp21
F0.051157125456760058
s(S'v'
S'F'
tp22
F0.0040322580645161289
s(S'D'
S'E'
tp23
F0.10747408619749045
s(S'u'
S'w'
tp24
F0.19569630531871704
s(S'E'
S'D'
tp25
F0.10591715976331363
s(S'F'
S'D'
tp26
F0.041717791411042947
s(S'u'
S'd'
tp27
F0.12383272431993506
s(S'b'
S'f'
tp28
F0.25
s(S'd'
S'v'
tp29
F0.0043296396859176653
s(S'u'
S'v'
tp30
F0.085667884693463273
s(S'v'
S'd'
tp31
F0.073387096774193555
s(S'd'
S'd'
tp32
F0.53694870477728052
s(S'e'
S'e'
tp33
F0.41166367980884105
s(S'e'
S'0'
tp34
F7.4671445639187557e-05
s(S'v'
S'v'
tp35
F0.20322580645161289
s(S'w'
S'd'
tp36
F0.033884297520661154
s(S'F'
S'E'
tp37
F0.090797546012269942
s(S'f'
S'r'
tp38
F3.6400698893418748e-05
s(S'w'
S's'
tp39
F0.00055096418732782364
s(S'4'
S'0'
tp40
F0.33333333333333331
s(S'w'
S'A'
tp41
F0.00027548209366391182
s(S'E'
S'F'
tp42
F0.037278106508875752
s(S'a'
S'a'
tp43
F0.23558598789322219
s(S'f'
S'A'
tp44
F7.2801397786837496e-05
s(S'r'
S'r'
tp45
F0.0068493150684931503
s(S'e'
S'd'
tp46
F0.17196833930704897
s(S'd'
S'F'
tp47
F0.018125779702062087
s(S'F'
S'F'
tp48
F0.23680981595092024
s(S'r'
S'D'
tp49
F0.0022831050228310501
s(S's'
S'F'
tp50
F0.5
s(S'u'
S'f'
tp51
F0.14900527811611858
s(S'D'
S'w'
tp52
F0.0010911074740861974
s(S'e'
S'u'
tp53
F0.021953405017921142
s(S'v'
S'f'
tp54
F0.36209677419354841
s(S'D'
S'e'
tp55
F0.14566284779050734
s(S'E'
S'd'
tp56
F0.11183431952662726
s(S'a'
S'r'
tp57
F0.00029770765108663299
s(S'u'
S'a'
tp58
F0.026390580592773046
s(S'F'
S'd'
tp59
F0.027607361963190184
s(S'b'
S'F'
tp60
F0.25
s(S'e'
S'f'
tp61
F0.27747909199522097
s(S'0'
S'r'
tp62
F0.058823529411764705
s(S'd'
S'D'
tp63
F0.028839803331621054
s(S'a'
S'u'
tp64
F0.044358440011908307
s(S'r'
S'F'
tp65
F0.0045662100456621002
s(S'e'
S'E'
tp66
F0.025014934289127832
s(S'd'
S'r'
tp67
F7.3383723490129906e-05
s(S'F'
S'e'
tp68
F0.061963190184049076
s(S'D'
S'u'
tp69
F0.022913256955810146
s(S'1'
S'4'
tp70
F1
s(S'e'
S'w'
tp71
F0.034722222222222217
s(S'a'
S'b'
tp72
F9.9235883695544306e-05
s(S'w'
S'a'
tp73
F0.11074380165289256
s(S'e'
S'a'
tp74
F0.0077658303464755067
s(S'v'
S'r'
tp75
F0.0048387096774193551
s(S'E'
S'f'
tp76
F0.092307692307692327
s(S'a'
S'A'
tp77
F9.9235883695544306e-05
s(S'F'
S'A'
tp78
F0.23987730061349694
s(S'w'
S'w'
tp79
F0.29008264462809918
s(S'e'
S'D'
tp80
F0.01993727598566308
s(S'D'
S'F'
tp81
F0.081833060556464804
s(S'F'
S'f'
tp82
F0.20490797546012271
s(S'r'
S'd'
tp83
F0.045662100456620995
s(S'w'
S'E'
tp84
F0.0011019283746556473
s(S'e'
S'v'
tp85
F0.0098566308243727592
s(S'a'
S'e'
tp86
F0.012702193113029671
s(S'F'
S'u'
tp87
F0.0030674846625766868
s(S'a'
S'w'
tp88
F0.06738116502927459
s(S'A'
S'F'
tp89
F0.62720403022670024
s(S'E'
S'v'
tp90
F0.012426035502958583
s(S'a'
S'd'
tp91
F0.043961496477126133
s(S'D'
S'a'
tp92
F0.0092744135297326783
s(S'B'
S'F'
tp93
F1
s(S'F'
S'v'
tp94
F0.0042944785276073623
s(S'a'
S'v'
tp95
F0.004465614766299494
s(S'v'
S'E'
tp96
F0.024999999999999998
s(S'w'
S'u'
tp97
F0.038567493112947659
s(S'e'
S'F'
tp98
F0.019563918757467141
s(S'D'
S'D'
tp99
F0.32733224222585922
s(S'r'
S'f'
tp100
F0.92922374429223742
s(S'E'
S'E'
tp101
F0.31183431952662732
s(S'A'
S'd'
tp102
F0.015113350125944584
s(S'0'
S'v'
tp103
F0.11764705882352941
s(S'F'
S'w'
tp104
F0.003680981595092025
s(S'F'
S'a'
tp105
F0.08282208588957056
s(S'D'
S'f'
tp106
F0.087834151663938889
s(S'a'
S'f'
tp107
F0.55324005160265954
s(S'v'
S'u'
tp108
F0.064516129032258063
s(S'w'
S'e'
tp109
F0.02672176308539945
s(S'0'
S'w'
tp110
F0.17647058823529413
s(S'a'
S'E'
tp111
F0.01170983427607423
s(S'u'
S'0'
tp112
F0.0048721071863581013
s(S'F'
S'b'
tp113
F0.0018404907975460125
s(S'4'
S'u'
tp114
F0.33333333333333331
s(S'A'
S'u'
tp115
F0.0025188916876574302
s(S'A'
S'f'
tp116
F0.34760705289672539
s(S'a'
S'D'
tp117
F0.01587774139128709
s(S'd'
S'w'
tp118
F0.020987744918177155
s(S'D'
S'v'
tp119
F0.0027277686852154935
s(S'v'
S'e'
tp120
F0.21774193548387097
s(S'd'
S'e'
tp121
F0.13575988845674034
s(S'D'
S'd'
tp122
F0.21385706492089471
s(S'v'
S'w'
tp123
F0.033064516129032259
s(S'E'
S'e'
tp124
F0.32189349112426047
s(S'0'
S'u'
tp125
F0.6470588235294118
s(S'w'
S'r'
tp126
F0.1165289256198347
s(S'f'
S'd'
tp127
F0.087106872451951062
s(S'E'
S'A'
tp128
F0.0011834319526627223
s(S'A'
S'a'
tp129
F0.0025188916876574302
s(S'r'
S'E'
tp130
F0.0022831050228310501
s(S'a'
S'F'
tp131
F0.010221296020641063
s(S'f'
S'e'
tp132
F0.16358474082702384
s(S'd'
S'u'
tp133
F0.027959198649739496
s(S'E'
S'u'
tp134
F0.0035502958579881672
s(S'b'
S'a'
tp135
F0.5
s(S'd'
S'0'
tp136
F7.3383723490129906e-05
s(S'f'
S'f'
tp137
F0.47542952824694229
s(S'w'
S'F'
tp138
F0.0016528925619834713
s(S'u'
S'E'
tp139
F0.010962241169305727
s(S'r'
S'u'
tp140
F0.0045662100456621002
s(S'f'
S'u'
tp141
F0.0086997670355270802
s(S'A'
S'0'
tp142
F0.0025188916876574302
s(S'd'
S'E'
tp143
F0.012034930652381304
s(S'v'
S'0'
tp144
F0.00080645161290322581
s(S'f'
S'D'
tp145
F0.0046956901572510184
s(S'v'
S'a'
tp146
F0.0064516129032258064
s(S'E'
S'w'
tp147
F0.0011834319526627223
s(S'd'
S'a'
tp148
F0.054744257723636912
s(S'u'
S'D'
tp149
F0.010556232237109218
s(S'f'
S'v'
tp150
F0.0020020384391380313
s(S'E'
S'a'
tp151
F0.00059171597633136117
stRp152
(dp153
S'_guess'
p154
g1
(cpykov
Vector
p155
g3
(dp156
S'A'
F0.0050951653682765
sS'B'
F1.2834169693391686e-05
sS'E'
F0.021689746781831942
sS'D'
F0.023525033047986962
sS'F'
F0.020919696600228448
sS'a'
F0.12932992800030801
sS'b'
F5.1336678773566743e-05
sS'e'
F0.17187520053390148
sS'd'
F0.17489123041184845
sS'f'
F0.35258030981685645
sS'1'
F1.2834169693391686e-05
sS'0'
F0.00021818088478765867
sS's'
F2.5668339386783372e-05
sS'r'
F0.0056213663257055589
sS'u'
F0.031610559954823716
sS'4'
F3.8502509080175061e-05
sS'w'
F0.046588035987011819
sS'v'
F0.015914370419805691
stRp157
sb.S'14ud0uu0wrfafFaaFfaaffaafFaaFFaaFafafaFFaaFFaaFFaaFfaaFFaaFAFAFAFAFAFAFAFAFAFAFafAFAFAFAFAFaFAFAFAFAFAFAFAFAFAFAFBFAfaFAFAFAFAFAFAFAFAFAFAFAFAFAFAFAFAFAFAFAFAFAFAFAFAFAFAFAFAFAFAFAFAFAFAFAFAFAFAFAFAFAFAFAFAFAFAFAFAFaFAFAFAFAFAFAFAFAFAFAFAFAFAFAFAFAFAFAFAFAFAFAFAFAFAFAFAFAFAFAFAFAFAFAFAFAFAFAFAFAFAFAFAFAFAFAFAFAFAFAuu0ru0uu0uu0uu0uuuuuuu0uuDuu0uuu0uuu0uuu0uu0uveeddddddddddddddddddddddddddddddddddddddEDedeeeeedeuuvveeeeFEeeeeeeedeewrfaduvEefeeFEeeeeeeeeeeuuedffFDeedeeeeedeuvffeeDDddEEeedddeeeeeuudvveeedEEdeeedeedddDDduudwvffeeEEedeeedeedeDDduuudvveeeeDDDdedeeeeddeuuduudwvedeeEFeeeeeeeedduuduuduvdeddEEdededeeeddvuduudvvfeddEDdfeeeedfdeuuuuvEeeedEDdddeeedededduuuuvdddddEDddeddeeddduuuuuuuddedDEEddeddddedeuuuuuvvdddeDDEddddddddddDuuuuduuuuedddEDdddddddddduDuuuuDDddddDDdddddeeddduuuuuEddddDDEDeddddddddduuuvueeddDdEedeeedeeeeDDwrfafafafaDDFFfafafafawrfafafafaDDdddeDFafafafaedddeeeeeddduudfadfadwrfdffawrfafafafawwadffuuffafffauwffafEEdeeeEEdeddeeeeeefafafafafawwfafafauuffffffawrfffafawwaffafwwfaffauuDDffeefedddaEEddeeededddDDdffdwwaffduwfafafaDDDDfffaduufffauwafaffvvdddfDDeaddfafDEedeeeeeeedFDfaffawwfaffauufffauuFAfafafaffwrfafafafavrfaffafaEEeeeeFDffafDDeeedeedeeduuffafaffawwafffawudddwrfaffafuufdffdwrfafafafaDDddddddeeeeeeddddddfddddddddddddddddddddddddddddddddddddddddddddddddddddddddddddddddddDFDfaeefeeeeadeeefdewrfafafaffuufafafffawrffafafawrfafafafawrfafafafauufafafafafadeeddeEEeeeeeeedddFAfafafafawrfafafafawrfafafafauufafafafafawrfafafafawrfafafafavvdedeFAfafafafaEEeeeeedeeedDDfafafafafawrfafafafawrfafafafawrfafafafauufafafafafawrfafafafaEEeeeeFFeeeefeeeeeeaddfafafawrfafafffauufafafafafawrfafafffawrfafafafawrfafafafauufafafffaeefeeafaEEeeeedeeeeeFAfafafafawrfafafffawrfafafafauufafafffafawrfafafafawrfafafafaEEeeefFAfafafafaEDedddddeeeeuufffafafffawrfafafafawrfafafafawrfafafafauufafafffafawrfffafafaDDedeeEEeddeddeeeefafafafafawrfafafafauufafafafafawrfafafafwrfafafafawrfafafafavvddfeeedafafafafaDEeefeedeeeeFAfadfafawufffauwafafafuufafafafafawrfafafafawrfafafafaDDeeedFAfafafafaEEeeeeeedeeduufafffafafawrfafafafawrfafafafawrfafafafauufafafafafawrfafafafaEEefddEEdedddeddddfafafafffawrfafafafauufffafafafawrfafafafawrfafafafawrfafafafavufeddddfafafafafadEEeeeeeeedeeFAfafafafawrfafafaffwrfafafffauufafafafffawrfafafffawwfafafafaEDeeedFAfafafafaDEedeedeeddduufafafafafawrfafafafawwfafafafawrfafafafauufafafafafawrfafafafaDDeeddDEedddddddddFAfafafafawrfafafafauuFAfafafafawrfafafafawrfafafafawrfafafafauuddddDDfafafafafaDDddddddddddFAfafafafawrfafafaffwrfafafafauufafafafafawrfafafafawrfafafafaDDeeddFAfafafafaddddddddddefuufafafafafawrfafafafawrfafafffawrfffafafauufafafafafawrfafafafadDddddDDddddddddddFAfafffafawrfafafafauufafafafafawrfafafafawrfafafafawrfafafafaDDEDeeddFAfafafafaDDdedededdedFAfafafaffwrfffafafauufafafafafawrfafafafawrfafafafawrfafafafaEEefddDDfafafaddfddddadddfdddawrfafafafawrfafafafawrfafafafauufafafafafawrfafafafawrfafafafaddeeeeDDdddddeddeeFAfafafafauuffaffaduwfaffawrfafafafawrfafafafauufafafafafavufeddddFAfafafafaDEddddeeeeeeFAfafafafauwaffafauufafafafafawrfafafafauwafaffawrfffafEDefdeDDDdfafafaeefddddaddeeedwwafafffawrdfafafwrffafafauufafafafafawwaffafawwafffaeEfeddDDddddddddeeFAfafafafauufafafafffauwffafauwadffawrfafafafauufafafafafavwefdeFFfffafafaDDeddddededdFFafffawrfafffafauufafafafafawrfafafafawrfafafafawrfafffafaEEeeeeDDFAfafafafaeedddeeddedewrfafafafawrfafafafawrfafafafauufafffafafawrfafafafawrfafafafaddddddddffffffdddddddddddddddddddddddddddddddddddddddddddddffddddddddddddddddddddddddddddFFffffffffffFAfafafafauufafafafafawrfafafafawrfafafafawrfafafafauufafafafafavveeeeFAfafafafaEEeeeeeeeeeeFAfafffafawrfafafafauufafafafaffwrfafafafawrfafafafawrfafafafaEEeeedDDfafafeeaeefeedeaeefeeawrfafafafawrfafafafawrfafafafauufafafafafawrfafafffawrfafafafddaefefFDdeeedeedddFAfafffafauufafafafafawrfafafafawrfafafafawrfafafafauufafafafafaEveeedFAfafafafaEEeededdeeeeFAfafafafawrfafafafauufafafafafawrfafafafawrfafafafawrfafafafaEDfedeDEddddfeeedaedffeafafafawrfffafafawrfafafafawrfafafffauuFAfafafafawrfafafafawrfeeaedfeeafafaDEDedeeeeddedFAfafafafauufafafafafawrfafafafawrfafafafawrfafafafauuFafafafafaEDddfeFAfafafafaDDddeeeeeeeewrfafafafawrfafafafauufafafafafawrfafafffawrfafafafawrfffafafaEDeedeEDdeeeddededddfafafafafawrfafafafawrfafafafawrfafffafauufafafafaffwrfafafafavvedddfafafafafaDEdddeddeddeFAfafafffauufafafffaffwrfafafafawrfafafafawrfafafafauufafafafafaEEeeddFAfafafffadEeeeddfddedwrfafafafawrfafafafauufafafafafawrfafafffawwfafafafawrfafafafaEEeeddDDDDddddddddddFAfafafafawrfafafafawrfafafafauufafffafafawrfafafafawrfafffafauuefddFAfafafafaDDddddddddddDDfafafafafawrfafafafawrfafafafawrfafafafauufafafafafawwfafafafaEEefddFAfafafafaefddddddddeewrfafafafauufafafafafawrfafafffawrfffafafawrfafafafauufafafafafadeeeddDDddddddddddFAfafafafawrfafafafawrfafafafauufafafafafawrfafafafawrfafafafavueeddFAfafafafaDDddddddddddDDfafafafafawrfafafafawrfafafafawrfafafafauufafafafafawrfafafafaDDeefeDFAfafddaddfdddddeaddfawrfafafffauufafafafafawrfafafafawrfafafafawrfafafafauufaddeadeefeddDDdddeddddddFAfafafafawrfafafafawrfafafafauuddffduwffafuwfafafavvffddFFffafDDddddddddddDDdfafffuuffafawwafaffawrfffafafauuffffafawrdddfDEefddFFaffafDDddddddddddwwfadduufafafdfwrffffuufeafwrfafffuufafafaffaEEeeeeFAfddafdeddeefddddafawrfffffauwaffafauufafafafafawufdfawrfafffuwddfEEeeddDDddddddddddDDdfafffauufffawwafaffuwfaffuuddffafauwaffafauvedfddfadddDEededeeedeeDDfafafaDDDFfaffawrffffwwafffafuudffdduwfaffauueeedFAdddfDDddedeedeedFFafffaDDDFfaffauwafffwwafffuufaffafafawwfffafDDddddddeededdddddddddddddddddddeeddddddddddddddddddddddddddddddddddddddddddddddddddddddddFFaffafEEedeeddeeeewrfffafuufffdfwwaffafwudfduwfafaffuufafafafafaFEeeeeDEedddeefeeeeafaffafawwfddwwfaffuufadfaffwrdfafadwrffaffawwafadfaeeeedeDEEedededeeedDDfffafffafauufaffwrFAfaffafauwffafuudddfafwwfffafvvfeedDFafddDEeedddddeedFAfaffafuudffadffwwfffauufffwrdfffaDDDFaffafaEEdeedFAfafafadDEedddeeeedewrffafafuuffaffffuufafadwwfaffawwaffafauuffadfafaDEeeddDDeeddeefeeeefafafafuwfadfwrfafafafauufafafafafawrfafafafawrfafafaffwrfafaeefeeffeefEEeeedededeeDDfafafafffawrfafafafawrfafafafawrfffafafauufafafafafawrfafafafaDDeeeeFAfafafafaDDeedddddedewrfafafafauufafafafafauwafffawrffadfwrfafafafauufafafafffaDDefedEEfeedeeeafeeddafafafawwafafafawwffafauufffafafafawrfafafafawrfafafaffwrfafdeaeefaedfaDDdedeedeeddDDfafafafafawrfafafafawwfffafafawrfafafafauufafafafafawrfafafafaEEfeeeFAfafffafaEDeedddeedddwrfafafafauufafafafafawrfafafafawrfafafafawrfafafafauufafafafafaEEeedeDDddddddddddfafafafafawrfffafafawrfafafafauufafafffafawrfafafafawrfafafafauuffeafddafafafadDDdddeddddddDDfafafafafawrfafafafawrfafafafawrfafafafauufafafafafawrfafafafaEEddddFAfafafafaDDdddddddeddwrfafafafauufafafafafawrfafafafawrfafafafawrfafafafauufafafafafaDDdedeDDedddeddeedFAfafafafawrfafafafawrfafafafauufafafafafawrfafafafawrfafafafavvfeedfffafafafaDDdeddedddeeDDfafafafafawrfafafaffwrfafafafawrfafafafauufffafafafawrfafafafaEEeeddFAfafafafaddeeeeeeedeewrfafafafauufafafafafawrfafafafawrfafafafawrfafafafauufafafafafaEEeeddEEdeeeeeeeeeFAfafafafawrfafafafawrfafafafauufafafafafawrfaffafawwaffafauueeddDFfafafDEdddededeedDDfafafaffuufffauwfafafauwfffauudffaffwwfafffaEDeeddFAfdffaDDddddddddddwwafafduuffafffafwwffafawrfafafafawwfafafauufafffafaEEddddDDddddddfddddaffaffawwfffauwaffafuuffaddfuwafaffwwafadfawrffaffaededdeDEdddddddeeeDDdfffadwrddfdwwaffafawufdduufafafaffawwafaffuveeddffffafadEDdeeeedededFFffffauudfaddfawwafaffawrffafafawrfafafafuufffaffEEeeeeFAfafafadDEedeeddedeeuwafaffauwffffauudfddfauwfddwrfafffauuffafDDddddddddddddddddddeeddddddddeeddddddddddffdddddeddddddddddddddddddddddddddddddddddddddddDDffafafafedfeeeeeeedeewrfafaffuufafafawvfddfauuddffafawwaffafuwfffafEEeeeeEEeeeeeeeeeeFFafaffuuddffaffwrffaffavrfafadfwwafafafauufaffafafawvdffefaeeffEEeefeeeeeeeFFfaffauwafafafuuffffafafwwafafdwwffafuudfafuveeedDDdfadfafEEededeefdeeFAfafafafawrfffafauwafadfauufaffafffuudffwwafafafaEEefeeDFfaffaeeeeeeeeefeeDDFFaffafawrfafafafauwfdfauwfafafuufafafafafawwfafafaEDeeedEEeeeeeeeffeFAffafadwrfafafafauufafafafafawrffffafawrfafafafawrfafafafavvddeeddfafafafafaDEededeedeeeFAfafafafawrfafafafawrfafafafauufafafafafawrfafafffawrfafafafaDDffeeFAfafafafaeddeddedddeduufffafafafawrfafafafawrfafafafawrfafafafauufffffafafawrfafafafaDEeeeeDEEedeeeeeedeFAfafafafawrfffafafauufafafafafawrfafafafawrfafffafawrfafafafavueeeeDDfafafafafaDEeeeedddeddFAfffafafawrfafafafawrfafafafaDDFAfafafafawrfafafafawrfafafafaEDedddFAfafafafddaeededdddeeuufafafafafawrfafafafawrfafafafawrfafafffauufafafafafarrfafafafaddddedDDdddddddeedFAfafafafawrfafafafauufafafafffawrfafafafawrfafafafawrfafafafauuddddDDfafafafafaDDddddeeddddFAfafafafawrfafafafawrfafafafauufafafafffawrfafafafawrfafafafaDEfeddFAfeeafddddaddfeeddafaDDFAfafafafawrfafafafawrfafafaffuuFFfafafafawrfafafafawrfafafafddaeeddDDddddddeeedFAfafafafauufafafafafawrfafffafawrfafafafawrfafafafauufafafafafaFwddddFAfafafafaFFffffffffffFAfafafafawrfafafafauufafafafaffwrfafafafawwfafafafawrfafafafaFFffffFFffffddfffffafffafafafawrfafafaffwrfafafafawrfafafafauufafafafafawrfafafafawrfffafffafffafaFFffffffffffFAfafafafauufafafafafawrfafffafawrfafafafawrfafafafauufafafafafaFFffffDfAfafafafaFFffffffffffwwafafafawufffauudffaffawrfafafafawrfafafdwwfaffFFffffDDDFfdfffffffaffffffwrfaffafauwfffauwffaaffuudfafafafwrfafafafauufafafFFffffFFffffffffffFAfafafafauufafafafdwrffaffawrfafafafawwffaffauuddfaffvveeedfafffafaEEdddddedddeFFdffwwafadduuffaddfuufaffawudffawrffafadEEeeddDDdfaffafaDDddeddddfdewAfafafafauwfffwrdfafafuufafaffafawwafafafawrfafafafaEDfeedFAdefedaeefeeeaefddffaDDFAfafafafawrfafafafauwffafuufffddwwafffauwaffadddddfdddadddddddeddddddddddddeeddddddddddddddfdeeddddddddddddddddddddddddddddedddddddddddddDDeeedeeeeeeFFfaffaDDFDffafuwafafafawwfaffuudfffafawrffaffvvdefedeaddfEDeedeeefeeeDDdfafauudfaffafawwfafafwrfafffafauwfffauuddfaffEueedeDFafafafaEDeeedeeeeeeFFafffuufadduuffffafawwffafuwfaffauwaffafDDeeedDDfafafafaffeeddedeeddedwrfafafafawrfafffafawrfafafafauufafafafafawrfafafaffwwafafafaeEfeeeDDDdefeeeeeffFAfafafafauufafafafafawrfafafafawrfafafafauwffafauufafafafafauueeeeDDffafaEEdeeddeddeeFFafaffawwfffuufffafafawrffffauwafffawudfafaEDeeedDDdfffafaEEeeeeeeeedewwffdfawwfafafafawrfafafafauufafafafafawrfafafafawrfafaffffEEfeddEEedddedddeefafffafafauufafafafafawrfafafafawrfafffafawrfafafafauufafafafafavveefddafafafaffEEeeeeeedeeeFAfafafffawrfafafafauuffadffawrfafffafawrfafafafawrfafafaffDDEEededFAfafafafaEDeddeeeeedewrfafafafawrfafafafauufafafafffawrfafafafawrfafffafawrfafafafaDEeddeEEededeeeeddDDfafafafafawrfafafafawrfafafafawrfafafafauufafafafafawrfafafafavuededfafafafafaDDeeddeeddddFAfafafafauufafafafafawrfafafafawrfafafafawrfafafafauufafafafafaDDeeddFAfafafafaeeddeeeeeeefwrfafafafawrfffafafauufafafafafawrfafafafawrfafafafawrfafafafaEFedddEEdddeddddedDDfafafafafawrfafafafawwfafafafawrfafafafauufafafafafawrfafffafavveeddFAdfafafafaEEddddddddddFAfafafafauuFAfafafafawrfafafafawrfffafafawrfafafafauufafafafafaDEeeeeFAfafddafddedaddfddddawrfafafafawrfafafafauufafafafafawrfafafafawrfafafafawrfafafafaddeeddEEeddeeeeddeDDfafafafffawrfafafafawrfafafafawrfafafafauufffafafafawrfafafafawveeddFAfffafafaDDddddddddddFAfafafafauufafafafafawrfafafafawrfafafafawrfafafafaDDFAfafafafaEDeeddEDfdddeadefdedeafffafawrffadfauuFFafffafawuffafawuddfauwfafaduufafffafEFfeadeEEdededddeedFDdfafawwaffafwwdffauufafffafuufdfwrfafafffavuedfafeeafafafaEDeedeededeeDDffdfafawrffaffwwaffafwrfafafafauuddfaffwwdfaduveedeFFafffEEededddddedDDffafauufdfaffauwfffwrfafffauwaffafDDDFafafafEEfeefDEafffffadddededeededwwfadfuufafafffawrfafafafawrfaffafwrdfadfuufaffafafEFeeefDDdfdedafadfdEEeeeeeeeeeeDFfffawwafffauwaddfawrfddfDDDfaffffwufaffauuddddddfffaddddddddfddddddddddddfddddddaddddddddddefddddddddddddddddddddddddddddeeddddddddddddeeEEeedeeedeeeFFafafafaDuwffaffuufafffffwwadffuuffaffuwfadfavvfeeefafaffffaEEdeeeeeeeeeDFafdfdddfdDDfffaffuufafdafdadfddfdafdafwrfafaddFFfdaddfddfFAfafafafwufffdaffdfDDfddffauwfffddffdafdfdfdEEeefeDFafffEEeefeeeddeeFDffffdfafdaDDffadwufdfdddfdadfddfaffuwfafafaDFffdfdddffaFFfadfFDffafffdffDFfadduufaffafafedafadfdfdffEDeeeeDDdfededfeeedadefafDDdfdfdfffdaFFfdfuwffdfffffadfdffafuuffafffaFFdfdafffdfdaFFfffaDFdeeaafdffafdFAffffauwffafafddfdddfdfddeeeeeEEdeeeeeeeedFDffafFDafdfdafdafdDDdffaffuwadfffdfdfdafffffauwddfFFfdffafdaffdDDfafafaDDfdfdaffddffdDFafaffawudafdaeefaeefaffafafafaaffaaffaaffaaEEeeeeeedeedFFfafafffaFFaaffaaffaafffaffaaDDfafaffafauufdfdfdaffafdfffawrfafafafaDFfaaffaaffaaffaafffaFAfafafafaDDFFfffaafdfdfdDDfaffEFffeeFAfafafafaFFaaeefeedefadedeafeefaaffaaffaaFAfafafafaDFfaaffaaffaadfdfaFFffafuufafafaffafffaaffaaffaaffaaffaawrfafafafaFFaaffaaffafffafffaaFAfafafafauwfffafafafafafafafffafafafafaaEEeeeeEEeeededdeeeDDfafffafafaFFaaffaaffaaffaaffaaFAfafafafawwaaffaaffaaffaaffaafafafafafawrfffafafadffaaffaaffaaffaaffaaDDfafafafafaFFaaffaaffaaffaaffaaFAfafafafauveeddFafafafafaffaaffaaffaaffaafffaEEdeedeeeeeeFAfafafafaDFfaaffaaffaaffaaffaaDDfafafafafawwafafafafafafafafffafafafafaawrfafafaffFFaaffaaffaaffaaffaaFAfafafafauFfaaffaaffaaffaaddffafafafaafafaEEeeeeEDfddddaddfedddafafffaFFaaffaaffaaffaaffaaFAfafafafaFFaaffaaffaaffaaffaafafafafafauufaffafFafDFfdafffdfdwrfafafafaDFfaaffaaffaaffaaffaaFAfafafafauuffaeefafaddfafafafafafafafafafafaaDDedeeddededDDfafafafafaFFaaffaaffaaffaaffaaFAfafafafaDFfaaffaaffaaffaaffaafafafafafawrfafafafaFFaffaaffaaffafffaaDDfafafafafaFFaaffaaffaaffaaffaaFAfafffafaDDeeeeFAfafadfafeeeeaedddfedfaeeaffaafffaffafffaawrfafafafaFDdffaffaaffaaffaaffaaFAfafafafawrffafafafaffaafffafafafafafaawrfafafafaDFfaaffaaffaaffaaffaaDDFAfafafafawwaaffaaffaaffaaffafafafaafedafafeddEEddddddeeddFAfafafafaFFaaffaaffaaffaaffaaFAfafafafaDFfaaffaaffaaffaaffafdDfafafafafawrfafafafaffaaffaaffaaffaaaefaaFAfafafafaFFaaffaaffaaffaaffaaFAfafafafaEEeeeeDDfadfafaffafafafafaaffaaffaaffaaeeeededdeeeewrfafafffaFFaaffaaffaaffaaffafFAfafafafawwaaffafafafafafafafafafffafaauufafafafafaDFfaaffaaffaaffaaffaaFAfafafafawwaaffaaffaaffaaffafafafaafafaEEfeeeFEeeededfffeFAfafafafaFFaaffaaffaaffaaffaaDDfafafafafaDFfaaffaaffaaffaaffaafafafafafawrfafafafafFaaffaaffaaffffffaaFAfafafafaFFfaffaaffaaffaaffaaDDfffafafafavvefeefafdafaffafafafafaaffaaffaaffaaEEeeeeeeeedeFAfafafafaFFaaffaaffaaffaaffafFAfafafafawwaafddfafafafafafafafafafafaafawrfafafaffDFfaaffaaffaaffaaffaaFAfafafafawwaaffaaffaaffaaffaafafafafafaDEffdeDDfafaedfdeafefeeeeaeefaFFaaffaaffaafffaffaaFAfafafafaDFfafffaaffaaffaaffaaFAfafafafawrfafafaffafafffaaffaaffaaffaawwfffafafaFFaaffaaffaaffaaffaaDDfafafafafauwfafafafafafafffaeefafafefaefeaaffaaEEdeddeeeddeFAfafafafaFFaaffaaffaaffaaffaaFAfafafafauuffaaffaafffaffafafafafafafaafawrfafffafaDFfaaffaaffaafffaffaaFAfaffafawwafffffdfafdaDFfafadEEeeeeDDffafffaDFafdffafeedaeefdefeeedeeuwafffaDFdfdfdfdfdaDFaffafawwdfdadfddfddfdduufafffafafaFFaaffaafffaffaaffaaFFafafafuFdafdfdfdfdDddffEEedeeDFfeeaeeefeeeeffeeaFDafdfadfdfffuufaffafdeaFDfdafdfdffaFFffduwffddfdafdaffdfdfdawrfafafaffFFaffadffdafdDDeaddffawufdaadfdfdadffadfEEeedeDEEefedaeeeeeeFFfaffaDFfadfdfadfdDFfdffdDDdfafdfdfdDDdffadfuufffffddfdaffafdfdwrfafaffaFFdffffdfdFFfffDDDDfdfdfdadddfdeddeefeeEEedeeeeeeddDFafaffDfdaffdfadfadddDFffafaDDfdafdfdfdaDDffffffauwfafdafdadfdadfdafdwwffafaDFfffafffdfdFFfffDDEEfdfeafeedfdffffafffafafaEDeeeeeedeeeFAfffffDFdfdfdfdfawrfffafDFffdfadffafdFAfafaffawwaddaffafffafafafffafafafafafaawrfafafafaFDfddffdfdFDddfaEEeeeeDFdedafdaffafdFDfaeefeeeedeeeeeeuufafafafafawrfafafafawrfafafafaDFFafafafauudffaffauufaddddfddddfddddddddddddddddddddddddddddddddddddddddddddddddeddddedddddddddddddddddddddeefeFFffffffffffFAfafafafDFAfafafafauuffaffafauwafaffwwaffafadwrfafdfvveeddfdefafafffEEeeeeeeeeedFDfdfdfdaffaDFffafwwffafdafdafdffffffwwffafafDDfdddfdedadfFAdffafawwfffdfdfdfdaddfawrdfafafaDFfaffafdffadfEEeeeeDDfffffEFeeeeeeeeeeDFaffafdfdffFFafafadwrfaffafafdafdfdffffauwdffaDDdfdaddfdfdfdFAfafaaafawuffffafddedaddffawrffffFFfdafdddffeEeeeeDDdffdeedefeeeeeeeeDDfafdfdaffffaDDffaffuwfffafdfdfdfdfduwaffffDFdeadfffddfDDdfaffffauwfadddddfddefdadfawwafaffaEEfdeeffedadffdfdaEDeeeeeeeedeDffafafDDedafdfdafdDDfffafafuwadfafafddddfdfdfdwvadfadFDafdafdffafdDDdddwufffdddffafddfdffwrFFaaffedaffaaDfaFAeeeeffeafeafffaafaeafaafafaffafawrfarDDffaafffaffafffaafdwwaaffaaffaaffaaffaauveefdFFaafdeffdeedafeefaafeffadeaffaauwfaaffaaffaaffaaffaawwaaffaaffaaffaaffafwwaaffaaffaaffaaffaauwfaaffaaffaaffaaffaaEEeedeDEdedeeeedddFFaaffaaffaaffaaffaawwaaffaaffaaffaaffaauwfaaffaaffaaffafffaawwffafdaffadfauvdeeeFFaaffaaffaaffaafffaEEeeeeeeeedeuwfaaffaaffaaffdfwuafdfdffaffwwaaffaaffaaffaaffaauwfafffaaffaaffaaffaaDEeeedEDeeeddeeeffaeeaffaaffaaffaaffaawwaaffaaffaaffaaffaauwfaaffaaafffffaaffaawwaaffaaffaaffaaffaawwaaffaaffaaffaaffaaedddddDEdddeeedeedDFfaaffaaffaaffaaffaawwaaffaaffaaffaaffaawwaaffaaffaaffaaffaauwfaaffaaffaaffafffafvueedeFFaaffaaffaaffaaffaaeedeededeeeewwaaffaaffaaffaaffaauwfaaffaaffaaffaaffaawwaaffaaffaaffaafffawwaaffaaffaaffaaffaaDDeeddDDDDddddddddddDFfaaffaaffaaffaaffaawwaafffaffaaffaaffaawwaaffaaffaaffaaffaauwfaaffaaffaaffaaffaauuedfedfaaffaaffaaffafffaaEEeeeddeeeddwwaaffaffffaffaaffaauwfaaffaaffaaffaaffaawwaaffaaffaaffaaffaawwaaffaaffaaffaaffaaEveeddDDdddedddffadeafedfafffaaffaaffaawwaaffaaffaaffaaffaawwfaffaaffaaffaaffaauwfaaffaaffaaffaaffaawwfaffaaffafffaaffaadDffeeDEdeeeedddddFFaaffafffaaffaaffaauwfaaffaaffafffaaffaawwaaffaaffaaffaaffaawwaaffaaffaaffaaffaavvddddDfFaaffaaffaaffaaffafedddddddddddwwaaffaaffafffaaffaawwaaffaaffaaffaaffafuwfaaffaaffaaffaaffaawwaaffaaffaaffaaffaaEEefddDDddddddddddFFaaffaaffaafffaffaauwfaafffaffaaffaaffaawwaaffaaffaaffaaffaawwaaffaaffaaffaaffaauvefeefaddfffffadfafdaDDdddddddddewuaffaedafdfdwwafffdafdffuwdfdffafdfdauwaffaffaffaffauufeedFFadfffffaffDEdddeedddeeuwfaffffaffaaffaaffaawwaaffaaffaaffaaffafwwaaffaaffaaffaaffaauuffffddfafdDDeeddEDddddddedddfdfadfdfdfdawuaffafddffduwfadffdafdfduudffdfdfdwuddfffdfdDFfdedEEdeddededeeDDdffafdafdafdwwadfffafffdawwfdafdfdfduwfdfafdafdfdwwaafffaffaaffaaffaEEeeeeEEeeeedeedddDDddfdfddduwfdffdaffafdwwaaffaaffaaffaaffafuwffffafdfduvdeeeeffaaffaaffafffafffaaDEedededdeeewufdfdfdfdududdddddddddddddddddddddddddddddddddddffdddeddddddddddddddddddddddddddddddddddddddddeeeeedEEeeeeeeddedDuuveedeEEededddeeeduufffffafdaddwwadfdfffaffwwaaffafffaaffaaffaauwfaaffaafdfdafdEEeeedEEedeeedeeeeDDfffdafdfdwwffdfdddfeauwfffafdafdafdwufdfdafdfdawwaaffaaffaaffaaffaaDDdeedEEededdeededDFfaaffaaffaaffaaffafwwaaffaaffaaffaaffaawwaaffaaffaaffaaffaauwfaafffaffaaffaaffaauuddddFFaaffaaffaaffaaffaaEDdddeeeedeewwaaffaaffaaffaaffaauwfaaffaaffaaffafffaawwaaffaaffaaffaaffaawwaafffaffaaffaaffafDDeeddEEdeedeeeeedDDfdfdddddfuwafdafdfdfdwwaaffaaffafffaaffaauwdffafffffadfawufdfdfdfdEEedeeEDdddeeedeeeFFaaffaaffaaffaaffaauwdafdffaffaffwwaaffaaffaaffaaffaawrddffdfdffavuddeddffaaffaaffaaffaaffaaDEddededdeedwwaafdafdffdfawwafdffdfffuwfaaffaafffaffaaffaawwaaffaaffaafffafffauuddddEDffedfddafddfaeeafdefaaffaaffaauwfaaffaaffaaffaaffaawwaaffaaffaaffaaffaawwaaffaaffaaffaafffauwfaaffaaffaaffaaffaaEDeedeEDeddeddeedfFFffdfdffadfwwaaffaaffaaffaaffaauwfaaffaaffaaffaaffaawwaaffaaffaaffaaffaavveeeeFFaaffaaffaaffaaffaaDDddedddeedduwfafffaaffaafffaffaawwaaffaaffaaffaaffaawwaaffaaffaaffafffaauwfaaffaaffaaffaaffafEEddddDDddddddedddFFaaffaaffaaffaaffaawwaaffaaffaaffaaffaauwfaaffaaffaaffaaffaawwaaffaaffaafffaffaawwfaffaaffaddaddfddfaaffaaDDdddddddddduFfaaffaaffaaffaaffaawwfaffaaffafffaaffaawwaaffaaffaaffaaffaauwfaaffaaffafffaaffaauuedddFFafffafddfddfedaafddfafddfeefaawwaaffaaffaaffaafffauwfaaffaaffaaffaaffaawwfaffaaffaaffaaffaawwaaffaafffaffaffffaEEeeddDDdddddeddddDFfaaffaaffaaffaaffaawwaaffaaffaaffaaffaawwaaffaaffaaffaaffaauwfaaffaaffaaffaaffaavueeedFFaaffaaffaaffaaffaaDDedddddddddwwafffaaffaafffaffaauwfaaffaaffaaffaaffaawwaaffaaffaaffaaffaawwaafffaffaaffaaffaaDDdeddDDddeddddddeDffaaffaaffaaffaaffaawwaaffaaffaaffaaffafwwaaffaaffaaffafffaauwfaaffaaffaaffaaffaawwaaffaaedfffeeaeeffafffaaDDddddddddddwwfafffaffaaffaaffaauwfaaffafffaaffaaffaawwaaffaafffaffaaffaawwaafffaffaaffaaffaauuddedDFfaaffddaaddddffaddafddfaaddffaawwaffafffeaafdawuafdfdffafdauwfaaffaaffafffaaffaawwaaffaaffaaffaaffaaEEeeddDDddddddedddFFffafdafddduwfaaffaafffaffafffaawwaaffaaffaaffaafffawwaaffaaffaafdfduwddfaeeafeefaaffaaffaaffaaEDddddddddddwwaaffaaffaaffaaffdwwaaffafffaaffaaffaauwfaaffaaffaaffaaffaavwaafdafdaffafdvueefeDFaffdfeddfdddddafddeadddduwfaaffaaffaaffaaffaawwaaffafffaaffaaffaawwaaffaaffaaffaaffaauwfaffadfadffdDDedeeDEdeddddddedFDaffefdadffdawwfefdffdafduudffafffdffawwfdfafadfffdwwaaffaaffaaffaaffaaedfeeeEEedddedeedeDFfafffaafffaffaaffaawwaaffaaffaaffafffaauuuddddddddddddddddddddddddddddddddddddddddddddddddddddddddddddddddddddddddddddddddddeefeeeDEeeeeeeeeeeuuvFfeeeDEeeedddededuwfaaffaaffaaffaaffaawuffaddffadfawwaaffafffaaffaaffaaEDedddDDedeeeeedeeDFdffafdaddffawwaaffaaffaaffaaffaawwaafauwfafffaaffaaffaaffaawwaaffafffaafffaeefdefaaeeEDddededdedewwaaffaaffaaffaaffaauwfaaffaaffaaffaaffaawwaaffaaffaaffaaffaawwaaffaaffaaffaaffaauueeedDFfaaffaaffaafddfaddadeffaddfeddewwaaffaaffaaffaaffaawwaaffaaffaaffaaffaauwfaaffaaffaaffaaffaawwaaffaaffaaffaaffaaEDeedeEEdeeddeeeeeFDddffaffaffauwadfdadfaffaffawwaaffaaffaaffaaffaawwaaffaaffafffafffafuudfedfadadffaaffaaffaaffaaDEdedddeedddwwaafffaffaaffaaffaawwafffaaffaaffaaffaauwfaaffaaffaaffaaffaawwaaffaaffaaffaaffaavveeedEDddddffaddafddfaddafffaffaaffaauwffaffaaffaaffaaffaawwaaffafffaaffaaffaawwaaffaaffaaffaaffaauwfaaffaaffaaffaafffaDEfedeFEeeddddeedeFFaaffaaffaaffaaffaawwaaffaaffaaffaaffaauwfaaffaaffaaffaaffaawwaaffaaffaaffaaffaavueeddFFaaffaaffaaffaaffaadDdeddeededduwfaaffaaffaaffaaffaawwaaffaaffaaffaaffaawwaaffaaffaaffaaffaauwfaaffaaffaaffaaffaaDDeeddDDdddddddddeFFaaffaaffaaffaaffaawwaaffaaffaaffaaffaauwfafffaaffaaffaaffaawwaaffaaffaaffaaffaawudfaedafddfaaffaaffaaffaaDDddddddddeduwfaaffaaffaaffaaffaawwaaffaaffaaffaaffaawwaaffaaffaaffaaffaauwfaaffaaffaaffaaffaauueeddEDfdeddfaaddffaeeafddfaaffaaffaawwaaffaaffaaffaaffaauwfaaffaaffaaffaaffaawwaaffaaffaaffaaffaawwaaffaaffaaffafffaaDDddddDDddddddfdddDFfaaffaaffaaffaaffaawwaaffaaffaaffaaffaawwaaffaaffaaffaaffafuwfaaffaaffaaffaaffaavvddddFFaaffaaffaaffaaffaaDDededdeedddwwafffaaffaafffaffaauwfaaffaaffaaffaaffaawwaaffaaffaaffaaffaawwaaffaaffaaffaaffaaDDedddDDddddeeefddDFfaaffaaffaaffaaffaawwaaffaaffaaffaaffaawwaaffaaffaaffaaffaauwfaaffaaffaaffaafffawwaaddfeefaaddfffaffafffaaDDddddddddddwwaffffaffaaffaaffaauwfaaffaafffaffafffaawwaafffaffaaffaaffaawrdfdffaffaffauueeddDDffffdddfdddddfadddddedwuaffdffadfdwufdfdfdfduwdafdfdfdaffwvadffdafdfdDDeedfEDfeddeeddddfdfffdfddduudfadfdddfdauuddfdffffuufdfdfdafduwdafadfadfdfdDDeeddEEddddfddeddFDfdadfffadfwufdfdfdafduudddfdfdfdwufdfdfdfduwdffdfdfdDDeeddDDddddddddddDFdfdfdafffaduwafdfdfdfduwfdfdadddduuffdfdedafaeuuddfdfdfdDDdeddDDdddeedddddFFfffdfdfduuffdafdaddfdvwafdafdfdfdauuddfdfdfduudddedddadefdddfdaEEddddddeedduudfafadffafdauwafdaddfdffauwdfdfdedddwufdfdfadfdruaeeeeFDfdfdfffdEDdeddddededuwfdffdaddfduufdedafddduuuddddddddddddddddddddddddddddddddddddddddddddddddedddddddddddddddddddddddddddddddddefeedeEEeeeeeeeedduuuEeeeeDEeeddddeeeeuuufafdfdfdfduwafdfdafdafdauwafdfdddfdEDeedeEDedddedddedDddfdffdfdefauwffafffdafdwuafdfdfdafduwdddfeafffduwfdfdfdfadDDeeddDDddddddddddDDfdfdafdffuudfdfdafffduufdaddfdfdwuafdfdfdfdauwfaaffaaffaaffaaffaafFddddFFddddddddddFDfdfdfdfduwdfaffadffduufadfffafdffuwafadfdfdfduufdedfdddddfdfdDDdddddddddduFdfdfdfdffuwfffdafdffwwaffffaffafduudfdfdfdfffuuddddDDfdfdfdafdaDDddddddddddwwaaffaaffaaffaaffaauwfafffafffaaffaaffaawwaaffaaffaaffaaffaawwfaffaafdafdfdauuddddDDdddddddddffaddfffaaffaffaaffaawwaaffaaffaaffaaffaawwafffaaaffaffaaffaauwfaaffaaffafffaaffaawwaaffaaffaaffaaffaaddddddDDddddddddddFFaaffaaffaaffaaffaauwfaaffaaffaaffaaffaawwaaffaaffaaffaaffaawwaaffaaffaaffaaffafuuddddDFfaaffaaffaaffaaffaaddddddddddddwwaaffaaffaaffaaffaawwaaffaaffaaffaaffaauwfaaffaafafaffaaffaawwaaffaaffaaffaaffaaDDeeddDDddddddddddFFafffaaffaaffaaffaauwfaaffaaffaafffaffaawwaaffaaffaaffaafffawwaaffaaffaaffaafffauudddfddfaaffaaffaaffaaffaaDDddddddedddwwaaffaaffaaffaaffaawwaaffaaffaaffaaffaauwfaaffaaffaaffaaffaawwaaffafffaaffaaffaaDuddddDDddddddfddfaaddffaafffaffaaffaauwfaaffaaffaaffaaffaawwaaffaaffafffaaffaawwaaffaaffaaffafffaauwffaffaaffaaffaaffaadDddddDDddddddddddFFaaffaaffaaffaaffaawwaaffaaffaaffaaffaauwfaaffaaffaaffaaffaawwaaffaaffaaffaaffaauuddddFFaaffaaffaaffaaffaadddddddddddduwfaaffaaffaaffaaffaawwaafffaffaaffaaffaawwaaffaffffaffaaffafuwfaaffaaffaaffaaffaaDDeeedDDddddddeeeeFFaaffaaffaaffaaffafwwaaffaaffaaffaaffaauwfaaffaaffaaffafffaawwafffaaffaaffaaffaauuedffaeeaffaaffaaffafffaaDDddeddddedduwfaafffaffaaffaaffaawwaaffaaffaaffaaffaawwaaffaaffaaffafffaauwffdfdffdfauueeddDDedaeefddeddfdfeedddddwufdfdfddduwdafdaffdffdwwdffdafdfdwuddfdafdffaDDeeddDDddeddddddedfdafdfdfdfdawufdfdddffuudfdfadffdauufafdfdfffdauudfdfafdafadEEffddEEddddddedddDDedafdfdfduwdfdfadfdfadwufdfdfffdwuafdfdfddfuwdfdfdffaffDDeeddDEddddddedfdFDafdfdfdfaduudffdfdafduufaffaffdfdfawufdfdffdfuufdfdfdfdEEeeddEDdddddedfefDFdafadfdfdfduuddddddffwufdfadfdfduuffdfdfdfdwuafdfdddddfffedfEDddddeddfeewufdedafdafduwffdffdfffwwfdfdfdadfuwfdfdafffdvveedddddddfdfdfdaEDeeeeeeeedduuddfdedafdwwafdaffdfaffuudffadfafdfeauudddddddddddddeddddddddddddddddddddddffddddddddddddddddddddddddddddddddddddddddddddeeeeefEEeeedeeeddeuuvvefeeEEeeeeeeeeeeuvuafdfdaedafduwdfdafdfdfdaEEeeeeEEeeeeeeeeeeFDfdddfdfduwfdafdfdfduudddddfdfduwafdfdfdfdwwaddfdffddfEDefedDEeddeeedeeeDFdfadfdffdfvuafdfdfdfdwuafffdfdfduwfffdfaddfduwfdaddffdfDEddddDDeededeedddFDddfdffadfauudfdafdfdfdwufffffdafduwdffdaddfdauufdfdfdfdfddeeedFFededddedddDFafdafdfdafdawwdfaffadffduwdffaffdfafdwuafdfdfdffavvddddffaaffaaffafffaaffaaDEdddddddedduwfaaffaaffaaffaaffaawwffffaffffavuafdfdfdafduufdfdfdffdauveddeFFaafffafffaffaedafdeddfadaddedewwaaffaaffaaffaaffaauwfaaffaaffaaffaaffaawwaaffaaffaaffaaffaawwaaffaaffaaffafffaaEDdedeEEedededddeeDFfaaffaaffaffffaffaawwaaffaaffaaffaaffaawwafffaaffaaffaaffaauwfaaffaaffaaffaaffaauveeddFfaaffaaffaaffaaffaaDEdddddddddewwaaffaaffaaffaaffaauwfaaffaaffaaffaaffaawwaaffaaffaaffaaffafwwaaffaffuueeddEEdddedddddfeefaaffaaffaaffaaffaawwaaffaaffafffaaffaarrfaffaaffaafffaffaauwfaaffaaffaaffaaffaawwafffaaffaaffaaffaadeddddDDddddddddeeFFaaffaaffaafffaffaauwfaaffaaffaaffaaffaawwaaffaaffaaffaaffaawwaaffaaffaaffaaffaauueeddDFfaaffaaffaaffaaffaaddddddddddddwwaaffaaffaafffaffaawwaaffaaffaaffaaffaauwfaaffaaffafffaaffaawwaaffaaffaaffaaffaaDDeedeDDddddddedddFFaaffaaffaaffaaffaauwfaaffaaffaaffaaffaawwaaffaaffaaffaaffaawwaaffaaffaaffaaffaauudeeddffaaffaaffaaffaaffaaDDddddddeeeewwaafffaffaaffaaffaawwaaffaaffaaffaaffaauwfaaffaaffaaffaaffaawwaaffaaffaaffaaffaaDueeeeEEddddddfddfaaeeffaaffaaffaaffaauwfaaffaaffaaffaaffaawwafffaafffaffaaffaawwaaffaaffaaffaaffaauwfaaffaaffaaffaaffaadfeeddDEeeeddeeddeFFaaffaaffaaffaaffafwwaaffafffaaffaaffaauufafdafdfdfduwafdffedafdvueeedDDfdfdfdffaDEdedddddddduwdfdafdfdfadwuaddfdfdfdawufdfdfdfdauudfdafdafddduueeddDFaffafdfdafdDDddddddedddvuaffdfdfffauudfdffdfddfuufffdafadfdwudddffdafdvveeddDFdafdefaddfdddeeddfdddadewufdfdafdfdwuaddfdffaffuudedafdafdfduufdfdedafdDFddedDDddedddddefdffdafdfdafduufafdaedafdfdwufdfdfdfduwafdfdfdedauwdafdfdfdffEEefedDDddddddddedDDfdfdfdfdwwadffdfdafduwdfdafdfdfdwufdfdfdfduuddddfdfadDDddddDEddddddddedDFdafdfdfdfdwufdddffffduwafdddfeadfuvfafdafdedaffawufdddfdfdEEddddEEeeddeeedeeDFfdafdfdfduufafdddfdfduufdddfdfdDDDDdDdddDdfdfdfdfddDDdddddddddddddduudddddddddddddedddddddddddddddddddddddddddddddddddddddddddddddddddddddddddddddddddddddedddEEeeddeeeeeeuuddDDuveeeeEEeefedeeededuuwafadddfdfdavueeeeFFfadfdddfdeadeeeeeeeeeeuudddfdffadfuwfdafdfffdauwffdfffdfuwdfdfdddddvvdeeeEEddeefdedfdefffddfdfdwuaffffefafdauwfdffdfdadfwwafdfaddfffwufdfdfdfdDEeeefEDddeedeeeeedfdfdfdfdfdwwfdaffadfffwvaaffffadeafduudfffdadfafduwaffafdafffdEEeeedEEefeededeeeFDafdfdffafduufdfafdafdfdawwafdffdfafdawwfffdfdfdvufffffaffaffaddededEEdedededeeeFFaaffaaffaaffaaffaawwaaffaaffaaffaaffaauwfaaffaaffaaffaaffafwwafffaaffaaffaaffafvvdeeeFFaaffaaffaaffaaffaaeddefeeedeeeuwfaaffaafffaffaaffaawwaaffaaffaaffaaffafwwaaffafffaaffaaffaauwfaaffaaffaaffaaffaaEEeeeeEEedfdfeefdfFFafffaaffaaffaaffaawwaaffaaffafffaaffaauwfaaffaaffaaffafffaawwaaffaaffaaffaaffaauueeffdfaaffaaffaaffaaffaaEDdeeeedededuwfaaffaaffaaffafffaawwaaffaaffaaffaaffaawwaaffaaffaaffaaffaauwfaaffaaffaaffaaffaaEveeedDEddedeefddfaaeeffaaffaafffaffaawwaaffaaffaaffaaffaauwfaffaaffaaffaaffafwwaaffaaffaaffaaffaawwaaffaaffaaffaaffaaeEdeefDDedededfdedDFfaaffaaffaaffaaffaawwaaffaaffaaffaaffaawwaaffaaffaaffaaffaauwfafffaaffaaffaaffaauuedeeFFaaffaaffaaffaaffaaeeededeedeeewwaafffaffaaffaaffaauuDFfaaffaafffaffaaffaawwaaffaaffaaffaaffaawwaaffaaffaaffaaffaaFDeedeEDdddedeeedeDFfaaffaaffaaffaaffaawwaaffaaffaaffaaffaawwaafffaffaaffaaffafuwffaffaaffaaffaaffaavveeffaedaffaaffaaffaaffaaEEeeddfdedeewwaaffaaffaaffaaffaauwfaaffaaffaaffaaffafwwaaffafffaaffaaffaawwaaffaaffaaffaaffaavvdeddDEdddedfedfaedafeefaaffaaffaaffaawwaaffaaffaaffafffaawwaaffaaffaaffaaffaauwfaaffaffaaffaaffaawwafffaaffaaffaaffaaEEeeddDDddeddedeeeFFaaffaaffaafafaffaauwfaaffaaffaaffaaffaawwaaffaaffffffaaffaauufdffffdfavveedeDfdfdfdfffdaEEdeeeeeefeewwfdaddfaddduufeaafdfdfduwdffadfafdafdwuafffdfdafduueeeeFDfdfdfdfeaaeeeeededeeeduudfdfdfdffauufdfdfdfdawufeaadfddfduudfdffaffffavveeedEEeefddfeeafefdedadefdfaduwafdfdfdffuwfdfdfdfdfduuffadfdffdauwfdffafdffEEedddEEeeedefedeedddddfdfdfduuddfdafdfduwaffaffafdffuufafdfdfdfdwuafdfdfdfdDEededDEdeeeeedeeeFDfdafdfdfduwffdffadfafdauufdfdfdfduuddfdddfduudddfdafdfdEEddddDEeedddeeeedFFfffaffadfdfwuafdafdfdfdauwdaffafdafdedawrdfdfdfdfdwwfdfdfdfdedeeeeFEeededdeedeDDfafdfaddddduwfdafdfdfdwuafdddffdfuwdddfdddfduuddddddddddddedddddddddddddddddddddddfeddddddddddddddddddddddddddddddddddddddddddddEDeeeeEEeefeeefedfuuvEeeeeDDefeeeeeeffuFuafdfdedafdwveeeeDFDffeeffedadefdeefdaeeeewuffddddfduuddddfdfduwdafdffdfdfdawufdddfdedaFEefefEEdeeeefefeeddfdafdaffffuudffafdfdfdwufdfdafdffawwfdfdfdffauufafdfdfdffFFdeeeEDeedddeefddFFaafffaffaaffaaffaawwaaffaaffaaffaafdauwfaaffaaffaaffaafffawwafffaaffaaffaaffaawwaffafeffaddaffaaffaaffaaDEeddfeeeeeduwfaaffaaffaaffaaffaawuffadfaffaffawwaaffaaffaaffaaffaauwfaaffaaffaaffaaffafvudedeFFaaffaeeadefeefaedafddfaafedfaawwaaffafffaaffaaffaauwfafffaaffaaffaafffawwaaffaaffaaffaaffaauwafdafddfaffaDDedeeEDeeeeededdeDFdffffaffffwwdfafdfdafdwwafdaffffffauwffdaffffffwwafdafdfdfdedeedeDEeededeeedeFDafdfdafdfduwfaaffaaffaaffaaffaawwaaffaaffaaffafffaawwaafffaffaaffaaffaavuddeeDFfaaffaaffafffaaffaEDdddeeededdwwaaffaaffaaffaaffaawwaaffaaffaaffaaffaauwfaaffaaffaaffaaffaawwaaffaaffafffaaffaaDEedddDDeedeeddeddFFaaffafffaaffaaffaauwfaaffaaffaaffaaffaawwaaffaaffaaffaaffaawwaffaaffafffaaffaauwfaddddaffaedaffaaffaaffaaEEddddeeddddwwaaffafffaaffaaffaawwaafffaffaaffaaffaauwffaffaaffaaffaaffaawwaaffaaffaaffaaffaauudddeDDfddfddaaddffaeeafeefaaffaaffaauwfaaffaaffaaffaaffaawwfaffaaffaaffaaffaawwaaffaaffaaffaaffaauwfaaffaaffaaffaafffaDDdddeEEddddfdddeeFFaaffaaffaaffaaffaawwaaffaaffaaffaaffaauwfaaffaaffaaffaaffaawwaaffaaffaaffaaffaauuddddFFaaffaaffaaffafffaaddeededddedduwfaaffaaffaaffaaffaawwaaffaaffaaffaaffaawwafffaaffaaffafffaauwfaaffaaffaaffaaffaaDDddddEEeddefeddedFFaaffaaffaaffaaffaawwaaffaaffaaffaaffaauwfaaffaaffaaffafffaawwaaffaaffaaffafffaavvfeefafddffaaffaaffaaffaaEDdddddddddduwfaaffafffaaffaaffaawwaaffaaffaaffaaffaawwaaffaaaffaffafffaauudefadfaffafduueeddFDfdedfdeadeefdeeffaeeeewufdffaffafdauwdfdaddfddduufdfddffduwfeaafffffdDDeffdDDddddeeeddddffadfdfdfdfwufdfdedafdwwafffaaffaaffaaffaauwdfdfdffadeawuedafdafdfdDDeeddEDededddddddDDfdfdfdafduwdfdfdfdfdwufdfdfdfdawuafdfdfdfduufafdfffdafdDDfeddEEeeddddddddDFffdfdafdfduwddddfdfduudaedfdedaaafrrdfdefafdafeuueeaeadefaddfdfddfaDDedddedaEAddvwdfdfddedaaadwuaedafdddfdwrdfdedaedafduwfffdfdfdfwuefddDDddfefdddfdddfddeedaaAFuwafdfdfdafdauwffdfdfdfdddwufdafdfdffwuddfdfdafdDEffddEEedeeddddddDDffdfdfffdawuddfdfffeawwfdfdafdfduwfadeadfdffdauuddddddddddfdfdddddfddddddddddfaddddddddddddddddddddddddddddddddddddddddddddddddddddddddddddddDEddefDDedeeeeffeeuuvueeeeEEdeeeededeeuwwffffDfdafdafdffafdaFFffffffafaffuwdfdfafdafduuddfdfdedauwdafdfdfdfduwfdfdafeafdawwffffDFfaddfdaddffFFffffffffffwwfffdfdfdvwaffdffafffdauudfdfffffdwwdffeafdfduueedeFFafedfeefaeeafddfaedafedfafffaauwfaaffaaffafffaaffaawwaaffaaffaaffafffaawwaaffaaffaaffafffaauwefdffdafdfdDDeeddDDddddddedddFFaafffaffaaffaaffaawwaafffaffaaffaaffaauudfffffeaaffawwfdaddfddduwdfdefdfaddfeaafffdaDDdddddddddewwaaffaaffaaffaafffawwaaffaaffaaffaaffaauwfaaffaaffaaffaaffaawwaaffaaffaaffaaffaauuedddDFfaafddfaeeadeffaedafdefaaedffafwwaaffaafdafdfdwwaaffaaffaaffaaffaauwfaaffaaffaaffaaffafwwaaffaaffaaffaaffaaEEeeddDDddeddeddddFFaaffaaffaaffaaffaauwfaaffaaffaafffaffaawwaaffaaffaaffaaffafwwaaffaaffaaffaaffaauufedddffaaffafffaaffaaffaaEDdeedddddeewwaaffaaffaaffaaffaawwaaffaaffaaffafffaauwfaaffaaffaaffaaffaawwaaffaaffaaffaaffaaDDeeddEDddeeeddddedffaaffaaffaaffaaffaawwaaffaaffaaffaaffaawwaaffaaffaaffaaffaauwfaaffaaffaaffaaffaawwaaffaaffaaffaaeefeefaaddDDdddddddddewwaaffaaffaaffaaffaauwfaffaaffaaffaaffaawwaaffaaffaaffaaffaawwafffaaffaaffaaffaauueeddDFfaaffaaffaafddffddadeffaedaddeewwaaffaaffaaffaaffaawwfaffaaffaaffaafffauwfaaffaaffaaffaaffaawwaaffaaffaaffaaffaaEDdeddEDdeeeddedeeFFaaffafffaaffafffaauwfaaffaaffaaffaaffaawwaafffaffafffaaffaawwaaffaaffaaffaaffaauveededffaaffaaffaaffaaffaaDEdeeeeeedefwwaaffaaffaaffaaffaawwaaffaaffaaffaaffaauwfaaffaaffaaffaaffafwwaaffaaffafffaaffafEDdeedDDefeeeddddddffaaffaaffaaffaafffawwaaffaaffaaffaaffafwwaaffaafffaffaaffaauwfaaffaaffaaffaaffaawwaaffaaffaaffaaffafdefeddDDdddeddeedeFFafffaafffafffaffaauwfaaffaaffaaffaaffaawwaaffaaffaaffaaffafwwaaffaaffaaffaaffaauvfeddDFfaaffaaffafffaffeefaddaeedeeeeduudffffffdwwaffaddfdafdauwdafdfdfddfuwffaffadffdaEEddeeEEeeeeddeeefffaafffaffaaffaaffaauwfaaffaaffaaffaaffaawwafdafdaffadfwuafffdaffafdauufaffaffdffdEEfefeDDdeddddddeeFFffadffdffuwffdedafddduwdafdfdddfdwufdffdffdawwafdfdffaffddeeeeEEeeffeeedddDFfafdaffafffdwuafdfdfdafadwuaffafdafdfduwffdfdfdfduveeddfdfdfffdaedaEDddeddeddeduwafdafdaffaffuwdffdfdfdfduwdfafdafdfdwwadfdffdaffauufeddDFfafdafdfdfdDDeedfeededewufdfdefaffauwffdafdfdafduudfdaddfdfduufdfdaddfduveeeeDDfffdfdfeededeeeeeeeeuudfdfdafadfduufdfdafdfdwuafdfdffdffauwfdffdfdffaDDddddddddddddddddddddddddddddddddddddddddddddddddddddddddddddddddddddddddddddddddddEDeeeeEDddeededeedddeefffdffauvveeeeDEEeeeeeeedeeuvveeddEEeeeefefdeeFFfdafdfdfduwdffdfdddfduufdaffafdffwwaaffaaaffaffaaffaauufafeddddaaeeedfdfdEEeeeeedeeddwwfaffaaffaaffaaffaawwaaffaaffaaffaaffaauwfaaffaaffaaffaaffaawwfaffaaffaaffaaffaavvfeefDFFaaffaaeefedfaedafeefaeeaffeaeawwaaffaaffaaffaaffaawwaaffaaffaaffaaffaauwffaffaafdafdadfwwaaffaaffffffaffffaEFeeefEDeddddddeeeFFfaffaaffaaffaaffaauwdafdfdfffdawvaffaffadfaffauufdfdfdfduwfaffaffeffaeeaffdfaaffaaEDdeffefeeeewwadfffdfdffwwaafffaffaaffaaffaauwfaaffaafffaffaaffaawwaaffaaffaaffaaffaauveedeDFfaaffaaffaaffaeefedfeefafadededwwaaffafffaaffaaffaaudvvfeddDDedeeefffeduuvueefeEEeddeeeeedeuuvveedeDDeDfeeedeeffeuuudddEEffdeDDDdddddddddddeedeeeedeeuuvveeefEEfdeedefeffeuuwvdddeDDEdeefeeeeeeuvuddedFEedddedeedeuDuuEefeeEDedeeeefeeeuEveeffEEdedfeeefedeuuDveeedEEeeeeeeeeeeuuwveeddEDdeeededdeeuuuvEfeeeEEefeeeeeddeDudwDeeeeDEdeedeeeeedDuvueefeEEedefdeeeeeuuvwffddedEEeeeededeeeuuuefefdDFedefdeeeeduDuuddddddddddddedddddddfdddddddddddddddffddddddddddddddddddddddddddddddddddddddddddddEEeefeEEeeefeeeeeeuvvvefeeEEeefeeeeeeeuvweeeeDEEefeeeefeeeuvvedeeEDefdeedeeddDuuveeeddEDeeededdddeuDufedeEEddddddedeeDuvueeddEEededdeeeeeuuvwffdeDEeeeeeeeeeeuuvEffedDEdedeedeedfuDveeeeFEdeeedfedeeFuvveefeDEDedddeeeddduDvueeddDEEeeefeefdeeuvveeeeEDddfeeeeeeduDuuvEedefEDeedeeeeeeevEufffdEDfedeedeeeeeduvveefeEEeeedeeeefeuuvvffddeeDEDeedeeeeeeeuvuefefEEeeeeeeeeefuuwEffedDEeeededeeefuEveeffEEddfedeeeefeuvwfffeEDfeedffeefduvvDffedEEeedeeeeddeufvfeeeEEddeeeeeeeeFuvveeeeEEeeeddefefeuuuudddddddddddddddddddddddddddddddddddddddddddddedddddddddddddddeddddddddddddddddddddEEfeeeFEeeeedeeeefuuvEeeeeFEeeeeeeeeefuEvffffDEeeeeeefeeffuduveefdEDeeedeeeeeeuuvEdeedEEeeedefeedeuDwfefeEEdfededddeeduuEvfeddEEeedeefeedeuuwueeeeEEeeeeeefefeuuvEeeeeFEdedeededfduFveeeeEDdeeedddedeeuvveeeeEEeeefeeddfeuuvveedeeFDedfedddeeeuuDueffeDEefeededeeduuvvfdeeFEeddeeddeeeuuvEeeeeEEedeeedfedduwveffdDEFeeefeeeeeeuuEvfefeEFeeeeeeefeeuuveeeefDDdeeeedeeeduuvveffeEFefeeeeeeeeuuuEFefdeEEeeedfedeffuEvfeeeDEDeeeeeeeeeeuvveffeaEFeeefdedddeuuuvEeeeeEEeeeeeefedeueveeeeEEeeeeeeeeeeDuuDddddddddddddddddddddadddddaddddddddddddddddddeeddddddddddddddddddddddddddddddddddddEEeeffEEeeeedeeeeeuDudDDdddddddddddddddddduvfefeeFFaaEEuuddDDuueeeeEEeeeeeeedeeDuvveeeeDDdedeeeeddeuuuddeedEEeeeeeedeeeuuueeddDDedddeddedduuuuDdeeeDDdddddddddeDuvuddeeDDDdddedddddduuuddedDDddddddeedduuuDdeddDDddeddddddduDuuddddDEdeeeddddddDuuuddddDDddddffddeeuDvuddddDDDdddddddddduvvededDDdeeeeeeeeduuuuEeeeeEEeeddedddeeudveeeeEEdeeddeedeeDuvuddddDEdeededdeefuuuEvdeedDDeeedeeeeddduvveeeeDDEEeeddededeeuuddDDDddddddddddddddddddddDDdddddDDddddddddddddddddddDDDDDDDDddddddddddddddddddddddddddEEeedeDEEeeedeeeeeduudDuvueedeDEedeeedeeeeuuvDeeeeEEedddeddeeeuEuededDDDededdedfdduwuefdfDDeeeeddeeeeuuuudddddddddddddeddddddddddddddddddddddedddddddedddddddddddddddddddddddddddddddddddddEEeeffFDeeeeeeedefuuuEeeeeEEeedeefeeeeuEweeeeDEEeeeeeeeeeeuuddDddddddddddddddddddddddddddddddduuueeeeDEdefeedffeeuuwDedeeEEeeedeeeeeeuFueeddDDeedeedddddeuuueddeEDeddddedeeduuvDeefdEEededeeeeddueveedeDDEddddfeeedduvuededDDddddeeddeeuuvuddddDDddededdedduuvDeeedDEdedededeefuEwddeeEDeefddddeedeuuueeeeEDededeeddeeuuuDeeeeDDeddddeeeeduEveeddDEeedeedddedDuvueeeeEEeeeeeeeedduuvvddeeDDdeeeefddeduuvEeeedDDeeeddeddeeuEueeeeDEdeeedddeeeduuveefeDDeeeddddddduuudddddEEdeeddddddeuuvedeeEEddddedededuuvufedeDDefdeddeedeuuuddddddddddddddddddddffddddddddddddddddddddddddddddddddddddddddddddddddddddddddddddEEfeedDEEeeeefffffeuuveeddFEeedeeeeedduuvveeeeDDedeedeededuvveedeDEDdddedddddeuuuefddDDeededeeedduuudddddddddddddddddddddddddddddddddddDDDDdddddddDDdDdDddddddddDDededEDdfddededdduuveeedDEDddeddddddeuvufeefDEeddedddddduuvEeeddEDedeedddddduDvedddDDeddededeedeuvveeeeEEfeeeeeeeeeuuvEeeeeEEeeeeeeeeeduEvfeeeEEeeeeeeeeeeDuwvfeeeEFddfeeeeeeefeuuvvfeeeFEeeeeeeedeeuuvEeefeFFeeeeeeeefeuEveeeeFEeffeeeffeeduwweeefEFeeeeeeeeffuuvffeeeEEeeeeefeeeeuvvfeeeEEeefeefeeeeuuwveeeeFEeeeeefeeeeuvveeeeDEEeeeeeeeeefuvvfeeeEEeefeffaaeefeuuwEffaaefEFeffeeefeeeuDuddddddddddddddddddddddddddddddddddddddddddddddddddddddddddddddddddddddddddddddddddEFfefeDFFefeeeeeeeeuvvefffaEEeeeeeefffeuuwFefeeFEeffffffeeeuvweefeDEEffeeeeffefuvvefeeFEfeeefeefefuuvEefefEFeeeeeeeeeeuEveedeEEeeeeeeeeeeduuddddddddddddddddddddvveeeeEEfeeeeeeeeeuuvEeeffEEeeeefeeeeeuEveeeeEEeeffeeeefeDuvweeeeEEeeeeeeeeeeuvveeeeDEEeeeeeefeeeuvveeeeEEeeeeeeeeefuuvEeeffEEeeeeeefeeeuvvffeeDeEeeeeefeeefuvveefeEEeeeefffffeuuvFffefEFefeeeefeeeuFwefefDFfffffeeeeeeuvvfefeFEeddeeeeefeuuvFeeeeFEeffeeefeeeuFwaaffffffaaDFFffffddddffaauwwaaffaaffffFFffffafdddffaauuwwffaaffDDddddffffffauuvEefffEEfeddeeeeeeududdddddDDddddddddddddddddddddddddddddddddddddddddddddddddddddddddddddddddddddddddddEEefffEEdefeeeefeeeuvveeffFEffffffaeeefuuwFeeefEEeeeefeeffeuFweeeeEFdeeeeeefefeuwvefffddEEeeefeeeeeeuuvEeeeeEEeeeeeeeeeeuewffeeDEEfeeeeeeeeeuvveeeeEEeeeeeeeeeeuuwveeeeEEeeeeeeeeeeuuuddDddddddddddddddddDDDddddDEdeeeddedeeuEveeeeEEeeeedeeeeeeuvveeeeEEeeeeeeeeeeuuvEeeedEEefeeeeeeefuevefeeEEeeeeeeeeeeDuwvfefeEEeeeeeeeeefuvwfeeedEEeeeefeeeeeuvvefeeEEeeeeeeefeeuuwveeeeEEefeeedeeeeuvvffefDeEeeefeefeeeuvveeeeFFeeeeefefeeuuwEfeeeEEeeeeefeeefuEvfeeeDEEeeeeeeeeeeuwwffddeeEEeefeefeeeeuuvEffeeEEeeeeeeeeeeuDuddddddddddddddddddddddddddddddddddddddddddddddddddddddddddddddddddddddddddddddddddEEeefeEEeeefeefeffduvveeeeFEeefefeeefeuuvEfffeeEFeeeeefeefeuEveeeeEFeeeeefeeefduwveeeeEFeeeeeeeeeeuuvefefeEEfeefeffeeeuFwffeeEEeeeeeeeeeeDuvveeeeEEeeeeeeefeeuuuddddDDDeedddddedduvveeddDDddddeeeeeeuuvDeeeeDDeeeeedeedeuuuddddddddddddddddddeeeeeeDEEeeeeeeeeeuvvefeeFEeeeeeeeeeeuuvEfeeeEEeeeeeeeeefuFveeeeDFffeeeeeeeefuwveefeEEfeffefafeeeuuvFeeeeEEeeeeeeeeeeuFvddffeeFFeefefeefffDuwwfeeeEEefeeeeeeeeuvwdeeefDDeefeddfffeuvvfeefEFeeeffefefeuuwFffefEFfefeffeeeeuvveeedDeEedeeffeeeeuwwffeeeFFeeeeeeeeeeuuuddddddddddddddddddddddddddeddddddddddddddddddddddddddddddddddddddddddddddddddddddddEEffaffEFeeeeeeeefeuFvffefDFEefefefeeefuwweeefFFeeefeeeeeeuuwFffeeEEeefeeeefefuFwfefeDEeefefefefeeuvvffefEFeeefeefeefuuvveeeeEEeeeefeeeeeuuvEeeeeEEeeeeeeeedfuvveeeeDEEdddeddfddeuuvddedDEdeeddeddeeuuvDeeeeDEdedededeeduEveeeeEEeeeeeeeeeeduvveeeeEEeeeeeeeeeeuuveeeeeEFeefeeeeeeeuFvfeeeFFaeeeeeeeeeeDuwvefefFFeefeeeefeeuudvweeeeEFeeeeeeeeefDuwwfffeFEeeeeeeefefuuwveeeeFFeeeeeeffeeuuuddddddddddddddddddwwdefeeFEeefeeeefefuFvfffeEEeeeeeeeeeeDuvweeeeEEefeffeffefuuwvefeeEFeeefeeeeefuuvEffeeEEeeffeffeeeuDudddddddddddddeddddddddddddddddddddededddddddddddddddddddddddddddddddddddddddddddddFFeeeeEEeefeefeeeeduwweeeeFEfeeeddefefuuwveeeeEEffefeeeefeuuvEefeeEEffeeeeeeeeuwwefeeDEEeefeefeefeuvveeeeEEeeeeeeeeeeuuwweeeeEFefeeeeeeeeuuvEeeeeEEffeeeeeeeeuuvedddDeEeeeeeeeedduvveeefEDdeeddddeeeDuvveeeeEEeeeefeeeeeuuvveeefFEeeeeeeeeeeuvveeeeDEEeffefeefeeuFvffedEEeeeeefefeeDuvveeeeEEeeeeeeeeefuuvweeeeEFefefdeeeeeuwvffdeeEEfeeeeeeefeuEvffefEFfeeeefeeeeDuvveeefEEeeefeeeeefuuvweeeeFFfeefeffeeeuuwEeeeeEFeeeefeeefeueweeeeEEefeeefeeeeDuvvefeffEEefeeeeeeefuuvvefdeeFEfeefefeeeeuuudddddddddddddddddddddddeddddedddddddddddddeddddddddddddddddddedddddddddddddddddddddEFffeeEEeffeeeeeeeu#440wsfaFFaaFfaaffabFFbaFFaaFbfafaFFaaFFaaFFaaFfaaFFbaFAFAFAFAFAFAFAFAFAFAFAFAFAFAFAFAFAFAFAFAFAFAFAFAFAFAFAFAFAfaFAFAFAFAFAFAFAFAFAFAFAFAFAFAFAFAFAFAFAFAFAFAFAFAFAFAFAFAFAFAFAFAFAFAFAFAFAFAFAFAFAFAFAFAFAFAFAFAFAFAFAFAFAFAFAFAFAFAFAFAFAFAFAFAFAFAFAFAFAFAFAFAFAFAFAFAFAFAFAFAFAFAFAFAFAFAFAFAFAFAFAFAFAFAFAFAFAFAFA0v0vveEDddeeeededvveeeeEEeeedeeeeddwrfavwfeeeEEedeeeddeddvvdedeDEdeeeeeeedduveeeeDEeeedeeeddevvfeeeDEdddeeeeedduueedeEEeedddeedddvueddeDDdeeedeeddduudddeEEeddedeeeddvvedeeEDdddddededdvvdedeEEfefeeeddddvuedddEEeeeeeddddduuededDDdddeeeedddvveeeeEDddddeddddduudedeDDdddddddddduuddedEDdddddddddduuddddDDeeddddeddevuddddDEdddddddddduvdeddDDdedeeeeeddwwffffffffwwffffffffwwfffefeffDEddedDFfffffffeEddeedeeddduwfdffdwweadffewvfefffeffwvfedffauwefafeffuwafafeeaEDedeeEEeeddddeeddfffffefeffwwafffefewvfafefaffwwdfefffewrfeffffawrffffffuufafeedfeeeeDDedeeddedddDDdffdwwffafduwafeffffuuffffduufafaffuwefffafavudddeDDdfefEEeeeeeededdDDfffafewwafeffeuufefffwvffffffffwwffffffffuwffaffffDEeeeeDDfafefaEEeedeeeeeddwrfefefaffwrffdfafeuudddwwfefafefauufafdwwfffefeffEEeeeedDDfaeefeddefeeeefddawwfeffffffwwfefaffewwfafffeffwwffffffffwvfffefffewwfffefefededeeeEFeeeeeeeedeFFfefffeffwwfeffffffwvfffefefewwfffefefewvfffeffffwwfeffffffvveeeeFFfefffeffEEeededeeeddFFfefeffffwwfefffefewwfefffeffwwfffefefewvfffffefewvffffffffEEeeeeFFeeeefeeeeeeeddfeffffwwfffefffewvfeffffffwvfefffefewvfeffffffwwfefeffffwwffffeeeefeefffFDeeeeeeeeddFFfefeffffwwffffffffwwfefffeffwwfffffffewvfffefffewvfefffffeEEeedeFFfefffffeEDdeddeddeddwvfefeffffwwfefffffewwfffffffewwfffefeffwwfefeffffwwfffffeffDEededDDeeddeededdfefefefefewwfefffffewwffffffffwwfefffefawwfffffeffwwffffffffvvfeddeefefffeffEEeeeddeeeddFFfedfffewrdfafaffuwffffedwwfeffffffwwfeffffffwvfefeffffEEeddeFFfefeffffEEddeedededdwwfeffffffwvfffefeffwwfffffeffwwfffffffewwfefeffffwwfffefffeEDedeeEDeedeeedddeffffffffffwvfefefefewwffffffffwwfefffefewwfefefffewvfffffeffuudeeefeffffffffEDedeeeedeeeFEfffeffffwwfefffffewvfeffffffwvfffffefewwffffffffwwfffefefeEDeeedFFfffeffffEDeddddeeeeewvfffeffffwwfffefeffwvfffffeffwvffffffffwwfefeffffwwfffffffeDEeeddDDddddeeddddFEffffffffwwfefeffffwvfffefeffwvfeffffffwwffffffffwwfeffffffuuddddFEfffeffffDEddedddddddFFffffffffwvfffeffffwvfffefffewvfffffeffwwfefffffewwfffffffeDDdddeFFfeffffffddddddddddddwwfffefefewvfffffeffwvfefffeffwwffffffffwwffffffffwvfffeffffDDddddDDddddddddddFEfefffefewwfffeffffwwfffffeffwwffffffffwwfefffffewwfffefeffuuddddFFfffffefeDDdddddeddddFFfefffffewvfefefeffwwfffeffffwwfefffffewwfeffffffwwffffffffDDedddFFfffeddfddddeddddfddfwvfefffeffwwfefffffewwfffefefewwfffffeffwwfffefffewwfffffffeddedeeDDddddddddddFEfffefeffuwfffeduvafefaffwwfeffffffwwfffffeffwvfefffffevveeedFFfffeffffDDdddddeddddFEfeffffffwweffffewwffffffffwwffffffffwwfffffffwwffafffeDDedeeDFeffffddfddddfddddeduwefeffffwwdfefffawvfafffffewwfefffffewrfffafffewwffafaffEEeeedDDddddddedddFFffffffffwvfffeffffuufaffffuweddfawvfffefffewwfefefefevuedeeFEfffefffeDDddddddddddEAfefafaffwwffffffffwvfffffeffwwfffeffffwwfffffefewwfefffffeEDeedeFEfffeffffddddddddddddwwfffffeffwvfffffeffwvfffefffewwfffffefewwfffffeffwwfffffefffFffaffaddFFaffddffffffFFfffeffffwvfffefffewwfefffffewwffffffffwvfefffffewvfefffefevvdfeeFFfefefeffEEeeeeeeeeeeFEfeffffffwvffffffffwwfefeffffwwfefefeffwwfffffeffwvfeffffffEEeeeeFFfffeefdefeeeefeefddfwvfffffeffwvfefffefewvfffefefewvfffeffffwwfefefffewwfffefffddfddefDDdddeeddeddFEfefffeffwwfffffeffwvfefffffewvfffefefewvfefffffewwfefffffevvddedFEfeffffffDEeeeeeeeeeeFEfefefefewwfffffeffwvfffeffffwwfffffeffwvfffffffewvfffefeffDDdeedDEddfdeeeedefedfffffffwvfffefffewvfffefeffwwfefefffewvfffeffffwvfefeffffwvfedeeefedefefeEDeeeeedeeddFFfffefffewwfffffffewwfffeffffwwfffffeffwvfffffefewwfeffffffEEedddFFfefefefeEEdedeeddeedwwfefefefewwfffefeffwvfefffeffwwfffeffffwwfefeffffwwfffefeffEEdeddEDedeeeeededfefefeffffwwffffffffwwfefffffewvfffffefewvfffffffewvfffffefevvededfffefefefeEDeededddddeFFfeffffffwwfeffffffwvfeffffffwwfefeffffwvffffffffwvfefffeffEEeeeeFFfefffefeEEdeeeedeeeewwfffefeffwwffffffffwwffffffffwvfefffffewvfefefffewvfffffffeDEeeeeDDedddddddedFEfefffeffwwfffeffffwwffffffffwwfffffefewwfffffffewwfefffeffuuddddFFfffeffffDDddddddddddFFfffefffewwfffefffewvfffefffewwfefefffewvfffeffffwvfefefeffEEedddFFfffeffffddedddedddeewwfffffefewvfefeffffwwfeffffffwwfefffffewvfffffeffwvffffffffddedddDDddddddeddeFEfefffefewwfefffefewwfefefffewwfffffefewwfefffefewvffffffffuvedddFFfefffeffDDedddddededFEfffeffffwwfffefeffwwfffefffewvfffeffffwvfffefeffwvfefffeffDDddddFEfffddfddfddddeddedffwvfffffffewvfefffffewwfffffeffwwfefffeffwwfefffffewwdddddededeDDddddddddddFEfffefeffwwfeffffffwwfeffffffuufafduufaffduwaffffffuvfedeDDdfffDDdddeddddddDFafafafauufafafewrfefefaffwvfefefefeuweeafeffwwdddfaDDedddFAfefafffaDDddddddddddwvfaffddwwfefdfawwfafafafauuddffwwfffaffawvfefefafeEDeedeFFfeddfddddddfddfedffwwfefffafeuwefafeffwwffffffffuufdfewvfedfafauwdddDDeeddDDddddddddddDFffafaffuuffaffuwffffafauwafffafuufafffeuwefaffffvvdedddffdddDDdddddddddeDDfffffeuufefffwvfafafafawwffffefauwafdduufffaffvveeeeFEdddfaEEdddddeeeddDFefafafeuvafffafeuwfeafafawrfffafafwwdfffeffwrfefffefFDeeedDFffafefaDDfdedddeeeewwfafafffuuddfuwffafffauudfduwafefefewwfefffffeEEeeeeEDddddddfeefddfefafefewvfaeadduwafeffawvdfffafwwdffffdwvfafffaffwrffffdfeeeeeddEEddddddeeedFEffffffffuufffaeawsFFfffaffffuwafafffauudfedwwefffffuveedeDFefaddDDdddddeefddFFfeffefauuffdfewrfaffaffuufaffawwdfaffeuwfafffeEDeeedFAffffffdDDeddddddeddwvfafffffuwffefafeuufffedwrfafefafeuwefafffewwfdfefeEEeeddDDeededdddeedfefffefauuffdfwvfefefffewvfffffefewwfffffeffwwfffeffffwwffffeefeeefdefEDeddeddeeddFEffffffffwvfefffeffwwfffffeffwvfffffffewwfffffffewwfefffffeEEeeedFFfffffefeDDeeddddeeddwvfffeffffwwfefeffffuwffafaffwvdfedfwwfeffffffwwfffffefeDEedeeDDffeeefddfeeddeffffffwrfefffeffuwafaffffwvfffefefewwfffffeffwvfffffffewwfffefeefffdeffDDededddeeddFEfffffeffwvfefefeffwwfffffeffwwfffffeffwvfefeffffwvfeffffffEDdedeFEfefefffeDDdeeeddddddwwfefefffewvfffffefewvfefffeffwwfefeffffwwfefefffewwffffffffEDedeeDDeddddeddddfefefefefewvfefffffewwfefffffewvfffefeffwwfffffffewvfffffeffvufdeffddffeffffDDddddddddddFFfefffefewvfeffffffwwffffffffwwfffefffewvfffffefewwfefffffeDEddddFFfefefffeDDddddddedddwwfffefeffwvffffffffwwfffffeffwwfefffefewwffffffffwvfefeffffEEedddDDdddedededdFFfefefeffwwffffffffwvfefefeffwvfffffffewvfffefeffwvfefffefevveeeefefefffefeDDdedddeedddFFfffefeffwwfefeffffwwfefeffffwwffffffffwvfefffffewvfefefefeEEeeeeFEfffffffeddeeeeeeeeeewvfffffefewvfefefefewwfffefffewwfffffffewwfefeffffwvfefefeffEDeeddDDedeeeeedeeFEfefffefewvffffffffwvffffffffwwfffeffffwwfefafeffwvfffaffffuueeddDDfffffaDDdeddddddddFFfffefafauuddffuwafffeffuwfafaffuwafffafwrfefffffeEDedddFFfddffDDddddddddddwrfffffduwfffffeawrfafafffewwfffffffewrfafffeffwwfafafeffDEddddDDddddddfddddedfffffwreafafaffuwefafefauwfddfauwffffefuwffedfewwfefffafeeededeDDeeddddeddeDFafaffdwwdddduwffafffawudddwwfffefaffwrfefffafeuuddeddfafafefeDDddedddeeeeDDfaffffuweddffuwefafeffwwfafffefawvfefffffauwafefafaEEeeeeFFfeffffdDDedeeedeedeuwefffafeuwefffaffuuddffuudddwvfffafaffuudfefaEEeeffeeFAfefffefeefeeeeeeeeeewwfffffafauuffffffuwddffuufafffewrfefefefuudfafaDEeeeeEEeeeeeeeeeeFFffffafauufafeffwvfafffffuwfffddwrfffefefewwfafffeffwreefaeeffeefafaEEeeeeeeeeeeDFfffaffuwefffffauwefefefauwffeddwvfafefffauudfffauveeedDFedfffEEdeeeeeeeeeFEfffffeffwwfffffeuwfffdfewwfafffaffuudfafauwffefefeEEeeeeDFfffffeeeeeeeeeeeewrfffaffffwvfefefffeuwafdffuwfffefwvfffefeffwwafffefeEEeeeeEEeeddeeeeeeFFfaffffdwvfefefffewwfffefffewvfffaffffwvfefffefewwfffefefeuvddddfefffffeffDEeedddeeddeFFfffffeffwvfffffeffwwfefffffewwfeffffffwwfefffffewvfffffeffDDeeeeFFfefffefedDeeedeeedeewvfffffffewwfefffefewwfffefeffwwffffffffwvfefeffffwvfeffffffDEeeeeEEeeeeeeeedeFFffffffffwwfffefffewwfffefeffwvfffffffewwfffffeffwwfefefeffvveeeeFefefffefeDEeeedeeedeeFFfefefefewvfffefefewvfefffefewwfefefeffwwffffffffwwfeffffffDEeeddFEfefffefdefdddedeeddewwfffefffewvfffefeffwvfffeffffwwfffefeffwwfefffefevwfffffefedddedeEDddddddddddFEfffffffewwfefeffffwvfefffefewwfffffffewwfefeffffwvfffffefeuuddddFFfffffeffDDdedddeddddFEfffefffewwfefefffewwfffffeffwwfefefefewwfffffeffwwffffffffDEdeddFEfeddfddedfddfeeddffewwfffffffewwfffefffewvffffffffwwfefffefewvfffeffffwvfffefffddeedddDDddddeeddddFEfeffffffwwfeffffffwwfffeffffwwfefffefewvfffefffewvfeffffffvwddddFEffffffffFFffffaffaaffeeFFfffffffewwfefffffewvfffefeffwvffffffffwvfffffffewvfffeffffFFffffFFafffffffaefffffffeffffwvffffffffwvfffffefewvffffffffwwffffffffwvfffffeffwwfefffffaaefffeffFFaffffffffaffaFEfefffefewvfffefefewvfefefffewvfefefefewwfffefeffwvfffffffeFFffaaffFFfffffffeFFffffffffffwrfefffefeuuddffuufefaffwvfffeffffwwffffdduufffafaFFffffDFfdafffffaeffffafffaafwwfefefeffuwfafafeuwfffefeuwefefefewwfffffeffuufefefaFFaffaaffFFfffffafffffFFfefffeffwvfffffdwwfafffaffwwffffffffwwffefaffuuffffauuddedfffafaffffDEededddededFAfddfauwfffddwrffddfuufefeffuuddffwwfffffdEEeeddDFefafefeDEddddeeddeewFffffffeuvafafafawwdfefffawwffdfffeuwffefefewwfffffefeDDddedFFdeffeedefedeeefdeefewvfffefeffwvfeffffffuuffefawwafddwwffafeffuwefafeffdeddeedeDEeedddeeeeeFFafffafawudfffauwffffffewrfafefafuwfafffewvfafffafavueedeeddddEDeeeeeeefedDDdfefauwefffffwwafffefwvfefefefeuwaffaffuufefafaEveeeeDFffffefeEEeeedeededeFAfffaffauufeddwrfafaffffwrfaffffauwfffffuwefafffEEeedeFEfffeffffdedddeeddeddwwfffefefewwfffefeffwvfffffffewvfefffeffwvfffefeffuwefffffeDEeeeeEEeeeedeffeeFEfeffffffwvffffffffwvffffffffwwfffffefeuweffefewwfffefefeuueeeeDDfaffeEEeeeedeeeedFEfefffafewrfafafafawwaffffffwvfafaffeuweffefeuudfefeEEeeedDFafafffeEEeeeeeeeddeuwafedffwvfffefffewvfffffffewwfefefffewvfffefffewwfffefffeEEeeedEEeeddeeeeedfeffffffffwwfffffeffwwfffefffewwfffefeffwvfefefeffwwfffefffevveefeeefffefffeEEeeeeeeededFEfefefefewwfefefeffuweddfewwfefffffewvffffffffwwfeffffffEEeddeFFfffffeffDEdedeedeeeewwfffffeffwwfffffefewvfffffeffwvfefeffffwwfeffffffwwfefffffeEEdddeEDedeeeeeeddFFfffeffffwvfefefeffwwfffffffewwfffefefewwfffefeffwwfefefefeuuedddfefffffeffEDedededddddFFfefefffewvfefffefewwfffffffewvfefffffewwfffffeffwvfffeffffEEeeddFFffffffffeededeeeeeedwwfefeffffwwfffffeffwwffffffffwwfffffffewwfefefffewvfefffeffDEdeddDDddddddedddFFfffffeffwwfffffefewvfefffefewvfffffefewwffffffffwwfeffffffvueeedFFfefeffffDDddddddddddFFfffefeffwwffffffffwwfffffefewvfefffefewvfefffefewvfefefefeEEddeeFFfffeddfddedfddfddeddwvfefffefewwfefffefewwfffffffewwfffefeffwwfefffffewvfffffffeddeeddDDdeddddeedeFFfffffeffwvfefffffewwfffffeffwvfffeffffwwffffffffwwfffffefewveedeFEfefefeffDDddddddddddFFfffffefewwffffffffwwfefffeffwwfffefffewwfeffffffwwfefffefeEEeeddDEfdddefedfedfddfeffffwvfaffdffwwefffefeuudfffevrdddffuwefefedwwdfafefadDedddDDdedededeeeDDdfffewwffafffuudfffwvfaffefuufadfwwfffefefevueefffeefffffffEEfedeeeeeddDDdffffwvfafffafawwffefffawvffffffeuuffdduudfedvueeeeDFffafafaEDeededdededDDffffewrdfefefeuufafafawvfefafaffuweffefauwffefefaEEeeeeDDfafefedddedededeeeuwaffddwrfefafaffwwfefefffewwfeffffwwdfeddwwfafefefaEDeeeeDDddddfdaddEEeeeeeeeeeeDDdfeffuwfafffuweddfewwdddfwwdfafafuuffaffuwafeffeeeeeeeEEeeeeeedeeeDFefffeffvrdfefeffwwfaffffauwfdfafauwafffefauwaffdfevveeeeffefffffEEeeeeeeeefeDfefdafdaddfdFAfafefafauwffedffddfdadffdfedfwwffffddDDfedddfdaddFFfeffffaFDdfffddfddFDdffeuwafefafadfffdddddddEEeeeeDFffafafaEEeeeeefedeeDDfddddfaffdDDfafeduufdafdffddfdadfffafauwffffffDDfdafedddfedFFafedfaFDffddffdaddDFaffddwvfafefffaddfdaddfdaddEEeeeeDEdfdeaeefedeeddefffaDDdddddfffdDDddfuwefeddddffddfdfafffawwffafaffFEdffdddfdffdFAfafafafaFDddfedfedddFFfaffaffuwffffafddfdaddfdfdaeeeeddEEeddeeeeeeeFDfafffaFFdfdafedddfdaDFafffafawuafdfdafdffddfafafaffuwddfaFDfdafedfedfedDDfefeffDDfedfdddfedDFeffffewvdfffeeffddfefefffffffffffffffefffeEEeeeeeeeeddFEfefeffffFEfffefefefefffeffffFFfefafffeuuddfdafedfedfdfdfawwfffffefeFFfefffffefefefffeffFFfeffffffwwfefefffdfdddDDfffafEDffdeFEffffffffFEffeefeeefdfdefedfeeffefffefeffFFfeffffffFEfffffeffffdddffFAfafafefawwfffefffffefefefffefffffefefewvfffefffeFEfffffffeffffffffffFFfffffefewvfefefefffefefffefefefffefefeEEeeeeEEedeeeedeeeFEfefefefeFFfefefffefffefefeffFEffffffffwwfefffffffefffffffefffffffefewvfefffefeFFfefefefffefffeffffFFfeffffffFEfffefefefffefefefeFFfffefeffvveeeeFFfffefffffffffffffffffffeffffEEeddddeededFFfefeffffFEffffffffffffffffffFFfefeffffwwfffffffffffffffffffefefffefewvfeffffffFEfefffffffefffefffeFEfefffeffwwfffffefffefffefffffefffefffeEEeeedDEdfdddedefdefeefefeffFEfffffefefefffeffffFEffffffffwwfefffffefefffefffefffffeffffwwfafafFafDFfedfdfdafdawwfffeffffFFfffefffefffefffefeFEffffffffuuffffeefffdeffefffffefefefeffffffffDDeeedddddeeFFfeffffffFFfffffffffffffffeffFEffffffffwvfffffffefffffffffefffefffeffwvfefefefeFDfefefefefefefefefeFFfefefefeFFfefefefffffefefefeFFfefffefeEEeeedFEfffffefeeedddedefddefedefefffefffffffeffwvfefefffeFFfffefffffffffeffffFEfefefffewvfffffefeeffffefefefefefefefewvfefffefeFFfefffffffffffefffeFFffffffffwwfffffffffefffffffefefefffddeffdeddDEdeeeeededdFFfefffffeFEfffffffefeffffffffFFfefffefewvfefffffffffffffefffffffffeffwwffffffffFEfffefefefefefefefeFFffffffffFFfffefffffefffeffffFFfefffffeEEeeeeFFfffffffffffffefffffefffffeffdeeeededffeewwfffffefeFEfffefeffffffffffffFFfefeffffwwfffefffffffffefffffffffefffewwfefefefeFFfffefffefefeffffffFFfefefefewwfffefffffffffefffffffefefeffEEeefeEEeeddedfeeeFFfffffefeFEfefefefffefeffffffFFfffefeffwvfefffefffffefeffffffffffffffwwfffffefeFFfffffffefefffefefeFFfefeffffFFfffefefffffefffffeFFfffefffeuvedeefefefefefefefffffffffffffefeffEEedeeeeeeeeFEfefeffffFEfffefffffffffffefeFFfefefeffwwfefffffffffffffffffffffefeffwwfefffeffFEfefffffefefffefeffFFffffffffwwfefffffffefffefffffeffffffffEEeeeeFEfedeffeeeefdedfeeefeFFfffffefffffefefffeFFffffffffFFfffffefffffffefffeFFfefefeffwvfffefffffffffefffffffefffefewvffffffffFFfffefffefffffffffeFEfffffeffwwfffffffffffffffefefffeefffeeffffffFFedeeedeeeeFEfeffffffFFfefefefefefefefefeFEfefffffewwfffffffeffffffffffffffffffffwvffffffffFFfefefffefffefeffffFFfeffeffwwdfdffddfefedDFefafedEEeeeeFAfffafaffDFefdaffdfeeedeeddefeeeeeeuweffaffDDfdaedafdaffdDFefafafeuwdfedddddfdadfeddwwfffefffeFEfeffffffffffffffffDFefefefawwdfdedafdafdDddfafDEdedeDFafedeeeddfeaeeefeefFEdfdafadddffdwFfafefddFAdfedfedfdafedFAffafdwwafdadfedfedffdddffdwwfefffffeFEdfeddfffdfdaDDdffewuafdaffdedaffddfafedfaEEeedeEEededdddeeeFEfafffaffDFfdafdfedfdDFeddedDDdfefdafdfdaDDfedduufefafeddfedfedfdfdawvfefefaffFDdfdffdafdFAfafafafauufdfdffdddddeedddedeeEEeeeeeeeeeeDFffefefFEdfdfdafdaddDDdffffDDffdfdfdffdFAfefafafeuwafeffdfeddfeddfdfdauwafafffeDFffdddddfdFEfafafafewvffdedffedadddffeddfafefffDDeeeddeeeeeFFfefafafaDFdddddddfewwfafafffaDDfdafdafedfdaFFfffffafewvfefffffffffefffefefffffefefewwfffeffffFDafdaddedafdaDDddffEEeeeeDDddffdffdfdFDffeeeeeaeedeeddeewwffffffffwwffffffffwwfefefefewwffefffeuwafefafeuufaffaFFffeeFFffffffaffffaFFffeffeawwffffffffuwffafefeuwffefafauwedfefewvfefddvveefeeafffffaffDEeeeeeeeeeeFDafdaddfedfedDFfafefauwafaffffffdddddfdfdwvffefffaFDadddddddfFFddffffwuddfedfdafdaffdddffwwdfefefeFFdffdddfedddEFeeeeFAfafafafaEEeeeeeeeeffDFeffdfdafdadfFFaffffdwwffafffffedfdafddfffduuddfeFFdddfdfdaddFFefffefewuafdfedfdadddddfaffwvfaffafaFDffdfdaddfdeEeeeeDDdddfefeeeefeeeeDFffdaffddeaffdDDffffeuufafafefdafdafdafdadduwffffafaDDdddfefdaddFFafffffwwddddddddddfeddfewwffffaffEEfdeefeeeddfafdaedaEEedeeeeeeddDfafefefDDddddfdfdFAfaffafeuwffffefdadddddddedauudffdFFdfadddfedffdDDdddwuafdfdaffdfddddfafawrEFfeeefaFAaFAffeeeffaeeffafefafaffefafaffafawrfauFEfefefefefefffffdwwfffffffeffffffffffuueeedFFfffedffedeeefdeeffddfffdeffeffwwfffefffefefffefffewvfffffffffffefefeffwwfffffffefffefffffewwfffefeffffffffffffEEeeeeEDedddedededFFfffffffefffffffeffwwfffefefffefefeffffwvfffffefffefefffefeuwffdffdffddfevuddedFFfefffefffffefeffffEDeeedeeeeeewvfefffeffffedaddwvdfdaddfedfdwwfffffffffffeffffffwwfefffefefefefffeffEDeeedDDeededeeefefeeffefffffffffffeffwwfffefffffeffffffffwvfefffefefffefefeffwwfefffefffffefffefewvfffffffffffffffefeedddddDEddeedeedeeFFfffffefefefffffeffwwfffffffefefefeffffwvfefefefffefefefffewvfefffefffffffffeffuueeddFEfffffffeffffffffffdeddeeeedeeewvfffefefefffefeffffwvfffefffefffffffffewwfffffefefffffefffewwfefefefefefffefffeDDdeddDDddddddddddFFfffffffffffffffffewwfefffffffffefffffewvfefefefefefefefffewvfffefffffffffffeffuuddfddffffffffffefffffefeDEddedddddddwwfffffffffffeffffffwwfefefffefffffefffewvfffffefffffeffffffwwfffeffffffffffffffuuedddDEeddddefffddffdeffefffefefefefewvfeffffffffffffffffwvfffffefefffffeffffwvfffffffffffffffeffwwfefffefffffffeffffdDeeeeDDdeedeeededFEfffffffffefefefeffwwfffefffffffffeffffwvfefffffffefffeffffwwfeffffffffffffffffuuddddFFfefefffefffefffffedddddddddeddwvfefffffffefefffefewwfffefffffffffffeffwwfefffffefefefffefewwfffffffefffffffeffDDedddEDdddddddeddFFfefefffffefefefeffwvfffffffffffeffffffwvfffefffffefffffffewwfffffefefefffffefevvfedfdddfedffddffffdDDeddededdddwwdffdddfdafdawvddffedfddfuufdafedddfeduwfffdffdffdfeduueeeeFFddddfffdddDEddeededddewwfffefffefffffffffewvfffefffffffefffeffwwfffffffefefffefeffuuddfdadffddDDddddDDddddddddddfdfdddfdaffdwwdfedfdadfaedawwdddffdfdafduuddddfdfdwuaddfdfedfdDDdddeEEdeddeefedeDDfedfedfedfdwwdddffddfffdwufedddfdafduwdffffdfdfdawvfffefffffefeffffdEEddedDEeeeeedddedDDddddfdadduwddfedffdfdwwfffffffffffffffffeuudfffdfdfdauveeeefffffffefffeffffffffEDeedeeeeeeeuuddfddddfeuudeeeeedEEeeeeeeedeeuveeeeEEdeeeeeeddeuuddffdffdddwwdddddffdddwwfffffefefffffefeffwwfffffefdfedddEEeeedEEddeedeeedeDDedaffdfddduuffdfdadddduuffdffdffdfdawuddffdfdffdwvfefffffffefeffffffEEdedeEDeedddedddeFFfefefffefefefffffewwfefffffffffffffefewvfffefefefffffffefewvfefffffffffffffffevuedddFEfffffffefeffffffffDEeeddeedfeewvfffffffefefeffffffwwfffffffffefefefeffwwfefffefeffffffffffwwfffffeffffffffffffDDddeeEEeeeeeeedeeDDdddddddduwffdddfdfdawwfffefffefffffefffeuuffdfedffddffvuafdafdafdaddDEeeedEEeeedeedeeeFFfffffffefefffefffewwdfdaffdffdfdwvfffffffefffefffffevrdddfdafdafeduudddeFffffffffffffefffefeDEeddddeddddwwffffdfdadfdffwwdfdaddddfdwwfffefffffeffffffffwvfefefefffefffffffeuuedddEEfedefeeefddefdeefeddfffefeffffwwfefffffefffffffeffwwfefffffffffffeffffwwfefffffefffffffffewwfffffffffefffefefeDEeeddDDddddddddddFEdfdafdafeddfwwfffffffffffffffffewvfefefefffefefefffewwfffffffffffffffeffvudeedFFfffffeffffffffffffDDddddddeeddwwfffffffeffffffffffwwfffffffefefefffefewvfefffefefefffefeffwvfffefffefefffefeffDDddddDDddddddddddFFfffefffffffffffffewwfeffffffffffffffffwvfefefffefefffefefewvfefffffefffffeffffwwfefffefffddfddffddfeffffDDddddddddddwwfffffeffffffffffffwwfffffefffefffefefewwfffffefefefeffffffwvfffffffefffffffeffvuddddFFfefefeddfddfddfffddffeddffedffwvfffffffffefffefeffwwfffffefffffefefefewwfeffffffffffffffffwwfffefffefefefefefeDEddddDDdddfddddddFEfffefffffffffefffewvfffefffefffffffffewwfefefefffefefffefewwfefffffefefffffffeuuddddFFfefffffffffffefefeDDddedddedddwvfffffefefffefefeffwwfefefffffefefefefewvfefefffefefffefefewwfffffffefffefefffeDDddddDDddddddddddFFfefefefefeffffffffwwfffffffefffffefeffwvfffefffffeffffffffwwfffffffffffffeffffwwfffeffddfffededdfffffeffDDddddddddddwwfefefffffffefffeffwwfefffffffffffeffffwwfefffffefefeffffffwwfffefffefffefffeffuuddddFFfefeddfeddddfffddffddfffddfffewvdffddfffdfedwwdfdafdaffdfedwvfefffefffefffeffffwwfffefefefffefefffeDDeeddDDddddddddddFDffdffdfdaddwwfefffffffefffffffewvfefefefffefefefeffwvfffffffefefdaddwvddffddffdefffefffefeffffDDddddddddddwvfefffffefffefffedwvfffffefeffffffffffwvfefffffffefffefeffuwfedfedfedfdauuedffaDFefedddddfddddedfdddddddwwfffefffffefefffefewvfffffffffffffffefewvfffffffefefffefeffwwdffddffddfdaDEfedeDDedddddddddFFdddffdddffduwdddfaffdfdauuffddffdaffdwwddfefdaddfdawwfefffffffffefeffffeededeDDddddddddddFFfffefffffffffefefewwfffffffefffefefeffvveeeeEEddeddeddddvvdeeeDDeeeeddddedwwfefefffefffffeffffwuafedddffddffwvfffffffffffffffeffEDeeedDDededdddddeDDfedffdddfedwvfffffefffffefefeffwwfffawwfffffffffefffffeffwwfffeffffffffffeefeeefeeeDDeeddddddedwvfefffefefefeffffffwvfffffffefffefefffewvfffefffffefffffeffwwfffffefefffffefffeuueedeFEfffefefffeffddfededdfefddeddddwwfffefffffffffefeffwvfefefefefffefefefewwfffefffefffffeffffwwfffefffffffffffffeDDdeddDEdeeddededdFDaddffdfedfedwuafeddfeffdffdwwfefefffffffffefffewwfefefffefefffffefeuufeeffeddfefefffffefefffeDDededddddddwvfffffffffffefffffewvfffffffffffffefeffwvfffffffffffffefefewwfffffffefffffefffeuueedeDDdeddfefddffddefdeefffffffefeffwwfffffffffffffeffffwwfffffffefffffffefewvfffefffffeffffffffwvfffffffffeffffffffDEeedeEEdededdddedFFfffffefffffffeffffwwfefffefeffffffffffwwfffffffffefefffeffwwfffefefffefffeffffuuddddFFfefefefefefefefeffDEdddedededdwvfffffefffffffffeffwvfefefefffffeffffffwwfffffffffffffefeffwwfffffeffffffffffffDDeddeDDddddddddeeFFfefffffefffffefffewvfffffffeffffffffffwwfffefefffefefefffewwfefefefffefefefefewudffdeefddffefefffffefeffDDddddddddddwvfffefefefefffeffffwwfefefefffefefffeffwwfefffffefffefefeffwwfffffffffffffeffffvudeddDDfddddfffddfefddefddefffffffffewwfeffffffffffffffffwvfefffefffffffffefewwfffffefffffffefeffwvfffffefffffffffffeDDddddDDddddddddedFFffffffffffffffffffwwfefffffffffffffffewwfefefefffefffefffewvfffffffefefffefefeuuddddFFfffffffefffffffeffDDddddddddddwwfffffefffefefffffewwfffffffffffffeffffwwfffffffefefefefffewwfffffffefeffffffffDDddedEDdddddeededFEfffefefffffffffefewvfefefffffffffefffewwfefefffffefefefffewvfefffffeffffffffffwwfeddfdeefeddfffefffffffeDDddddddddddwwfefffefffffffefffewwfffffffffeffffffffwvfefffffffefefffeffwuafdafedfedffduuddddDDdffdaedfdddddfdaddeeedwvddfddfdafdawvdddfdfdafedwvdddddffdfdwudffedddddDDeedeDDeeddeeddddddfdfdafdadduufdafdaddfeduuddfdaddfduuddddfedfdawwdfedfdafdaddDDededDDdededdedddFDfeddfafeddfawuafdafdaffdfdauuddfdddfdauufdddddfdauufffdafdafdaDDeeddDDddddddddddEDafdafdddfdauwefdafdfdafduwefdedadddfauwafdaddddfafauuddddedafdDDddedDDedddeeeeddDDfdfdafdadduwafedfedddedavrdfedfdafdafeduudddddddduuddedddadefdaddedaDDdddddddddduudfffdafedfeduwefedddfdadfewuaddfdadddduufdfdfddfduueeedFEdddfdafdddDDddeeddddeeuvadeaffdddfeduufdfdfdadduuededDDedeeddddedvveeeeEEddddeeeeeduwffdafdafdadduwefdaffdffdffduwefdafedddddDDedddDDdeddddddddDDddffddddfuufeddfffdddwwdddddfedfdawuaddfddddduufdddfdfdaDDdeddDDddddddddddDDfdafdddfduufdfeddffdauufedddfdaddwwdddfdfdfdwwfffffefffffffffeffFFddddFFddddddddddFDfdaddfdfdauudfefeddddduweddfedfdadduwefdaddfdfdauufdddfdaddddfdaedaDDdddddddddduufddddddduwdfffdddddwwdddffdffdfdauuddddfdafeduuddddDDfdddfdffdDDddddddddddwwfffefffefffffffffewvfffefffffffffefefewwfefffefffefffefffewvfffeffffdddffduuddddDDddddddddfefddffffffffafffffefewwfefffefffefefefffewwfffffefffefefefffewvfefffffefefffefefewwfffffefefffffffffeddddddDDddddddddddFFfffefffefefffffffewwfffffffffffefffffewwfffffffefffeffffffwvfefffffffefefeffffuuddddFFfffefffffffffefefeddddddddddddwwfffffffffffefeffffwwfefefefefffffffefewvfffffffffffefffeffwwfefffffffefefefeffDDddddDDdddddddeddFFfefffefffffffffffewvfffffefffeffffffffwvfffefefefffefefffewwfefefefffefffffefeuuddfddefefffffffffffefefeDDddddddddddwwfffefffefffefffffewwfffffffefffefefffewvfefffffffffeffffffwvfffffefffffffefffeuuddddDDddddddfddffeddfefefefefefeffffwwfefffffefefffefeffwvfffffefffffffeffffwvfffffffffffefffefewvfefffefffffffeffffdDddddDDddddddddddFEfffefffffffffefefewwfefffffefefefffefewvfffffefffffefffeffwwfffefffefffffefefeuuddddFFfffffffffefefeffffddddddddddddwvfefefefffffefffffewwfffffffefffffefffewvfefffffffefefefefewvfefffffefffefffeffDDdeddDDddedddeeeeFFfffffffffeffffffffwwfffffffefffffefeffwwfffffefefefffefffewvfffffffffffeffffffuuddfffedffefefefeffffffffDDddddddddddwwfffffefffefffeffffwvfffffffffffeffffffwwfefefffefffffffeffuufdafdafddfeuuddddDDddddedaddddddfdddddddwuedafdfdaddwvdfeddddfafdauwdfaffdfdfeduwddfedddffdDEedddDDdddddeddeeffdddfdfdafdwuafdafdadddfuudddfeddfeduwefdadddfffduudddfffdfdDDefddDDdddddddddeDDddfdafdfdwuafdafdaddfedwufdaddddfdawwdfdddfedddwufddddfdfDDedddDDddddddfedeFFdfdfdaddfdauuddddfddduwfffddfdddfeuufdaddedadduufdaddfdafdaEEededDDeeffdefffdFDfdaddfddduuddddddfdwufdfdafdadduuddddddfdawvdddededaedddddddDDedddddddedwuafdddffdfdwudddfdddduwfdaddffddduufedfedfdfdavveeedDDddfdafedfdEDeeddeeeedduuddfdddfdwwdffdfddfdfuudfdfffdaddwwDEeeeeEDefedeeeedevveeeeEEdeeeedeeeeuufdfedddfdauufededafdfdEEeeeeDFeeeeeefeeeEDafdaddfdafduwfeddddddduwddddfdafduwafdfdfedfdwwdddddffdddEEeeedEEeeddeeededDDfdafddddduuddddfdafdwwdddfdfdfduwdfdfeddfdauwafedddfddfEEedddDDeeeededdedFDaddfdaffddfeuuffdfdafdafdawudddffedfdauudfafedddfeduudddddddddeddeeEEedddedddedDFeffdddffdffduudfffdddfdawuaffdfddfefdawwdfdfdaddfedvudddefefefffffefffeffffffDDdeeddddddewvfeffffffffffffffffuwdffeddfffduufdafdafeddduwdddfdfffdvuedddFEfefffefffefefddffdddedfeddeeeewvfefefefffefffefefewvfffefffffffefffeffwwfefffffffefffeffffwvfffffffefeffffffffDDdddeDDdeddeddeeeFFfeffffffffffffffffwwfefffffffffefefeffwvfefefefefefffefefewvfffefefefefefeffffvueeddFffffefffffefffefeffDDeddddddddewwfffffefefffffefeffwvfefffefffffffeffffwwfffffffefffffefffewwfefefaffvudeddDDddddddddfddefffffefefffffffeffwvfffefffefffefffffevwfefefefefefffefffewwfefffffffefffffeffwwfffffffffffefffefeddddddDEddddedddddFFfffffffffefefffffewwfffefffefefffefffewwfffefffefefefeffffwwfefffefefffffffffeuueeddFFfefefffeffffffffffedddddddddddwwfffffffffefffffefewwfffffffefefffeffffwvfefefefefeffffffffwvfffffffefffffffffeDEeedeDDddddddddddFFfffffffffffefffeffwwfefefffffffefffeffwwfffefefefefffefefewwfefffefefffffffefeuuddddfefefefffffffeffffffDDededdedddewwfffffffefffefefefewwfffffefffffefffffewwfffefffefefefffffewvfffefffefefefffffeuueeedEEddddddfddffedefefeffffffffffffwwfffffffefffffffffewwfffefffffeffffffffwwfffffffefefefeffffwvfffefffffefeffffffeDeeddDEeeeeeeddeeFFfefffffefffefffeffwvfefffefffefffffffeuwefedddfdadduwffdaddddfeduudeddDDfdafdafdafdDDdddddedddewuffdfdafedfedwvdddddfdffduuddddfdfeduufedfeddddduuedddDFfffdfdaffdfdDDdddddddddduufddddeaffduuddffdfdadfuudfffdfdadduudddffedfdavvdeddFFdfddfdddfdddadeddfddedddwuafdafdfdafdawvdddfdafeddfuuddfdfdadduuedafdddfdaDDddedEEedddeeddeedfafededaffddduwffedddfdafduufdafddddduwefdfdfdddwwdfdafdfddfDDeedeDDddddddddeeDDfedddfdafdawwdddddfdddwuafdfdddddwvdfdaddfdfduuddddddfdaDDdddeDDeddeddddddFFdfdaddfedfdawufdaddddffduwffdaddfddfuwfedfdddfeduufdaddfdaddEEddddDEededddeeeeDFaffdfdaddfduwffdaddddfdauufdadddddduufdafdafddduuDeeeeEEeeededddedvveeeeEEdeeedeeeeeuwefdaddfdffdvveeeeFDfdafdaddfeeedeeeeeeefeeuuddddffddfuwaffddddfffduwdddddddduuddfdaddddvveedeEEeeeeddeddedfddddfdfedwvdddddddfeduwddddfedddwvdfdafdadddduuddfdaedafdaEDdeeeEDeeeeeedeeeFDafdaddfddduuffdfedddfdwwdddffddddduudffeddfffduwefedfeddffdaDDedeeEEeeedeeeeeeFFdfdfdaffddduudfeffdfdfedwvdfdadfdfefeduwdffdafdafdauufdfedfedfedeedeeeDDeeddedeeedFFfffffefffefffefefewwfefefffefffffefeffwvfffffefffefeffffffwwfefffffefffeffffffuvdeeeFFfffffefefefefeffffedeedededeeewwfffefffffefeffffffwvfffffefefefffeffffwvfffffefffffffffffewwfffffffffefeffffffEEeeeeEEedeeeedeedFFfffffffefffffffeffwwfffefffffffeffffffwwfffffffffffefffefewwfefefffffefffefffeuvdeeeffffffffffffffffffffEEdedddedeeewwfefefffffefffefffewvfffefefefffffeffffwvfefefefefffffefefewvfefffffffffffefeffvuedeeDDeeedeefdeffeeefffffefffffffffewwfffffffefffefefffewvfefefefefefefffefewvfefefefffefefffffewwfefefffefefefefffeeDdeeeEDeedeeedeeeFEfffefffefffeffffffwwfefefffffeffffffffwvfefffefffffffffeffwvfefefefefefefffefeuveeddFEfefefffffffeffffffedeeedeeeeeewvfffffffefffffffffewwfffefefefeffffffffwvfffefffffffffeffffwwfefffefefffefffefeEDededEDeddddddeeeFEfefffffffffffffefewwfefffffffffeffffffwvfefefefefefefefeffwwfffefffffefffefeffvuedfffdeefffffffefffffeffEEddededeeeewvfffefefffffffefffewwfffffffeffffffffffwvfffffefefefefffffewwfefffefffefeffffffvvdddeEEededfeeffdeeffeefffffffefefeffwwfefefffffffffeffffwwfffffffffefffffeffwwfefefefefefefefefewvfefffffffffefeffffEEeeddEDdeeddedeeeFEfffefffffffffefffewwfefefffefeffffffffwvfffffffefffefffefeuudddddfdffvvedeeFDfdaddddfedDEddefdeeeeeuwffdddfdadduufedfdaffdddwuafeddfffedddwwdfdddfdfduvdeddFDfdafdfdaffdeeeeeeedeeeduufffdafdafeduufdaddedaffdwuffdddddfduuddfeddffedvveeeeEEeedddfeeefddaeddedfdafduwefdaddddddwvdddddfedfdauufeddddffeduuddffddddfDDeeedEEedddedddeeDDddddddfdauuddfedddfduweffdffddddfuwffdafdfdddvuafdafdfdfdEDeeeeEDeeedeeeeeeFDafedddfdfdvuaddfddffffduuddedaddfduuddfdadddduuddffdfdddEEdedeDDeedeeeeeeeFEdffdffddfddwvdedafdddffdwwffedffdfdddwuafedfdafdfedwufedddddddfeeeeeDEdeeeedeeedDFefdaeaddddduwaffdddfdfdawvdfdaddfdddwvdddfdaddfduwfEDedeeEEddeeeeeeeevveedeFDeeeedeeeddwvdddfdaddfdavvdeeeFDadffefeeedfdddeefedeeeewuaddddddfdauuddddfdfdawwdfdafedfdfedwuafedddfdaddEDeedeDEefdddfeeefddfedffdfddduufedfdafdddwvdddfdfdffduufdafdafdfeduwefdaddfdfdEEeedeEEeeeefeedeeFFfefffefffffffefefewwfefffefefffeffffdwwfefefffefefefffefewwfefffefffffffffeffwwfeffeefffffffffffffffeffEDdeddeeedeewvfffffffefffefeffffuufeddfefedffdwvfffefffefefffefeffwvfffffefefefeffffffuvededFFfefefeefdefedefeedffddfffeeefewvfffffefffefffefefewwfefefffefffffefffewwfffffefffefffffffeuwffedfdadffffdDDddeeEEdedeedeeedFFdfffdfddfwudfefdafedfdawvdfedfdddffdvuaffdfddfdfwwdfedddfedfdadeedddEDeeeeeeeeedFFdfdffdfdddwwfefffffefefffeffffwwfffffefefffeffffffwvfefefefffefefefffeuuddddFFfefefefefffefefefedDededeeddedwvfffffefefffefefffewwfffffffffffefffffewvfffffffefffffefeffwvfffffffffffefffeffEEdeddDDeeedededddFFfffefffffefefffffewvfffffffffeffffffffwwfefffffefffefefefewwfefefefefefefffefewwfddfddfefeeefefefefffeffDDddddeedeedwwfffffffefffffefeffwwfefefefffffffeffffwwfefefffffffffefeffwwfffffffffefffefefeuudddeDDfddffddeddfefddffdeffefeffffffwwfefffefffffffffffewwfefffefefffefefffewwfffffefffffffffeffwvfffffffffffefefffeDDddddDDddddddddddFFfefffefefefffefeffwwfefefefefefefefffewwfefffefffefffffefewwfefefefffffffefefeuuddddFFfefefffefefeffffffddeedededdeewwfefffffefffffefefewvfffffffffefffffffewwfefefefefefefefefewwfefffefefffffffffeDDddddEEdddeddddddFFfefffffefffffffffewwfffffffffffefffeffwwfffffffffffffefeffwvfefefffefefffffffeuuffdffeedfffffffffefeffffEDdddddededdwwfefffffefffffefefewwfefffffffefffffefewvfefffffffefefefefeuudfdffffdfdauueeddDDddddfedddeefddeffdeeedwuafdfedffdffdwufedddfdadduufdafdaddfdauwaffddddffdaEDededDDddddddddddfeddfddddddwuaddfdddfedwvfffffeffffffffffffwuaddfdffddduuddffdddfdaEDeeddEEdddddddeedDDddddfdfdwufdaddfdafdawuafdfdddfedwvdddddfdafduwfddfdfedddDDeeddDDdeddddddddDFffdafedfdedauuddddddfdauufdafddddduuddddffddduuddddfdedfdddfdafddeaDDedddddDEdduuddfadedaddwvdfdfdaddfdawuafdddfdfdwudfdddfdduufdddEDddedddddfeddaedaddfdadduwefdaddddfedvwedfdafdfadddwuafedfdaddfdwrdddfdffdfdaDEeeedEEdddddddeedDDdddddffedwvdddddddddwufdaffdfdddwwddddfdfaffduuddfdafdffdDEeeeeEEdeeedeeeeeuveeeeDEdeddddedeewwffaaffFFdfedddfedffdFFffaffffffffauwdddfffedfdauuddfdddfdwwdddfdddfduuddffdddfedwwffaaffFEdddfedddedaFFffffffffffwuddddfddduwefedfedfdfeduufdafddddduwddddfdafdauueddeFEfddefedffdeffedffddffedffffeffwwfffefffffffefffffewwfffefffffefeffffffwwfefefffefffffffffeuudfffdfdaddEDeedeDDeeddddddddFFfffefefefffffefefewwfefffffffffefffeffuudfdffedffduwfedddfdaddvueeadeefeddfedddffdDDddddedddddwwfffffffefefffefffewwfefffefefefffeffffwwfefffefefefefefefewvfffffefffeffffffffuudddeFFfffeefffedeefffdeffedeffedffffwvfefffefedfdfdwwfefffffffefffefefewwfffffefffeffffffffwwfffefeffffffffffffDDdeddEDeeeeedddeeFFfffffefefefffefefewvfefefefefffefeffffwwfefefffffffefeffffwwfffefffefffffefeffuuddddFFfffefffffffefeffffDDddededdeedwvfffefeffffffffffffwvfffefefffffefefeffwvfefffffefffffffeffwwfefefefefffffffffeDDdddeEDedededddddFFfffffffefffffefefewwfffffffffefeffffffwwfefefefffffffeffffwvfffffffffefffeffffwvfffffffefffffeddfdefffddEDdddedddeddwwfffffffffffefffffewvfefefefffefefeffffwwfefefffeffffffffffwvfffefffffeffffffffuueeeeFFfffffffefefddefedddefefddeddeewwfefffffefefeffffffwwfffefefffffefeffffwwfefefefffefefffffewvfffffffefffefeffffEDdddeDEddddddddeeFEfefefffffefffefffewwfffefefffefefefefewvfefffefefffffefeffwwfffffefefefffffefeuveeddFEfffffefffefefffefeEDdedeeddeddwwfffefefefefefefffewwfefffffefefffffefewwfffffefffefefefffewwfffffffffefefefefeDEeedeDDeeeeddededfffffffffefefffffffewwfffeffffffffffffffwwfefefffffefffefefewvfefffffefefefeffffwwfffffefefefefefffeffffddDEdeeeedeeedFFfefffffefefefffffewvfefffffefeffffffffwwfefffffefffefefffewwfffefefffffffffffevveeddFFfffffffefefefffdeefddeeddededduudddfdffdawwdffdddfedffdwvdfdafedfdadduwaffdfedddffdEEdeeeEEeefeddeefefefefffffefefefeffffwwfefffffefefffffffewwdfedfedfedddwvdfdffdffdfeduwefedfddffdaEFffaffDEedddddddeeDDffdddfdafduwefedddfdaddwwdddfdaddfdwuadddddfaffdwvdddddffddeaeefeefEFddddeeeeddFFdffdffdfdfdwvdddfdafdfdvuaffdfedddfdwufdafdaddfduveeddfdfdafdfedddEEddddddeddduwfffdffdfeddfwuaffdfdfdadduudfefedddddwwddfddffdfedvudeddFEdfedfdddfdaEDdddeedeeeewuafdadddffeduweffdddfddduuffdddfdadduuddfedddfduveeeeDDddddfdfedeeeeeeeefeeuuddffdfdadduuddfedddfdawwdfdafdaffdfeduwddddfddfvveeeeEEeeedeeddeeddeedffdaffduvdeeeEEeeeeeeddefvveeeeEEeeeefeddeeFDffdfdaddfedwufadfdaddfdauuffdffdfdaddwvfefffefefefffefefeuwedfefeedfddadfdfdaEEeeeeeeeeeewvfefefefffffffffffewwfffefffffffefffffewwfefffffffffffefffewwfefffffefffffefffeuueedeFFfffeffdeffedfeeffeeffeeefffefewvfffffffefffeffffffwwfffefffffffffffffewwfffeffffdfedddwwfefefefefefffffeffEEeddeEEeeddeeedddFFfffffffffefefefeffwvdfdadddffedwuffdfeddfffduuddfdafdfdawvfefefffeeefeeefedefefffeDEeedeeedeeewwddddfdfdffwwfefefffffefffefefewvfffefffefefeffffffwwfffefffefefffeffffvudeeeFEfffffffefefefdeeeefdeeffededeewwfefffeffffffffffffvvefedEDeeeedeeeddvudedeDEedddeedeeeuueeeeEEdeeeeddfeevveeedDFeeeeeeeefevveeeeFDeeededefffvvdeeeDDeedeeddddevvdedeEEeeeedfeeeevuefedDEefeeddeddevwedeeEDddeddeeeedvueeedEEdeeeeeddfeuueefdEEfdfeeeddfevvdeeeEEeeeeeeeedfuveeefEEefddeddddeuveeeeEDeeedeeeeeevufeeeEEdedeeededduveedeEEdddeeeeeeeuuffEFfeaeeEFeeeedfdffevveeeeFFefeedeeefewwfeeeFEeeeeeeeeeevwedeeDEeeddeeededvweeeeEEeeedfeeeedvvdeeeEEeeeeeeeddevueeedDEeeeeedeeeduvfedeEDedeeefeeeeuvdfeeEFdeeedeededvveeeeEEdeedeeeeeeuufeeeEEedededeedeuveeedEDededdeedeevveeedEFeeeeeeeedevveeefEDeeeeeeedeevveedeEEfdeeeeeeeevveeddEDeeeeeeeedevvfeeeEEeeeeeeeeeevveeeeFEeeeeeeefeevveeeeFDeedeeeeeeewveeeeEEeeedeeeeeevvfeeeEEeefeeeeeeewvfeeeDEdddefeeefevvdedeEEddeeeeeeeevvedeeFFeeefeeeeeewveeeeDEefeeeefeefvveeeeEEeeefeeeeeewvffefEEeffeefeeeevveeeeEEeeeeddedeevvdeeeEEfeeeeedeeevvfefeDDddfdefeeedvvdfefEEdeefeeeeeeuvfefeDEedeeeeeeeeuveeeeEEeeededeeeeuveddeDEeeeedefeffvveeefEDfeeeeeeeeevvdeeeEDeedefeedeevvededEEeeeeeeeeeevveeeeEEeeeeeeeeeeuweeefEEeeeeedeedevvffdeEEeeeeeeeeeevveeeeEEeefeeeedeevueeeeEEeeeeededdevveeeeEEdeeeeedddevufefeEFeeeddeeeeevvefeeFEedefffeedevvedeeEEefeeeeeefevveeeeEEeeeedeeeeevveeddEDeeeeeeeeeeuvEeeeeEEfeefddeeeevveeeeFFaaEEuueeeeEEeeeeeeeeeevveeeeEEdedededeeeuuddddEDdeeeeedeeduueeddDDdddddddddevudeddDEdddddddeeduuddddDDdddddddddduuddddDDdddddddddduvddddDDdddddddddduuddddEDdeeedddddduuddddDDddddffddeduuddddDDddedddedddvueddeDDdddddeededvueeddEDddeddeeeedvveeddDEddeeedeeeeuvddedDEdeeddeeeeevvdddeDEeeeeddeeddvveeeeDEeeddedeeeevueeeeEEeededeeeeeuueeddDEeedeeeeeeeuueeeeDEeddddddedevveeeeEFeeedeeedeeuveeedEEedeefeeeeeuvEeeeeFDfeeedeeeeevvefeeEEfeedeeeeefvvefeeEEeeeeeeeeefuudeeeEEdddeedddeeuuddedEEedeedeededuveeedDFedeeddeddeuvedeeDDdddeedeeeeuudedeEDdddddededevueddeDEdddddedddduvddddDDddddddeeddvuddddDEeeededdeddvvdeddEEddededeeeduvdddeDDdefdeeedeeuueeedDEeddeedeedduuddeeEDeededdeeddvveeddEDddeeedddddvvefeeEEedeeeeeeddvvddedDDddddeedddevveeedDDeeddddddeevveeeeEEeeeedededevveeefDDeeedddeddduuddddEDedeedddddeuueedeDDddddeddedduueeddEEeeeeddddedwwDDeddeEEeeeeffffffuveeddEDedddeeeedevveeeeDEeeeddeddeevvedeeEDeedeeeeddeuuedddDEddeddeedeevvddedDEdddddddddduueeeeDEdddddddddeuvdeddEEddeddedddduvddeeDDddddeddedeuueeddEEdddeeeeeeevveeeeEEeefeeeeeeevveeeeEEeeeeeeeeeevveeeeEEdfeeeeeeeevvfeefFFffefefefeevveeeeFEeefeeeeeefvveeeeEFeefefeeeeevveeeeFFffffefefefwwffefFEefffeffeffvwffefFFfefeeeeeeewvfffeFEfeeeeffeffwweeffFEfeffeeeeefvveeeeEFeeeeefeeefvvfefeEFffeeeeaeeefwvffffFEfefeeffeeewwfefeFFefffeefeeewwffffFFefeefeffffwwffefFFafffffffffewwffeeEFeeefeeeeeevweefeEFeefefeefefvvfeffEEfeeeeeeeeevvefeeEFeeefeeefefwveefeEEeeeeeeeeeevveeffEEeeeeeeeeeevveeeeEEeeffeeeeffvveeeeEEeeeeeeeeeevveeeeEEeeeeeeefeevveeeeEEeeeeeffeeevveeeeEEeeeefefeeevweeeeEEefeeeefeeewvfefeEEeefeeeeefewvefffEFeefeffeeffwwffffFFfffdeeffffvwefeeFFddffddefddwvfeefFEfeffddfeeewwfffffeffffDDddffaaddddffffwweffffeffffFFffeffaddddfffewwaaffeaffaaDDddddffffaffaawwffffFFeeddefddfewvffffEFfffdfefeeevweeffFEffeeffeeffwwfefeEEefffffffffwwffeeFFfeeefefeffwwafeefFFeeeeeeeeeevvefeeEEeeffeeeeeevvefeeEEefeeeeeeeevvdeeeEEeeeeeeeeeevveeeeEEeeeeeeeeeeuuddddDDeedeeeedeevveeeeEEeeeeeeeeeevveeeeEEeeeeeeeeeevveeeeEEeeeeeeeeeevvefeeEFeeeefeeeeevweeffEEffefeeeeeevveeeeEEefeeeeeeefwveeeeEEeefefffefevveeeeEEeeefffffefvvffffFEeefeddddddwweeeeEEffededefeevveeeeEEfefffeeeedvwfeefEEeeddeeeeeevveeeeEEefddfffefewvffffFEeeeefeeefewvefffEEeeeffeffffwweeefFEeffffeeefevvffeeEFffffeefeffvveeffEEffeeeeeeeevvffeeEEeeefefeeefvveeeeEFeeefeeefeevvfeeeEFeeeeedeeeevveeeeFFeeeeeeeeeeuuddddDDeddddddddduuedddDDedddeeeeeeuueedeEEddeeeeedddvveeeeEEeeeeeeeeevveeeeFEeeeeeeeeeevweeeeEEeeeeefeeeevveedeEEefeeeeeffevvefeeEEeeeefefefevveeefFEeffffffeefwvfeeeFFeeeeeeefffwwfeefEEefeeddeefdwvffffDDeffeddffefwweffeFFeffffeffefwvfffeFFfffffefeffvvfeeeEEffedfffffewwffaaefFFfeefffffafevwffffFEffaffeefeffwvffaffFFffffffeeffwwfeffFFffffffffffvvffefEFeffefefeffwvfeffFEefeeffeeaffwvfffeEEeeeffefefewveefeEEeeeeeeeeeevveeeeEEeeeefeeeeevveeeeEEdddeddedeeuueddeDDddddeeeddduveeeeDEdeeddddeeevveeeeEEeeeeeeeeeevvfeeeFEeefefeeeeevveeeeEEeefefeffeevveeefEEfeeefeeeeevveeeeEEeeefefefee0wwfefeEFeeeeeefeeewwffeeFFeeeeefeffevwefeeFFeefffeffeewvffeeFFeeffffefffwwfffeEDfefefeeeeevvfeefEEfffffeffffwwefeeFFeffeefffefwwffdffFFfeffffffffuuFFefffFFeeffeffffewweeeeEFffeeddefffvwfeffEEeeffeefedfvweefeFFffffeeefeewwffeeEFfeefffefeevweeeeEEeeeeefeeeewwefefEEfeddeeeeeevveeefEEeeeefeeeefuvddddEEeeeeeeeeeevveeeeDDdddeeddddevvfefeEEeefeeefefewweeefEEeeeeeefeeevveeffFEefeeffeefevwffeeFFeeefefeefevvefeeFFeeffeeefeevveeeeFEeeeeeffefevvfefeFFeffeefeefevvffefFEeffeefddfewvffeeEFeffeeefeefwwefefEEfeeefeffffwwaffffEFfeddeefffevwefefEEeeefeeeeffvwffffFEefefefffffvvfeefFEeeefffffeeuvFffeeFFfeffaeff'
.(lp1
(F375.86548599999998
F0.259822
tp2
a(F0.0096860000000000002
F681490.97252099996
tp3
a.cnumpy.core.multiarray
scalar
p1
(cnumpy
dtype
p2
(S'f8'
I0
I1
tRp3
(I3
S'<'
NNNI-1
I-1
I0
tbS'\xb4\xd9\xde{\xdd\x05\x8b?'
tRp4
.F0
.