ccopy_reg
_reconstructor
p1
(cpykov
Vector
p2
c__builtin__
dict
p3
(dp4
S'C'
F0.0024213075060532689
sS'E'
F0.0048426150121065378
sS'D'
F0.021791767554479424
sS'G'
F0.031476997578692489
sS'F'
F0.0024213075060532689
sS'I'
F0.13801452784503632
sS'H'
F0.062953995157384979
sS'9'
F0.0048426150121065378
sS'a'
F0.0024213075060532689
sS'c'
F0.0024213075060532689
sS'e'
F0.021791767554479421
sS'd'
F0.024213075060532691
sS'g'
F0.0024213075060532689
sS'f'
F0.0072639225181598066
sS'i'
F0.33171912832929779
sS'h'
F0.050847457627118647
sS'0'
F0.0096852300242130755
sS'u'
F0.07990314769975787
sS't'
F0.0048426150121065378
sS'w'
F0.012106537530266345
sS'v'
F0.0048426150121065378
sS'y'
F0.041162227602905568
sS'x'
F0.021791767554479421
sS'z'
F0.11380145278450363
stRp5
.ccopy_reg
_reconstructor
p1
(cpykov
Chain
p2
c__builtin__
dict
p3
(dp4
(S'G'
S'H'
tp5
F0.6923076923076924
s(S'9'
S'i'
tp6
F0.5
s(S'z'
S'y'
tp7
F0.063829787234042562
s(S'I'
S'w'
tp8
F0.01754385964912281
s(S'h'
S'i'
tp9
F0.38095238095238093
s(S'u'
S'u'
tp10
F0.12121212121212122
s(S'v'
S'i'
tp11
F0.5
s(S'g'
S'a'
tp12
F1
s(S'x'
S'f'
tp13
F0.1111111111111111
s(S'i'
S'h'
tp14
F0.072992700729927015
s(S'H'
S'z'
tp15
F0.15384615384615388
s(S'z'
S'h'
tp16
F0.14893617021276598
s(S'I'
S'D'
tp17
F0.035087719298245619
s(S'x'
S'H'
tp18
F0.44444444444444442
s(S'y'
S'u'
tp19
F0.23529411764705885
s(S'w'
S'u'
tp20
F0.19999999999999998
s(S'y'
S'I'
tp21
F0.17647058823529413
s(S'z'
S'z'
tp22
F0.21276595744680851
s(S'e'
S'I'
tp23
F0.1111111111111111
s(S'u'
S't'
tp24
F0.060606060606060608
s(S'c'
S'I'
tp25
F1
s(S'D'
S'y'
tp26
F0.11111111111111109
s(S'e'
S'd'
tp27
F0.1111111111111111
s(S'0'
S'y'
tp28
F0.5
s(S'x'
S'u'
tp29
F0.22222222222222221
s(S'u'
S'I'
tp30
F0.030303030303030304
s(S'z'
S'i'
tp31
F0.31914893617021278
s(S'I'
S'G'
tp32
F0.01754385964912281
s(S'G'
S'0'
tp33
F0.15384615384615388
s(S'f'
S'i'
tp34
F0.33333333333333331
s(S'H'
S'x'
tp35
F0.038461538461538471
s(S'd'
S'I'
tp36
F0.19999999999999998
s(S'i'
S'x'
tp37
F0.0072992700729927022
s(S'd'
S'F'
tp38
F0.099999999999999992
s(S'e'
S'H'
tp39
F0.1111111111111111
s(S'E'
S'D'
tp40
F0.5
s(S'D'
S'f'
tp41
F0.11111111111111109
s(S'z'
S'D'
tp42
F0.021276595744680854
s(S'y'
S'x'
tp43
F0.23529411764705885
s(S'y'
S'w'
tp44
F0.058823529411764712
s(S't'
S'x'
tp45
F0.5
s(S'z'
S'u'
tp46
F0.085106382978723416
s(S'u'
S'y'
tp47
F0.18181818181818182
s(S'H'
S'D'
tp48
F0.076923076923076941
s(S'e'
S'e'
tp49
F0.1111111111111111
s(S'e'
S'0'
tp50
F0.1111111111111111
s(S'9'
S'9'
tp51
F0.5
s(S'u'
S'g'
tp52
F0.030303030303030304
s(S'y'
S'v'
tp53
F0.058823529411764712
s(S'd'
S'w'
tp54
F0.099999999999999992
s(S'i'
S'z'
tp55
F0.0072992700729927022
s(S'i'
S'e'
tp56
F0.029197080291970809
s(S'D'
S'd'
tp57
F0.11111111111111109
s(S'y'
S'0'
tp58
F0.058823529411764712
s(S'C'
S'I'
tp59
F1
s(S'H'
S'I'
tp60
F0.26923076923076927
s(S'E'
S'e'
tp61
F0.5
s(S'h'
S'w'
tp62
F0.095238095238095233
s(S'I'
S'H'
tp63
F0.19298245614035089
s(S'y'
S'y'
tp64
F0.058823529411764712
s(S'h'
S'e'
tp65
F0.047619047619047616
s(S'z'
S'I'
tp66
F0.14893617021276598
s(S'I'
S'z'
tp67
F0.10526315789473685
s(S'e'
S'u'
tp68
F0.33333333333333331
s(S'i'
S'd'
tp69
F0.029197080291970809
s(S'D'
S'e'
tp70
F0.22222222222222218
s(S'w'
S'c'
tp71
F0.19999999999999998
s(S'w'
S'z'
tp72
F0.39999999999999997
s(S'x'
S'y'
tp73
F0.22222222222222221
s(S'i'
S'u'
tp74
F0.036496350364963508
s(S'i'
S'H'
tp75
F0.0072992700729927022
s(S'd'
S'u'
tp76
F0.29999999999999999
s(S'I'
S'I'
tp77
F0.57894736842105265
s(S'u'
S'h'
tp78
F0.030303030303030304
s(S'd'
S'z'
tp79
F0.099999999999999992
s(S'I'
S'd'
tp80
F0.035087719298245619
s(S'G'
S'd'
tp81
F0.076923076923076941
s(S'G'
S'y'
tp82
F0.076923076923076941
s(S'a'
S'z'
tp83
F1
s(S'w'
S'y'
tp84
F0.19999999999999998
s(S'h'
S'u'
tp85
F0.2857142857142857
s(S'h'
S'x'
tp86
F0.047619047619047616
s(S'i'
S'f'
tp87
F0.0072992700729927022
s(S'u'
S'z'
tp88
F0.51515151515151514
s(S'0'
S'z'
tp89
F0.5
s(S'H'
S'G'
tp90
F0.42307692307692313
s(S'D'
S'D'
tp91
F0.22222222222222218
s(S'f'
S'u'
tp92
F0.33333333333333331
s(S'd'
S'E'
tp93
F0.099999999999999992
s(S'i'
S'C'
tp94
F0.0072992700729927022
s(S'H'
S'u'
tp95
F0.038461538461538471
s(S'y'
S'G'
tp96
F0.058823529411764712
s(S'y'
S'z'
tp97
F0.058823529411764712
s(S't'
S'z'
tp98
F0.5
s(S'h'
S'h'
tp99
F0.14285714285714285
s(S'd'
S'x'
tp100
F0.099999999999999992
s(S'e'
S'v'
tp101
F0.1111111111111111
s(S'i'
S'i'
tp102
F0.79562043795620441
s(S'u'
S'D'
tp103
F0.030303030303030304
s(S'v'
S'z'
tp104
F0.5
s(S'f'
S'd'
tp105
F0.33333333333333331
s(S'F'
S'I'
tp106
F1
s(S'D'
S'i'
tp107
F0.22222222222222218
s(S'I'
S'E'
tp108
F0.01754385964912281
stRp109
(dp110
S'_guess'
p111
g1
(cpykov
Vector
p112
g3
(dp113
S'C'
F0.0024213075060532689
sS'E'
F0.0048426150121065378
sS'D'
F0.021791767554479424
sS'G'
F0.031476997578692489
sS'F'
F0.0024213075060532689
sS'I'
F0.13801452784503632
sS'H'
F0.062953995157384979
sS'9'
F0.0048426150121065378
sS'a'
F0.0024213075060532689
sS'c'
F0.0024213075060532689
sS'e'
F0.021791767554479421
sS'd'
F0.024213075060532691
sS'g'
F0.0024213075060532689
sS'f'
F0.0072639225181598066
sS'i'
F0.33171912832929779
sS'h'
F0.050847457627118647
sS'0'
F0.0096852300242130755
sS'u'
F0.07990314769975787
sS't'
F0.0048426150121065378
sS'w'
F0.012106537530266345
sS'v'
F0.0048426150121065378
sS'y'
F0.041162227602905568
sS'x'
F0.021791767554479421
sS'z'
F0.11380145278450363
stRp114
sb.S'99iiiiiiiiiiiiiduziiiiihuziiiiiiiuziiiiiiuziiiiiiiiiiiiiiiiiiiiiiiiiiiiiiiiiiiiiiieuyuzhuyy0yxHxHGyxHGHDDyxyGHGHGHG0zzIIIHIIzzIHIIIIzzIIIIIHzzIHIIIHzyIIIHIHzzIHIHIHzyIHIIIIzzIIIIIIzzIIIIIGdzyIIIIdIIzzDDeduDfdFIIwuIIDiCIdEeHDidxuheIDdIIEDee0yxHGHGHGHGHGHG0zzhhiiiihiifuyuzhuzuzuzuuuzhwzihutxfixuziiHugaziiiiihihhiiievzhiiiihxyziiiihiihuzidwcIzuzhwyuziiieuywziiiiiiiiiiiiiuzihiieuziiihhiiiiiiuuutzziduzhuyviziiiiiuyu'
p1
.(lp1
(F1802.0057850000001
F1802.3015499999999
tp2
a.cnumpy.core.multiarray
scalar
p1
(cnumpy
dtype
p2
(S'f8'
I0
I1
tRp3
(I3
S'<'
NNNI-1
I-1
I0
tbS'\xeb\xb4\xb4*\x1b0\x83?'
tRp4
.F1.5778561725502226e-227
.