ccopy_reg
_reconstructor
p1
(cpykov
Vector
p2
c__builtin__
dict
p3
(dp4
S'A'
F0.040160642570281124
sS'C'
F0.040160642570281124
sS'G'
F0.0080321285140562242
sS'I'
F0.048192771084337345
sS'H'
F0.0682730923694779
sS'9'
F0.0040160642570281121
sS'8'
F0.0040160642570281121
sS'a'
F0.0080321285140562242
sS'c'
F0.012048192771084336
sS'e'
F0.0040160642570281121
sS'd'
F0.012048192771084338
sS'g'
F0.0080321285140562242
sS'i'
F0.20080321285140559
sS'h'
F0.23694779116465861
sS'0'
F0.040160642570281124
sS'r'
F0.048192771084337345
sS'u'
F0.052208835341365459
sS't'
F0.03614457831325301
sS'v'
F0.0040160642570281121
sS'y'
F0.0682730923694779
sS'x'
F0.0040160642570281121
sS'z'
F0.052208835341365466
stRp5
.ccopy_reg
_reconstructor
p1
(cpykov
Chain
p2
c__builtin__
dict
p3
(dp4
(S'G'
S'H'
tp5
F0.5
s(S'9'
S'i'
tp6
F1
s(S'A'
S't'
tp7
F0.30000000000000004
s(S'z'
S'y'
tp8
F0.076923076923076913
s(S'h'
S'i'
tp9
F0.2711864406779661
s(S'z'
S'r'
tp10
F0.076923076923076913
s(S'i'
S'h'
tp11
F0.46000000000000008
s(S'H'
S'z'
tp12
F0.058823529411764712
s(S'z'
S'h'
tp13
F0.076923076923076913
s(S'x'
S'H'
tp14
F1
s(S'y'
S'u'
tp15
F0.058823529411764712
s(S'i'
S'H'
tp16
F0.02
s(S'y'
S'I'
tp17
F0.17647058823529416
s(S'z'
S'z'
tp18
F0.23076923076923075
s(S'g'
S'u'
tp19
F1
s(S'u'
S't'
tp20
F0.076923076923076927
s(S'H'
S'i'
tp21
F0.11764705882352942
s(S'0'
S'y'
tp22
F0.19999999999999998
s(S'0'
S'v'
tp23
F0.099999999999999992
s(S'z'
S'i'
tp24
F0.30769230769230765
s(S'G'
S'0'
tp25
F0.5
s(S't'
S'r'
tp26
F1
s(S'I'
S'y'
tp27
F0.083333333333333329
s(S'i'
S'c'
tp28
F0.02
s(S'v'
S'u'
tp29
F1
s(S'z'
S'u'
tp30
F0.076923076923076913
s(S'H'
S'y'
tp31
F0.058823529411764712
s(S'h'
S'g'
tp32
F0.033898305084745763
s(S'c'
S'r'
tp33
F0.33333333333333331
s(S'u'
S'y'
tp34
F0.53846153846153844
s(S'H'
S'H'
tp35
F0.23529411764705885
s(S'0'
S't'
tp36
F0.5
s(S'r'
S'C'
tp37
F0.33333333333333331
s(S'i'
S'I'
tp38
F0.02
s(S'h'
S'0'
tp39
F0.033898305084745763
s(S'z'
S'd'
tp40
F0.076923076923076913
s(S'z'
S'H'
tp41
F0.076923076923076913
s(S'A'
S'C'
tp42
F0.39999999999999997
s(S'i'
S'e'
tp43
F0.02
s(S'C'
S'r'
tp44
F0.099999999999999992
s(S'H'
S'I'
tp45
F0.35294117647058831
s(S'I'
S'A'
tp46
F0.083333333333333329
s(S'r'
S'0'
tp47
F0.25000000000000006
s(S'r'
S'z'
tp48
F0.083333333333333329
s(S'I'
S'H'
tp49
F0.75
s(S'i'
S'r'
tp50
F0.02
s(S'y'
S'y'
tp51
F0.17647058823529416
s(S'H'
S'0'
tp52
F0.058823529411764712
s(S'e'
S'u'
tp53
F1
s(S'i'
S'd'
tp54
F0.040000000000000001
s(S'y'
S'x'
tp55
F0.058823529411764712
s(S'C'
S'A'
tp56
F0.89999999999999991
s(S'8'
S'9'
tp57
F1
s(S'i'
S'u'
tp58
F0.02
s(S'a'
S'0'
tp59
F0.5
s(S'c'
S'a'
tp60
F0.66666666666666663
s(S'd'
S'u'
tp61
F1
s(S'a'
S'C'
tp62
F0.5
s(S'u'
S'z'
tp63
F0.38461538461538464
s(S'y'
S'i'
tp64
F0.4705882352941177
s(S'I'
S'C'
tp65
F0.083333333333333329
s(S'h'
S'u'
tp66
F0.050847457627118654
s(S'A'
S'0'
tp67
F0.19999999999999998
s(S'r'
S'c'
tp68
F0.16666666666666666
s(S'A'
S'h'
tp69
F0.099999999999999992
s(S'0'
S'z'
tp70
F0.19999999999999998
s(S'H'
S'G'
tp71
F0.11764705882352942
s(S'y'
S'h'
tp72
F0.058823529411764712
s(S'r'
S'y'
tp73
F0.16666666666666666
s(S'h'
S'z'
tp74
F0.016949152542372881
s(S'h'
S'h'
tp75
F0.55932203389830515
s(S'i'
S'i'
tp76
F0.38000000000000006
s(S'h'
S'I'
tp77
F0.033898305084745763
stRp78
(dp79
S'_guess'
p80
g1
(cpykov
Vector
p81
g3
(dp82
S'A'
F0.040160642570281124
sS'C'
F0.040160642570281124
sS'G'
F0.0080321285140562242
sS'I'
F0.048192771084337345
sS'H'
F0.0682730923694779
sS'9'
F0.0040160642570281121
sS'8'
F0.0040160642570281121
sS'a'
F0.0080321285140562242
sS'c'
F0.012048192771084336
sS'e'
F0.0040160642570281121
sS'd'
F0.012048192771084338
sS'g'
F0.0080321285140562242
sS'i'
F0.20080321285140559
sS'h'
F0.23694779116465861
sS'0'
F0.040160642570281124
sS'r'
F0.048192771084337345
sS'u'
F0.052208835341365459
sS't'
F0.03614457831325301
sS'v'
F0.0040160642570281121
sS'y'
F0.0682730923694779
sS'x'
F0.0040160642570281121
sS'z'
F0.052208835341365466
stRp83
sb.S'89iIHihhihhhhzzieuyihuyiiduyihhhhhhhhhihICryuyiihihihhuziiihhiihhguzutr0yyihhhiduyiihhhhuzhhhiuyhhiihguzduyiiiihh0zziiiiiiiih0trCACACAtrCA0zyIHHHHIyyIHIHIHzzHHIHIHyyIHIAhIH0vuzryihhihhhirzihhhihhhihiihhihihhiiHicr0yxHGHG0trCACACAtrCAtrca0tr0trcaCA0tr'
p1
.(lp1
(F1801.6556
F1803.5327600000001
tp2
a.cnumpy.core.multiarray
scalar
p1
(cnumpy
dtype
p2
(S'f8'
I0
I1
tRp3
(I3
S'<'
NNNI-1
I-1
I0
tbS'\xf2\xf4vi\x83\x9a\x84?'
tRp4
.F4.4852491878383873e-127
.