ccopy_reg
_reconstructor
p1
(cpykov
Vector
p2
c__builtin__
dict
p3
(dp4
S'A'
F0.064516129032258063
sS'a'
F0.016129032258064516
sS'C'
F0.064516129032258063
sS'i'
F0.22580645161290322
sS'c'
F0.064516129032258063
sS'1'
F0.016129032258064516
sS'0'
F0.096774193548387094
sS'r'
F0.20967741935483869
sS't'
F0.16129032258064516
sS'6'
F0.016129032258064516
sS'z'
F0.064516129032258063
stRp5
.ccopy_reg
_reconstructor
p1
(cpykov
Chain
p2
c__builtin__
dict
p3
(dp4
(S'A'
S't'
tp5
F0.5
s(S'i'
S'c'
tp6
F0.14285714285714285
s(S'r'
S'0'
tp7
F0.30769230769230771
s(S'1'
S'6'
tp8
F1
s(S'A'
S'0'
tp9
F0.25
s(S'r'
S'c'
tp10
F0.15384615384615385
s(S'0'
S'z'
tp11
F0.16666666666666666
s(S'6'
S'r'
tp12
F1
s(S'A'
S'z'
tp13
F0.25
s(S'c'
S'r'
tp14
F0.5
s(S'z'
S'z'
tp15
F0.5
s(S'C'
S'A'
tp16
F1
s(S'a'
S'0'
tp17
F1
s(S'0'
S't'
tp18
F0.83333333333333337
s(S'r'
S'C'
tp19
F0.30769230769230771
s(S'i'
S'i'
tp20
F0.8571428571428571
s(S'z'
S'i'
tp21
F0.5
s(S'c'
S'a'
tp22
F0.5
s(S'r'
S't'
tp23
F0.23076923076923078
s(S't'
S'r'
tp24
F1
stRp25
(dp26
S'_guess'
p27
g1
(cpykov
Vector
p28
g3
(dp29
S'A'
F0.064516129032258063
sS'a'
F0.016129032258064516
sS'C'
F0.064516129032258063
sS'i'
F0.22580645161290322
sS'c'
F0.064516129032258063
sS'1'
F0.016129032258064516
sS'0'
F0.096774193548387094
sS'r'
F0.20967741935483869
sS't'
F0.16129032258064516
sS'6'
F0.016129032258064516
sS'z'
F0.064516129032258063
stRp30
sb.S'16rCAtr0trtrtrtrCAtr0trCA0zziiiiiicrCAzziiiiiiiicr0tr0trca0trc'
.(lp1
(F3676.1088279999999
F9.0036550000000002
tp2
a.cnumpy.core.multiarray
scalar
p1
(cnumpy
dtype
p2
(S'f8'
I0
I1
tRp3
(I3
S'<'
NNNI-1
I-1
I0
tbS'\xbfN\xe7$K\x13\x8c?'
tRp4
.F3.0662328392364746e-16
.