ccopy_reg
_reconstructor
p1
(cpykov
Vector
p2
c__builtin__
dict
p3
(dp4
S'A'
F0.079545454545454558
sS'C'
F0.079545454545454544
sS'D'
F0.011363636363636364
sS'G'
F0.14772727272727271
sS'I'
F0.028409090909090908
sS'H'
F0.17045454545454541
sS'x'
F0.045454545454545456
sS'a'
F0.022727272727272728
sS'c'
F0.034090909090909088
sS'g'
F0.079545454545454544
sS'i'
F0.005681818181818182
sS'h'
F0.022727272727272728
sS'7'
F0.005681818181818182
sS'0'
F0.051136363636363633
sS'r'
F0.079545454545454544
sS'u'
F0.005681818181818182
sS't'
F0.0625
sS'w'
F0.005681818181818182
sS'y'
F0.056818181818181816
sS'8'
F0.005681818181818182
stRp5
.ccopy_reg
_reconstructor
p1
(cpykov
Chain
p2
c__builtin__
dict
p3
(dp4
(S'G'
S'H'
tp5
F0.42307692307692313
s(S'A'
S't'
tp6
F0.2857142857142857
s(S'G'
S'G'
tp7
F0.26923076923076927
s(S'D'
S'G'
tp8
F0.5
s(S'H'
S'I'
tp9
F0.10000000000000002
s(S'r'
S'0'
tp10
F0.35714285714285715
s(S'x'
S'x'
tp11
F0.25
s(S'h'
S'h'
tp12
F0.25
s(S'i'
S'h'
tp13
F1
s(S'y'
S'y'
tp14
F0.29999999999999999
s(S'0'
S'x'
tp15
F0.22222222222222224
s(S'C'
S'r'
tp16
F0.071428571428571438
s(S'I'
S'D'
tp17
F0.20000000000000001
s(S'a'
S'C'
tp18
F0.5
s(S'y'
S'x'
tp19
F0.40000000000000002
s(S'g'
S'i'
tp20
F0.071428571428571438
s(S'A'
S'G'
tp21
F0.071428571428571425
s(S'h'
S'g'
tp22
F0.74999999999999989
s(S'x'
S'g'
tp23
F0.25
s(S'w'
S'H'
tp24
F1
s(S'x'
S'H'
tp25
F0.5
s(S'a'
S'0'
tp26
F0.25
s(S'c'
S'a'
tp27
F0.66666666666666674
s(S'0'
S'y'
tp28
F0.22222222222222224
s(S'I'
S'G'
tp29
F0.40000000000000002
s(S'G'
S'0'
tp30
F0.076923076923076941
s(S't'
S'r'
tp31
F1
s(S'y'
S'H'
tp32
F0.29999999999999999
s(S'g'
S'h'
tp33
F0.14285714285714288
s(S'A'
S'A'
tp34
F0.071428571428571425
s(S'u'
S'w'
tp35
F1
s(S'g'
S'g'
tp36
F0.6428571428571429
s(S'A'
S'0'
tp37
F0.071428571428571425
s(S'r'
S'c'
tp38
F0.21428571428571427
s(S'g'
S'c'
tp39
F0.14285714285714288
s(S'c'
S'r'
tp40
F0.33333333333333337
s(S'H'
S'y'
tp41
F0.06666666666666668
s(S'H'
S'G'
tp42
F0.50000000000000011
s(S'A'
S'c'
tp43
F0.071428571428571425
s(S'D'
S'D'
tp44
F0.5
s(S'I'
S'H'
tp45
F0.40000000000000002
s(S'a'
S't'
tp46
F0.25
s(S'G'
S'I'
tp47
F0.076923076923076941
s(S'A'
S'u'
tp48
F0.071428571428571425
s(S'H'
S'C'
tp49
F0.03333333333333334
s(S'H'
S'H'
tp50
F0.3000000000000001
s(S'G'
S't'
tp51
F0.038461538461538471
s(S'0'
S't'
tp52
F0.55555555555555558
s(S'r'
S'C'
tp53
F0.42857142857142855
s(S'G'
S'y'
tp54
F0.11538461538461539
s(S'7'
S'G'
tp55
F1
s(S'8'
S'7'
tp56
F1
s(S'A'
S'C'
tp57
F0.3571428571428571
s(S'C'
S'A'
tp58
F0.9285714285714286
stRp59
(dp60
S'_guess'
p61
g1
(cpykov
Vector
p62
g3
(dp63
S'A'
F0.079545454545454558
sS'C'
F0.079545454545454544
sS'D'
F0.011363636363636364
sS'G'
F0.14772727272727271
sS'I'
F0.028409090909090908
sS'H'
F0.17045454545454541
sS'x'
F0.045454545454545456
sS'a'
F0.022727272727272728
sS'c'
F0.034090909090909088
sS'g'
F0.079545454545454544
sS'i'
F0.005681818181818182
sS'h'
F0.022727272727272728
sS'7'
F0.005681818181818182
sS'0'
F0.051136363636363633
sS'r'
F0.079545454545454544
sS'u'
F0.005681818181818182
sS't'
F0.0625
sS'w'
F0.005681818181818182
sS'y'
F0.056818181818181816
sS'8'
F0.005681818181818182
stRp64
sb.S'87GGGGGG0tr0xxgggihgggghgghhggggcr0xxgcr0trCACACAtrcatrCAtrCAtrCAtrCAuwHIHIDDGGIGIG0tr0tr0yyHHHIHHyyHHHHHHyxHGHHCrca0yxHGHGHGyxHGHGHGyyHGHGHGyxHGHGHGtrcaCAcaCACACACA0trCAAGGHGHG'
p1
.(lp1
(F159.71738199999999
F454.02241900000001
tp2
a.cnumpy.core.multiarray
scalar
p1
(cnumpy
dtype
p2
(S'f8'
I0
I1
tRp3
(I3
S'<'
NNNI-1
I-1
I0
tbS'\x12/\x13\xffz`\x88?'
tRp4
.F1.5490617836287241e-77
.