ccopy_reg
_reconstructor
p1
(cpykov
Vector
p2
c__builtin__
dict
p3
(dp4
S'A'
F0.1111111111111111
sS'C'
F0.099715099715099703
sS'E'
F0.0085470085470085479
sS'D'
F0.085470085470085458
sS'G'
F0.031339031339031348
sS'F'
F0.0085470085470085479
sS'I'
F0.082621082621082628
sS'H'
F0.014245014245014245
sS'9'
F0.0085470085470085479
sS'a'
F0.031339031339031341
sS'c'
F0.019943019943019943
sS'd'
F0.039886039886039885
sS'g'
F0.014245014245014245
sS'f'
F0.0056980056980056983
sS'i'
F0.017094017094017096
sS'h'
F0.0028490028490028491
sS'7'
F0.0056980056980056983
sS'1'
F0.0028490028490028491
sS'0'
F0.065527065527065526
sS'r'
F0.091168091168091159
sS'u'
F0.039886039886039892
sS't'
F0.082621082621082614
sS'w'
F0.011396011396011397
sS'v'
F0.0028490028490028491
sS'y'
F0.017094017094017096
sS'x'
F0.017094017094017096
sS'z'
F0.082621082621082628
stRp5
.ccopy_reg
_reconstructor
p1
(cpykov
Chain
p2
c__builtin__
dict
p3
(dp4
(S'F'
S'u'
tp5
F0.33333333333333331
s(S'9'
S'1'
tp6
F0.33333333333333331
s(S'A'
S't'
tp7
F0.58974358974358976
s(S'z'
S'y'
tp8
F0.068965517241379309
s(S'u'
S'u'
tp9
F0.14285714285714285
s(S'E'
S'0'
tp10
F0.33333333333333331
s(S'z'
S'r'
tp11
F0.13793103448275862
s(S'D'
S'x'
tp12
F0.06666666666666668
s(S'z'
S'0'
tp13
F0.17241379310344826
s(S'u'
S'G'
tp14
F0.14285714285714285
s(S'E'
S'y'
tp15
F0.33333333333333331
s(S'I'
S'D'
tp16
F0.068965517241379309
s(S'a'
S'C'
tp17
F0.45454545454545453
s(S'y'
S'u'
tp18
F0.33333333333333331
s(S'h'
S'a'
tp19
F1
s(S'y'
S'I'
tp20
F0.16666666666666666
s(S'z'
S'z'
tp21
F0.31034482758620685
s(S'F'
S'i'
tp22
F0.66666666666666663
s(S'd'
S'f'
tp23
F0.071428571428571438
s(S'D'
S'y'
tp24
F0.03333333333333334
s(S'f'
S'C'
tp25
F0.5
s(S'x'
S'u'
tp26
F0.66666666666666663
s(S'I'
S'0'
tp27
F0.13793103448275862
s(S'I'
S'G'
tp28
F0.068965517241379309
s(S'G'
S'0'
tp29
F0.090909090909090884
s(S'i'
S'D'
tp30
F0.16666666666666666
s(S'd'
S'I'
tp31
F0.14285714285714288
s(S't'
S'r'
tp32
F0.96551724137931039
s(S'G'
S'E'
tp33
F0.090909090909090884
s(S'D'
S'E'
tp34
F0.03333333333333334
s(S'I'
S'A'
tp35
F0.10344827586206896
s(S'u'
S'w'
tp36
F0.14285714285714285
s(S'x'
S'd'
tp37
F0.16666666666666666
s(S'1'
S'I'
tp38
F1
s(S'z'
S'D'
tp39
F0.068965517241379309
s(S'A'
S'0'
tp40
F0.051282051282051287
s(S'u'
S'H'
tp41
F0.14285714285714285
s(S'D'
S'F'
tp42
F0.06666666666666668
s(S'y'
S'w'
tp43
F0.16666666666666666
s(S'A'
S'I'
tp44
F0.025641025641025644
s(S'u'
S'0'
tp45
F0.071428571428571425
s(S'G'
S'D'
tp46
F0.5454545454545453
s(S'I'
S'x'
tp47
F0.034482758620689655
s(S'r'
S'h'
tp48
F0.031250000000000007
s(S'z'
S'u'
tp49
F0.034482758620689655
s(S'd'
S'd'
tp50
F0.071428571428571438
s(S'D'
S'g'
tp51
F0.10000000000000002
s(S'D'
S'0'
tp52
F0.03333333333333334
s(S'f'
S'y'
tp53
F0.5
s(S'H'
S'H'
tp54
F0.20000000000000001
s(S'w'
S'd'
tp55
F0.25
s(S'0'
S't'
tp56
F0.26086956521739135
s(S'r'
S'C'
tp57
F0.78125000000000011
s(S'I'
S'I'
tp58
F0.55172413793103448
s(S'y'
S'C'
tp59
F0.16666666666666666
s(S'i'
S'z'
tp60
F0.16666666666666666
s(S'D'
S'v'
tp61
F0.03333333333333334
s(S'A'
S'C'
tp62
F0.076923076923076941
s(S't'
S'y'
tp63
F0.034482758620689662
s(S'z'
S'A'
tp64
F0.034482758620689655
s(S'D'
S'H'
tp65
F0.03333333333333334
s(S'E'
S'F'
tp66
F0.33333333333333331
s(S'a'
S'a'
tp67
F0.18181818181818182
s(S'G'
S'f'
tp68
F0.090909090909090884
s(S'D'
S'd'
tp69
F0.10000000000000002
s(S'w'
S'0'
tp70
F0.25
s(S'r'
S'0'
tp71
F0.062500000000000014
s(S'H'
S'a'
tp72
F0.20000000000000001
s(S'0'
S'u'
tp73
F0.086956521739130446
s(S'r'
S'D'
tp74
F0.062500000000000014
s(S'd'
S'x'
tp75
F0.071428571428571438
s(S'i'
S'I'
tp76
F0.5
s(S'z'
S'I'
tp77
F0.10344827586206896
s(S'H'
S'd'
tp78
F0.20000000000000001
s(S'I'
S'z'
tp79
F0.034482758620689655
s(S'g'
S'd'
tp80
F1
s(S'A'
S'a'
tp81
F0.051282051282051287
s(S'C'
S'H'
tp82
F0.028571428571428577
s(S'C'
S'A'
tp83
F0.97142857142857153
s(S'd'
S'G'
tp84
F0.2142857142857143
s(S'7'
S'd'
tp85
F0.5
s(S'a'
S'0'
tp86
F0.18181818181818182
s(S'c'
S'a'
tp87
F1
s(S'D'
S'I'
tp88
F0.03333333333333334
s(S'w'
S'G'
tp89
F0.25
s(S'A'
S'i'
tp90
F0.051282051282051287
s(S'a'
S'c'
tp91
F0.090909090909090912
s(S'G'
S'd'
tp92
F0.090909090909090884
s(S'u'
S'g'
tp93
F0.071428571428571425
s(S'd'
S'D'
tp94
F0.2142857142857143
s(S'd'
S'0'
tp95
F0.2142857142857143
s(S'G'
S'A'
tp96
F0.090909090909090884
s(S'D'
S'u'
tp97
F0.03333333333333334
s(S'i'
S'G'
tp98
F0.16666666666666666
s(S'D'
S'z'
tp99
F0.06666666666666668
s(S'9'
S'7'
tp100
F0.66666666666666663
s(S'0'
S'z'
tp101
F0.65217391304347827
s(S'A'
S'c'
tp102
F0.12820512820512822
s(S'D'
S'D'
tp103
F0.30000000000000004
s(S'w'
S'g'
tp104
F0.25
s(S'v'
S'u'
tp105
F1
s(S'a'
S'A'
tp106
F0.090909090909090912
s(S'u'
S'E'
tp107
F0.071428571428571425
s(S'r'
S'G'
tp108
F0.031250000000000007
s(S'y'
S'z'
tp109
F0.16666666666666666
s(S'z'
S'x'
tp110
F0.068965517241379309
s(S'r'
S'c'
tp111
F0.031250000000000007
s(S'A'
S'G'
tp112
F0.025641025641025644
s(S'u'
S'D'
tp113
F0.21428571428571427
s(S'H'
S'D'
tp114
F0.40000000000000002
s(S'x'
S'w'
tp115
F0.16666666666666666
s(S'D'
S'i'
tp116
F0.06666666666666668
s(S'7'
S'I'
tp117
F0.5
stRp118
(dp119
S'_guess'
p120
g1
(cpykov
Vector
p121
g3
(dp122
S'A'
F0.1111111111111111
sS'C'
F0.099715099715099703
sS'E'
F0.0085470085470085479
sS'D'
F0.085470085470085458
sS'G'
F0.031339031339031348
sS'F'
F0.0085470085470085479
sS'I'
F0.082621082621082628
sS'H'
F0.014245014245014245
sS'9'
F0.0085470085470085479
sS'a'
F0.031339031339031341
sS'c'
F0.019943019943019943
sS'd'
F0.039886039886039885
sS'g'
F0.014245014245014245
sS'f'
F0.0056980056980056983
sS'i'
F0.017094017094017096
sS'h'
F0.0028490028490028491
sS'7'
F0.0056980056980056983
sS'1'
F0.0028490028490028491
sS'0'
F0.065527065527065526
sS'r'
F0.091168091168091159
sS'u'
F0.039886039886039892
sS't'
F0.082621082621082614
sS'w'
F0.011396011396011397
sS'v'
F0.0028490028490028491
sS'y'
F0.017094017094017096
sS'x'
F0.017094017094017096
sS'z'
F0.082621082621082628
stRp123
sb.S'91IIA0z0z0zzI0zzIIIDdDFiIIxwGDIIIzzIII0uw0uwdDDE0zzzzDFiIAiIAiz0trCAtrCAtrCAtrCAtrCAtrCAtrCAtrCAtrCAtrCAtrCAtrCAtrCAtrCAtrCAtrCAtrCAtrCAtrCAtrCAtrCAtrCAtrCA0zzAIDDHHd0zyzyIIII0zr0zrGDxu0zzxugdGDgdDDdfywgdxuHDvuDDyuHDuuEFuuDDzrDDxuGEyuGAa0z0z0zuDzrDD0zzDDiDDddIGd0tyCAtrcaCAGfCAca#97IG0tr0trCA#97dGDiGDgdGDgd0zxdIIIIII0trCAaCAcaCAcaCAca0trhaACHacaaaCACACAc'
.(lp1
(F5.4303119999999998
F60.950077999999998
tp2
a(F63.041328999999998
F371.92341299999998
tp3
a(F3.2222170000000001
F22.389188999999998
tp4
a.cnumpy.core.multiarray
scalar
p1
(cnumpy
dtype
p2
(S'f8'
I0
I1
tRp3
(I3
S'<'
NNNI-1
I-1
I0
tbS'\xaerN\x1e\x8b\xf7\x8a?'
tRp4
.F9.826963072907775e-142
.