ccopy_reg
_reconstructor
p1
(cpykov
Vector
p2
c__builtin__
dict
p3
(dp4
S'A'
F0.0012152514051344372
sS'C'
F0.00030381285128360929
sS'E'
F0.00015190642564180464
sS'7'
F0.00060762570256721858
sS'G'
F0.059243506000303807
sS'F'
F0.00015190642564180464
sS'H'
F0.00030381285128360929
sS'a'
F0.0019747835333434605
sS'c'
F0.00030381285128360929
sS'e'
F0.00015190642564180464
sS'd'
F0.00030381285128360929
sS'g'
F0.47349232872550506
sS'f'
F0.00015190642564180464
sS'i'
F0.00030381285128360929
sS'h'
F0.0045571927692541394
sS'1'
F0.00030381285128360929
sS'0'
F0.050584839738720952
sS'3'
F0.00030381285128360929
sS'r'
F0.00091143855385082792
sS'u'
F0.00030381285128360929
sS'w'
F0.00060762570256721858
sS'y'
F0.0051648184718213587
sS'x'
F0.39829864803281173
sS'z'
F0.00030381285128360929
stRp5
.ccopy_reg
_reconstructor
p1
(cpykov
Chain
p2
c__builtin__
dict
p3
(dp4
(S'G'
S'H'
tp5
F0.0051282051282051282
s(S'G'
S'G'
tp6
F0.4358974358974359
s(S'F'
S'g'
tp7
F1
s(S'u'
S'u'
tp8
F0.5
s(S'H'
S'h'
tp9
F0.5
s(S'c'
S'A'
tp10
F0.5
s(S'0'
S'x'
tp11
F0.90990990990990983
s(S'u'
S'x'
tp12
F0.5
s(S'h'
S'x'
tp13
F0.20000000000000001
s(S'g'
S'r'
tp14
F0.00032082130253448829
s(S'a'
S'0'
tp15
F0.076923076923076913
s(S'7'
S'x'
tp16
F0.25
s(S'G'
S'F'
tp17
F0.0025641025641025641
s(S'g'
S'i'
tp18
F0.00032082130253448829
s(S'r'
S'f'
tp19
F0.16666666666666666
s(S'x'
S'g'
tp20
F0.35812356979405041
s(S'0'
S'y'
tp21
F0.021021021021021019
s(S'g'
S'C'
tp22
F0.00032082130253448829
s(S'g'
S'z'
tp23
F0.00032082130253448829
s(S'G'
S'0'
tp24
F0.010256410256410256
s(S'G'
S'C'
tp25
F0.0025641025641025641
s(S'G'
S'E'
tp26
F0.0025641025641025641
s(S'g'
S'h'
tp27
F0.0048123195380173249
s(S'A'
S'A'
tp28
F0.25
s(S'r'
S'g'
tp29
F0.33333333333333331
s(S'g'
S'g'
tp30
F0.63105550208533856
s(S'r'
S'x'
tp31
F0.33333333333333331
s(S'g'
S'a'
tp32
F0.00064164260506897658
s(S'A'
S'0'
tp33
F0.125
s(S'A'
S'g'
tp34
F0.125
s(S'0'
S'w'
tp35
F0.0060060060060060051
s(S'g'
S'y'
tp36
F0.0022457491177414182
s(S'7'
S'g'
tp37
F0.25
s(S'y'
S'w'
tp38
F0.029411764705882349
s(S'c'
S'd'
tp39
F0.5
s(S'h'
S'g'
tp40
F0.5
s(S'h'
S'y'
tp41
F0.033333333333333333
s(S'1'
S'0'
tp42
F1
s(S'G'
S'h'
tp43
F0.0051282051282051282
s(S'E'
S'G'
tp44
F1
s(S'7'
S'7'
tp45
F0.5
s(S'x'
S'r'
tp46
F0.00076277650648360034
s(S'g'
S'A'
tp47
F0.00064164260506897658
s(S'a'
S'c'
tp48
F0.076923076923076913
s(S'C'
S'A'
tp49
F0.5
s(S'g'
S'x'
tp50
F0.25729868463265959
s(S'f'
S'd'
tp51
F1
s(S'G'
S'y'
tp52
F0.0076923076923076936
s(S'H'
S'g'
tp53
F0.5
s(S'g'
S'e'
tp54
F0.00032082130253448829
s(S'a'
S'a'
tp55
F0.53846153846153844
s(S'0'
S'G'
tp56
F0.0090090090090090089
s(S'y'
S'0'
tp57
F0.058823529411764698
s(S'y'
S'g'
tp58
F0.29411764705882348
s(S'x'
S'G'
tp59
F0.014492753623188408
s(S'x'
S'x'
tp60
F0.55263157894736847
s(S'w'
S'r'
tp61
F0.5
s(S'a'
S'G'
tp62
F0.076923076923076913
s(S'G'
S'x'
tp63
F0.11538461538461539
s(S'y'
S'y'
tp64
F0.20588235294117643
s(S'g'
S'0'
tp65
F0.046519088867500807
s(S'A'
S'a'
tp66
F0.5
s(S'e'
S'g'
tp67
F1
s(S'3'
S'1'
tp68
F1
s(S'x'
S'y'
tp69
F0.0034324942791762016
s(S'y'
S'x'
tp70
F0.32352941176470584
s(S'C'
S'r'
tp71
F0.5
s(S'g'
S'G'
tp72
F0.055181264035931987
s(S'w'
S'G'
tp73
F0.25
s(S'i'
S'g'
tp74
F1
s(S'G'
S'g'
tp75
F0.4102564102564103
s(S'x'
S'h'
tp76
F0.0019069412662090009
s(S'a'
S'u'
tp77
F0.076923076923076913
s(S'G'
S'A'
tp78
F0.0025641025641025641
s(S'r'
S'c'
tp79
F0.16666666666666666
s(S'0'
S'g'
tp80
F0.051051051051051045
s(S'x'
S'i'
tp81
F0.00038138825324180017
s(S'0'
S'z'
tp82
F0.0030030030030030025
s(S'y'
S'h'
tp83
F0.088235294117647051
s(S'w'
S'x'
tp84
F0.25
s(S'a'
S'A'
tp85
F0.076923076923076913
s(S'x'
S'0'
tp86
F0.067887109077040431
s(S'h'
S'G'
tp87
F0.13333333333333333
s(S'z'
S'x'
tp88
F1
s(S'h'
S'h'
tp89
F0.13333333333333333
s(S'd'
S'a'
tp90
F1
s(S'a'
S'e'
tp91
F0.076923076923076913
s(S'x'
S'w'
tp92
F0.00038138825324180017
stRp93
(dp94
S'_guess'
p95
g1
(cpykov
Vector
p96
g3
(dp97
S'A'
F0.0012152514051344372
sS'C'
F0.00030381285128360929
sS'E'
F0.00015190642564180464
sS'7'
F0.00060762570256721858
sS'G'
F0.059243506000303807
sS'F'
F0.00015190642564180464
sS'H'
F0.00030381285128360929
sS'a'
F0.0019747835333434605
sS'c'
F0.00030381285128360929
sS'e'
F0.00015190642564180464
sS'd'
F0.00030381285128360929
sS'g'
F0.47349232872550506
sS'f'
F0.00015190642564180464
sS'i'
F0.00030381285128360929
sS'h'
F0.0045571927692541394
sS'1'
F0.00030381285128360929
sS'0'
F0.050584839738720952
sS'3'
F0.00030381285128360929
sS'r'
F0.00091143855385082792
sS'u'
F0.00030381285128360929
sS'w'
F0.00060762570256721858
sS'y'
F0.0051648184718213587
sS'x'
F0.39829864803281173
sS'z'
F0.00030381285128360929
stRp98
sb.S'310xxg0xxgggggggGggGggGGGgGg0xxgggggg0xxggggggggggxxgggxxgggxxggg0xxgGgggxxgggxxgggxxgggGGgg0xxgggxxgggxxgggGGGggg0xxgggxxgggxxgggxxgggxxgggxxgggxxgggxxggg0xxgggxxgggxxgggxxgggxxgggxxgggxxgggxxggg0xxgggxxgggxxgggxxggg0xxgggxxgggxxgggxxggg0xxgggxxgggxxgggxxggg0xxgggxxgggxxGGgggxxggg0xxgggxxgggxxgggGgGggg0xxgggxxggggxxgggxxggg0xxgggxxgggxxgggxxgggg0xxgggxxgggggggggxxgggxxgggg0xxgggxxgggxxgggxxggg0xxgggxxgggxxgggxxgggxxgggxxgggxxgggxxggg0xxgggxxgggGGxgggxxggg0xxgggxxgggxxgggxxggg0xxgggxxgggxxgggxxggggggggxxgggxxgggxxgggGGggGGggg0xxgggxxgggxxgggggxxggg0xxggGGgggxxgggxxgggxxgggxxgggxxgggxxgggg0xxgggxxgggxxgggxxggg0xxgggxxgggggxxgggxxggg0xxgggxxgggxxgggxxggg0xxgggxxgggxxggggggxxggggg0xxggggggggggggggxxggggggggxxggggggggxxgggggggg0xxgggGGGgggxxgggxxgggxxgggxxgggxxgggxxggg0wrfdacdaegCAaA0xwGEGFge#77g0xxggGggGGGgGg0xxgggggg0xxgGgggxxgggxxgggxxgggGGgg0xxgggxxgggxxgggxxgggxxgggxxgggxxgggxxggg0xxgggxxgggxxgggxxgggxxgggxxgggxxgggxxggg0xxgggxxgggxxgggxxggg0xxgggxxgggxxgggGgGggg0xxgggxxggggxxgggxxggg0xxgggxxgggxxgggxxggg0xxgggxxgggxxgggGGggGGggg0xxgggxxgggxxgggggxxggg0xxggGGgggxxgggxxggg0xxgggxxgggxxgggxxggg0xxgggxxgggggxxgggxxggg0xxgggxxgggxxgggxxggg0xxgggxxgggxxggggggxxggggg0xxggggggxxgggxxgggxxggg0xxgggGGGgggxxgggxxgggxxgggxxgggxxgggxxggg0xxggggAAaaaa0xrgaGAga#310xxggggxxgggggggggxxggggggxxgggggxxgxggxgggxxgxxxxxxxxxxxGxggGGGggxxggxxxxgxxgggggxxgggxxgxxxxxgxxxxgxxxgxxggxxg0xxgxxxgxgxxgggggxGxxxgxxxx0xxxxxxggx0xxgxxgxxgxg0xxxxxgggxxgggxxgggggxxgggggxxggggggggggggxxggxxgggggGGggggxxggggxxggggxxggggGGGggggxxgxxgxgxgxxggggxxg0xxg0xxxxgxx0x0x0y0yyxggggx0xxxxxxxgxxgxxGggxxg0xxgxx0xxxgxxxxgggxxggggggxxggxxgxxggx0xygxx0x0g0Gyggxxxgxxxgxxggxgxggxxxx0xx0x0x0xxxx0xxxxxxxxxgggxxggggxxgxxxxggxxgxxggggggxxgggxxgxxgxgGxggggggGGxxGGggxGxxyghgggghxg0xxxx0xx0x0G0gxxxxxxgxgxxggxxxxggxxxgxGGggggggxxggGGggGxxGGgggggggxxgggggggxxgggggggxxgggggggGGGGggggggggggggggxxggggggggggggggxxggggggggggggggxGGggggggggggggggxxgggggggxxggggggggggggxxggggggggggggxxggggggggggggxxggg0xxxgxxxxxg0xxx0x0g0gx0xxxgggx0xxx0xx0xxxx0x0g0gxggxgGGx0x0gxxx0xxggxxgg0xxxxxxxxxg0xxxxxxggggxxggggggxxggxggxxx0xxxxgggxx0xxGxxgxxxggggghGHhGGggghgyxhGyyhhhhxxgggggghgyxggggggggxxggggggggGGhgGHggggyyhgGGggghghggxxggghggggxxhgggggghxxgggggggGGGggggghgxxggghghgxyxxxxgxxGxxxgxxg0xxgg0xxxx0xxgxGGggggg0x0xxgxxgxxxxxxgggxxg0xxxxxxggxxx0x0gxxx0xxx0xx0xxgxgxgxxg0xxxxggggxxgggggxxggxxgggxxggxxx0xxxgxxxxxggxxxxxxggxxxxxxgxxgxxxxgxxggxgxgxgggg0xx0xxx0xxg0xx0x0xxggg0y0yx0xx0xxg0x0gxggggxx0xxgggxxggxxggxxgxxxxxxxxxggxxgxx0xxxx0xxgg0x0gxxx0xxgx0xx0xxxxxxxgxyggxxggxxgxxxxxg0xxx0xx0xx0x0gxxgxx0x0xxg0x0xxggxx0xx0yxx0x0gxgxxxgxxggxxg0xxgxxgxxgggxxgggxxggxxgx0xx0xyxxgxxgxxxggxxx0xxxx0x0xxg0x0gxxxxxxgxxxx0xxxxxgxggxxhhyyxxxxgggxxggggx0xxxgxxxx0xxx0xx0xx0xxx0xxxxxxxx0yyyhx0xxxxgxxgxgg0xxxxxxggxxggggggxxggggxxggggxgGggxxgxxxgxxgxxxxggxxggxxxxggggggxxggggggggxxgxxggxxggxxxxxggxxgxgxxxxggxxggxxxxxxgxxggxxgxxgggxxgggggxxgggxxxgxgxxx0xxxxxxxxxgggxgxxgxgxgxxx0xxxgxxxxxgxxgg0xxgxxgx0xxxgxgggxx0xxggxxxxxxxgxxgxxggggxxxgxxxgxxxxgghxxgxxxxxxggyygg0xxx0x0x0Gx0xxggxxxxgxxxxg0xxxggg0xxxxxgx0xxxgxxxg0xxx0xxggGggGGggg0xxgggGGgg0xxGgggxxgggxxggg0xxgggGGGGgggxxgggxxggg0xxgggxxgggxxgggxxggg0xxgggGGGgggxxgggxxggg0xxgggxxgggxxgggxxggg0xxgggxxgggGGxgggxxggg0xxgggxxgggGGgGGgggxxggg0xxgggxxgggGGxxgggxxggg0xxgggxxgggxxgggxxgggg0xxgggxxgggxxgggxxgggxxgggxxggggxxgggxxgggxxggggggggxxggggggggxxggggggggxxggggggggGG0xxgggxxgggGCrxxggg0xxgggxxgggxxgggxxggg0xxgggGGGGgggxxgggxxggg0xxgggxxgggxxggggggxxgggxxgggxxgggxxgggxxgggggggg0xxgggxxgggggggxxgggxxggg0xxGGgggxxgggxxgggxxgggGGgggg0xxgggxxgggxxggggggxxggg0xxgggxxgggxxgggxxgggxxhgggggggggxxggggggggxxggggggggxxggggggggxxGGgggxxgggxxgggxxgggGGgGGgggxxgggxxgggGGGGggg0xxgggGGggGGgggxxgggxxggg0xygggggxxgggxxgggxxggg0xxgggxxgggxxgggxxggggg0xxgggxxgggxxgggGGGggg0xxGGggggggggxxggggggggxxggggggggxxgggggggggg0xxgggGGggxxgggxxgggxxggg0xxgggGGggGGgggxxgggxxggg0xxggggggggxxggggggggxxggggggggxxgggggggg0xxgggxxggghxxgggxrgiggxxggggGGgggxxgggxxggg0xxgggxxgggxxgggxxggg0wrcAaauuxx0x0g0xxxx0x0x0x0xxxxxxxxxxgxxggxxgxxxgxggxxgggxxxx0xxxgx0xxxgx0xxxxggxx0x0x0x0xxx0x0gx0xxxxx0xxxG0xxx0xxggxGgxxgxxgggxx0xxggggxxxxgxxxgggggggxxxxxgggxxggxxxxgxxggggxx0xxgxxx0xxxg0x0xxx0xxxxgxxxggxxxxxxxgxgyxgxggggxxggggxxggGGxxgGGggggxxggGGxxGggggxx0x0gx0xygx0xx0xxgxx0xxgxxgxxxggxxxxxgxxxgxxgxx0xxxxgxxgxxggggxxggyxgxxggxxggxxgggxxg0x0xxx0xxggxxxgx0xx0yxx0xxGxgggggxxgxxggxxggxxggxxgxxxg0x0xxxgx0xxggxxgxxxxx0x0xxxxx0xxxxx0xxxx0xxgxx0x0xx0x0xx0xxxxgxxggxxggxxgggxxgggxGGGyggxxhggxxxxg0xxgxxgg0xxggxgxgxxxxgxxggxxxgggg0xxxxxx0xxGxgggxxggggggxxggxxxxgxxx0xxxxgxggxxgxxxxxgggxxggggxxgggxxgxxxxgxxx0xxgxxxgx0xxxxxggxxxggxxggxxxxgggxxgxxxxgxxggx0xxxxg0x0xxxx0xxxxgggggxxgggggxxggggxxgggxxggggGxggggxxggggxxggggxxGGgGGgGGgGGgxxggGGgggGxgggGxgggGxggGGggGGgggGxgggGxgggGGGGgggGGggggxxggggGxggggGxgggGGgggGGgggGxgggGxgggGxggxGggggGGgggGxgggGGgggGgGggGGgggGxgggGxgggGGggGGggggggGGgggxxgggxxgggxxgGGggGGggGxghGGgxxggGGgGGgGGgGGgxxgGGgGGgGGgxxggGxggGxggGxggxxgggGGggxxggxxggxxgGGgGGgxxgxxgxxGGgGGgGGgGgGgggGGggGGggxxggGGxgGGgGGgGGgxxGggGGggGGggGGgxxggGGggGGggGGggxxGGggGGggGGggGGgxxgGGgggGGgggGGgggGGgxxggGGggGGggGGggGGxxgGGgggGGgggGGgggGGggxxgggggGGgggGxgggGxgggxxggGGhgGGggGGggxxGggGGggGGggGGgxyggxGggxxigxxggxxggggxxggxGggxxggxGGGGggxxggxGggGGggx0xxxgxgggggggggxgxgxxxxggggxxgggggxxgggggxxggggxxggggxxxgxx0xxg0xxxxxxgxxgxxgxgg0xxxx0xxgxxggggxxggggxxggxxxgxxGgg0xxxx0xxxgggxxgggxxgggGGGGggggggxxgggggxxgggggxxgggggxxgxxxxGGxxggGgggGxggGGgxGgxxgxxGgggGxgxx0xxxxxxxgggxxggggxxg0xxxxgxxxx0xxxgxxgxgxggxxggg0xywx0xxxxxxxggxxgggggxxggg0xxxxggxxggxxxxxxxGGxxgggxxxgxxggxxgggxxgggxxxggxxxgxgxxggggxxxxxxgxxxxgxxggxxxgxxgggggggxxggxxggxxgggxxgxxxxgggxxxxggxxgxxgxgxgxxggxgxxgxxxx0x0xxxxxggggxxggggxxgggxxgggggggxxggxxxx0xxxxx0xxg0x0xx0xxxxgxxgxxxxxxxxgxxxxx0xx0xxxxxxgggxxggggxxxxxxxgxxxgggxxggxgggxgx0xxxx0xxgggg0xxxxggxxxxxxgggxxggxxgxxxxggxgxxxgxx0x0gxx0x0xxx0x0xx0xxxxxgggggxxgggggggxxgggxxggxxggxxggx0xxxggGGGggxxggzxgxxx0x0xxxggxxxggxxgggxxgxxgggxxggggggxxgggxxgxxggxxgggxxxxxxxxggGxxxxgxxgxxggxxgxxggxxggggggxxgggxgxgxxggggxxggggggxxggggxxggxxgxxgggggxxggggggxxgggggggggxxggggxxx0xxxggGgGgxxxxgxxggxggxxgxgxxggggxxggxxggxxggxxggxxxxgxxxggxxxxx0xxxgxgx0xxxggggggxxgggrxggggxxgggxxggxxgggxxggxxxgxxgygxgxgxxg0xxx0xxxxxgg0zxx#77x0xxggxxxxgxxxx0xxxggg0xxxxxgx0xxxgxxxg0xxx0xxggGggGGggg0xxgggGGgg0xxgggxxgggxxgggxxggg0xxgggxxgggGGxgggxxggg0xxgggxxgggxxgggxxggg0xxgggxxgggxxgggxxgggG0xxgggxxgggxxgggxxggg0xxgggGGGGgggxxgggxxggg0xxgggxxgggxxggggggxxgggxxgggxxgggxxgggxxgggggggg0xxggggxxgggxxgggxxggg0xxgggxxgggxxgggxxggggg0xxgggxxgggxxgggGGGggg0xxGgggxxgggxxgggxxgggg0xxgggGGggGGgggxxgggxxggg0xxgggxxgggxxgggxxggg0xxgggxxgggxxgggxxggg0xxggggAA'
.(lp1
(F9.0018440000000002
F1582155.6872739999
tp2
a(F1840.574533
F1824.3931339999999
tp3
a(F9.0023780000000002
F19487.720733999999
tp4
a(F5455.675741
F1833.055386
tp5
a.cnumpy.core.multiarray
scalar
p1
(cnumpy
dtype
p2
(S'f8'
I0
I1
tRp3
(I3
S'<'
NNNI-1
I-1
I0
tbS'\xba*\x93`\xf1al?'
tRp4
.F0
.