ccopy_reg
_reconstructor
p1
(cpykov
Vector
p2
c__builtin__
dict
p3
(dp4
S'A'
F0.087591240875912413
sS'C'
F0.094890510948905105
sS'G'
F0.021897810218978103
sS'H'
F0.014598540145985401
sS'a'
F0.021897810218978103
sS'c'
F0.043795620437956206
sS'g'
F0.145985401459854
sS'i'
F0.029197080291970802
sS'h'
F0.043795620437956199
sS'1'
F0.0072992700729927005
sS'0'
F0.10948905109489052
sS'3'
F0.0072992700729927005
sS'r'
F0.145985401459854
sS'u'
F0.014598540145985401
sS't'
F0.10948905109489052
sS'y'
F0.021897810218978103
sS'x'
F0.072992700729927015
sS'z'
F0.0072992700729927005
stRp5
.ccopy_reg
_reconstructor
p1
(cpykov
Chain
p2
c__builtin__
dict
p3
(dp4
(S'G'
S'H'
tp5
F0.33333333333333331
s(S'A'
S't'
tp6
F0.58333333333333326
s(S'h'
S'i'
tp7
F0.16666666666666669
s(S'r'
S'0'
tp8
F0.40000000000000002
s(S'x'
S'x'
tp9
F0.19999999999999998
s(S'0'
S'u'
tp10
F0.066666666666666666
s(S'H'
S'H'
tp11
F0.5
s(S'G'
S'x'
tp12
F0.33333333333333331
s(S'u'
S'G'
tp13
F0.5
s(S'r'
S'a'
tp14
F0.050000000000000003
s(S'x'
S't'
tp15
F0.099999999999999992
s(S'a'
S'C'
tp16
F0.33333333333333331
s(S'y'
S'x'
tp17
F0.66666666666666663
s(S'g'
S'i'
tp18
F0.10000000000000001
s(S'3'
S'1'
tp19
F1
s(S'H'
S'G'
tp20
F0.5
s(S'x'
S'y'
tp21
F0.099999999999999992
s(S'x'
S'g'
tp22
F0.19999999999999998
s(S'C'
S'A'
tp23
F1
s(S'a'
S'0'
tp24
F0.66666666666666663
s(S'c'
S'a'
tp25
F0.33333333333333331
s(S'0'
S'y'
tp26
F0.13333333333333333
s(S'x'
S'u'
tp27
F0.099999999999999992
s(S'i'
S'g'
tp28
F0.75000000000000011
s(S'G'
S'0'
tp29
F0.33333333333333331
s(S'x'
S'h'
tp30
F0.099999999999999992
s(S't'
S'r'
tp31
F1
s(S'g'
S'h'
tp32
F0.25
s(S'i'
S'c'
tp33
F0.25
s(S'g'
S'g'
tp34
F0.5
s(S'A'
S'0'
tp35
F0.25
s(S'r'
S'c'
tp36
F0.050000000000000003
s(S'g'
S'c'
tp37
F0.15000000000000002
s(S'u'
S'r'
tp38
F0.5
s(S'x'
S'i'
tp39
F0.099999999999999992
s(S'0'
S'z'
tp40
F0.066666666666666666
s(S'h'
S'g'
tp41
F0.83333333333333337
s(S'A'
S'c'
tp42
F0.083333333333333329
s(S'c'
S'r'
tp43
F0.66666666666666663
s(S'x'
S'0'
tp44
F0.099999999999999992
s(S'y'
S'G'
tp45
F0.33333333333333331
s(S'z'
S'x'
tp46
F1
s(S'1'
S'C'
tp47
F1
s(S'0'
S't'
tp48
F0.46666666666666662
s(S'r'
S'C'
tp49
F0.5
s(S'A'
S'C'
tp50
F0.083333333333333329
s(S'0'
S'x'
tp51
F0.26666666666666666
stRp52
(dp53
S'_guess'
p54
g1
(cpykov
Vector
p55
g3
(dp56
S'A'
F0.087591240875912413
sS'C'
F0.094890510948905105
sS'G'
F0.021897810218978103
sS'H'
F0.014598540145985401
sS'a'
F0.021897810218978103
sS'c'
F0.043795620437956206
sS'g'
F0.145985401459854
sS'i'
F0.029197080291970802
sS'h'
F0.043795620437956199
sS'1'
F0.0072992700729927005
sS'0'
F0.10948905109489052
sS'3'
F0.0072992700729927005
sS'r'
F0.145985401459854
sS'u'
F0.014598540145985401
sS't'
F0.10948905109489052
sS'y'
F0.021897810218978103
sS'x'
F0.072992700729927015
sS'z'
F0.0072992700729927005
stRp57
sb.S'31CAtrCAtrCACAca0xyGHHGxuG0trCAtrCAtrCAtrCA0tr0tr0yx0yxicr0tr0xtr0tr0xxhgiggcrCAtrCAtrCA0zxgghghghghigghgggggcr0ura0xxgiggggcr0trCA0trcaCA'
p1
.(lp1
(F8.9948779999999999
F86.905682999999996
tp2
a.cnumpy.core.multiarray
scalar
p1
(cnumpy
dtype
p2
(S'f8'
I0
I1
tRp3
(I3
S'<'
NNNI-1
I-1
I0
tbS'n\xad\xa5\x82\xd4\x07\x8b?'
tRp4
.F3.1172652043922372e-51
.