ccopy_reg
_reconstructor
p1
(cpykov
Vector
p2
c__builtin__
dict
p3
(dp4
S'0'
F0.2857142857142857
sS'u'
F0.14285714285714285
sS'x'
F0.14285714285714285
sS'9'
F0.14285714285714285
sS'8'
F0.14285714285714285
sS'z'
F0.14285714285714285
stRp5
.ccopy_reg
_reconstructor
p1
(cpykov
Chain
p2
c__builtin__
dict
p3
(dp4
(S'9'
S'8'
tp5
F1
s(S'8'
S'0'
tp6
F1
s(S'x'
S'u'
tp7
F1
s(S'0'
S'z'
tp8
F0.5
s(S'u'
S'0'
tp9
F1
s(S'0'
S'x'
tp10
F0.5
s(S'z'
S'z'
tp11
F1
stRp12
(dp13
S'_guess'
p14
g1
(cpykov
Vector
p15
g3
(dp16
S'0'
F0.2857142857142857
sS'u'
F0.14285714285714285
sS'x'
F0.14285714285714285
sS'9'
F0.14285714285714285
sS'8'
F0.14285714285714285
sS'z'
F0.14285714285714285
stRp17
sb.S'980xu0z'
p1
.(lp1
(F64976.157639999998
F3690.7750339999998
tp2
a.cnumpy.core.multiarray
scalar
p1
(cnumpy
dtype
p2
(S'f8'
I0
I1
tRp3
(I3
S'<'
NNNI-1
I-1
I0
tbS'M\x07\x97\x03@\xef\x84?'
tRp4
.F0.25
.