ccopy_reg
_reconstructor
p1
(cpykov
Vector
p2
c__builtin__
dict
p3
(dp4
S'A'
F0.0625
sS'C'
F0.0625
sS'g'
F0.16666666666666666
sS'G'
F0.14583333333333331
sS'I'
F0.125
sS'H'
F0.020833333333333332
sS'c'
F0.041666666666666664
sS'0'
F0.0625
sS'r'
F0.0625
sS't'
F0.041666666666666664
sS'7'
F0.020833333333333332
sS'9'
F0.020833333333333332
sS'x'
F0.125
sS'z'
F0.041666666666666664
stRp5
.ccopy_reg
_reconstructor
p1
(cpykov
Chain
p2
c__builtin__
dict
p3
(dp4
(S'A'
S't'
tp5
F0.33333333333333331
s(S'G'
S'G'
tp6
F0.28571428571428575
s(S'H'
S'I'
tp7
F1
s(S'r'
S'0'
tp8
F0.66666666666666663
s(S'x'
S'x'
tp9
F0.33333333333333331
s(S'I'
S'H'
tp10
F0.16666666666666666
s(S'g'
S'g'
tp11
F0.75
s(S'g'
S'c'
tp12
F0.25
s(S'0'
S'x'
tp13
F0.66666666666666663
s(S'G'
S'z'
tp14
F0.14285714285714288
s(S'9'
S'7'
tp15
F1
s(S'x'
S'I'
tp16
F0.33333333333333331
s(S'c'
S'r'
tp17
F1
s(S'G'
S'I'
tp18
F0.4285714285714286
s(S'C'
S'A'
tp19
F1
s(S'7'
S'z'
tp20
F1
s(S'z'
S'x'
tp21
F1
s(S'x'
S'g'
tp22
F0.33333333333333331
s(S'0'
S't'
tp23
F0.33333333333333331
s(S'r'
S'C'
tp24
F0.33333333333333331
s(S'I'
S'G'
tp25
F0.83333333333333337
s(S'G'
S'0'
tp26
F0.14285714285714288
s(S'A'
S'C'
tp27
F0.66666666666666663
s(S't'
S'r'
tp28
F1
stRp29
(dp30
S'_guess'
p31
g1
(cpykov
Vector
p32
g3
(dp33
S'A'
F0.0625
sS'C'
F0.0625
sS'g'
F0.16666666666666666
sS'G'
F0.14583333333333331
sS'I'
F0.125
sS'H'
F0.020833333333333332
sS'c'
F0.041666666666666664
sS'0'
F0.0625
sS'r'
F0.0625
sS't'
F0.041666666666666664
sS'7'
F0.020833333333333332
sS'9'
F0.020833333333333332
sS'x'
F0.125
sS'z'
F0.041666666666666664
stRp34
sb.S'97zxIGIGzxIHIGGGIGIG0xxgcr0xxgggggggcr0trCACACAtr'
p1
.(lp1
(F110.583702
F460.88191499999999
tp2
a.cnumpy.core.multiarray
scalar
p1
(cnumpy
dtype
p2
(S'f8'
I0
I1
tRp3
(I3
S'<'
NNNI-1
I-1
I0
tbS'\x00\xf9\xaa\x18a^\x87?'
tRp4
.F4.3580152500934283e-13
.