ccopy_reg
_reconstructor
p1
(cpykov
Vector
p2
c__builtin__
dict
p3
(dp4
S'A'
F0.12903225806451613
sS'C'
F0.19354838709677419
sS'D'
F0.064516129032258063
sS'G'
F0.096774193548387094
sS'1'
F0.032258064516129031
sS'3'
F0.032258064516129031
sS'r'
F0.096774193548387094
sS'u'
F0.064516129032258063
sS't'
F0.16129032258064516
sS'y'
F0.032258064516129031
sS'x'
F0.064516129032258063
sS'd'
F0.032258064516129031
stRp5
.ccopy_reg
_reconstructor
p1
(cpykov
Chain
p2
c__builtin__
dict
p3
(dp4
(S'C'
S'G'
tp5
F0.33333333333333331
s(S'A'
S't'
tp6
F0.75
s(S'u'
S'C'
tp7
F0.5
s(S'u'
S'u'
tp8
F0.5
s(S'x'
S'G'
tp9
F0.5
s(S'r'
S'D'
tp10
F0.33333333333333331
s(S'G'
S'u'
tp11
F0.33333333333333331
s(S'x'
S'C'
tp12
F0.5
s(S'D'
S'D'
tp13
F0.5
s(S't'
S'x'
tp14
F0.20000000000000001
s(S'd'
S'd'
tp15
F1
s(S'C'
S'A'
tp16
F0.66666666666666663
s(S'A'
S'x'
tp17
F0.25
s(S'1'
S'C'
tp18
F1
s(S'G'
S't'
tp19
F0.33333333333333331
s(S'G'
S'd'
tp20
F0.33333333333333331
s(S'3'
S'1'
tp21
F1
s(S'r'
S'C'
tp22
F0.66666666666666663
s(S'y'
S'C'
tp23
F1
s(S't'
S'r'
tp24
F0.59999999999999998
s(S't'
S'y'
tp25
F0.20000000000000001
s(S'D'
S't'
tp26
F0.5
stRp27
(dp28
S'_guess'
p29
g1
(cpykov
Vector
p30
g3
(dp31
S'A'
F0.12903225806451613
sS'C'
F0.19354838709677419
sS'D'
F0.064516129032258063
sS'G'
F0.096774193548387094
sS'1'
F0.032258064516129031
sS'3'
F0.032258064516129031
sS'r'
F0.096774193548387094
sS'u'
F0.064516129032258063
sS't'
F0.16129032258064516
sS'y'
F0.032258064516129031
sS'x'
F0.064516129032258063
sS'd'
F0.032258064516129031
stRp32
sb.S'31CAtxCGtyCAxGuuCAtrDDtrCAtrCGd'
p1
.(lp1
(F9.002459
F144.38731799999999
tp2
a.cnumpy.core.multiarray
scalar
p1
(cnumpy
dtype
p2
(S'f8'
I0
I1
tRp3
(I3
S'<'
NNNI-1
I-1
I0
tbS'\x91Q\xf5\x14\xe5\x08\x8e?'
tRp4
.F1.7146776406035655e-09
.