ccopy_reg
_reconstructor
p1
(cpykov
Vector
p2
c__builtin__
dict
p3
(dp4
S'a'
F0.053333333333333337
sS'A'
F0.17333333333333334
sS'C'
F0.17333333333333334
sS'G'
F0.026666666666666668
sS'c'
F0.053333333333333337
sS'1'
F0.013333333333333334
sS'0'
F0.066666666666666666
sS'3'
F0.013333333333333334
sS'r'
F0.18666666666666668
sS'u'
F0.013333333333333334
sS't'
F0.20000000000000001
sS'y'
F0.013333333333333334
sS'x'
F0.013333333333333334
stRp5
.ccopy_reg
_reconstructor
p1
(cpykov
Chain
p2
c__builtin__
dict
p3
(dp4
(S'A'
S't'
tp5
F0.69230769230769229
s(S'G'
S'G'
tp6
F0.5
s(S'y'
S'0'
tp7
F1
s(S'r'
S'0'
tp8
F0.14285714285714285
s(S'1'
S'c'
tp9
F1
s(S'r'
S'c'
tp10
F0.14285714285714285
s(S'u'
S'G'
tp11
F1
s(S'A'
S'c'
tp12
F0.076923076923076927
s(S'a'
S't'
tp13
F0.25
s(S'0'
S't'
tp14
F1
s(S'A'
S'x'
tp15
F0.076923076923076927
s(S'a'
S'C'
tp16
F0.25
s(S'a'
S'0'
tp17
F0.5
s(S'3'
S'1'
tp18
F1
s(S'r'
S'C'
tp19
F0.71428571428571419
s(S'G'
S'y'
tp20
F0.5
s(S'x'
S'u'
tp21
F1
s(S'c'
S'a'
tp22
F1
s(S't'
S'r'
tp23
F1
s(S'A'
S'C'
tp24
F0.15384615384615385
s(S'C'
S'A'
tp25
F1
stRp26
(dp27
S'_guess'
p28
g1
(cpykov
Vector
p29
g3
(dp30
S'a'
F0.053333333333333337
sS'A'
F0.17333333333333334
sS'C'
F0.17333333333333334
sS'G'
F0.026666666666666668
sS'c'
F0.053333333333333337
sS'1'
F0.013333333333333334
sS'0'
F0.066666666666666666
sS'3'
F0.013333333333333334
sS'r'
F0.18666666666666668
sS'u'
F0.013333333333333334
sS't'
F0.20000000000000001
sS'y'
F0.013333333333333334
sS'x'
F0.013333333333333334
stRp31
sb.S'31catrcaCACAtrCAtrCAtrCAtrCAtrCAtrCAtrCAxuGGy0trCAtrCAtrCACAca0tr0trca0tr0tr'
p1
.(lp1
(F8.9974469999999993
F40.698433999999999
tp2
a.cnumpy.core.multiarray
scalar
p1
(cnumpy
dtype
p2
(S'f8'
I0
I1
tRp3
(I3
S'<'
NNNI-1
I-1
I0
tbS'Z%\xd1f\xeb$\x90?'
tRp4
.F2.8778391349167692e-13
.