ccopy_reg
_reconstructor
p1
(cpykov
Vector
p2
c__builtin__
dict
p3
(dp4
S'A'
F0.02
sS'C'
F0.02
sS'D'
F0.060000000000000005
sS'G'
F0.040000000000000001
sS'F'
F0.02
sS'H'
F0.029999999999999999
sS'v'
F0.02
sS'c'
F0.02
sS'd'
F0.040000000000000001
sS'g'
F0.46999999999999997
sS'h'
F0.01
sS'0'
F0.050000000000000003
sS'r'
F0.050000000000000003
sS'5'
F0.01
sS't'
F0.029999999999999999
sS'w'
F0.01
sS'6'
F0.01
sS'y'
F0.02
sS'x'
F0.069999999999999993
stRp5
.ccopy_reg
_reconstructor
p1
(cpykov
Chain
p2
c__builtin__
dict
p3
(dp4
(S'G'
S'H'
tp5
F0.5
s(S'A'
S't'
tp6
F1
s(S'y'
S'g'
tp7
F0.5
s(S'F'
S'g'
tp8
F0.5
s(S'r'
S'0'
tp9
F0.59999999999999998
s(S'x'
S'x'
tp10
F0.14285714285714288
s(S'w'
S'D'
tp11
F1
s(S'D'
S'x'
tp12
F0.33333333333333331
s(S'0'
S'x'
tp13
F0.59999999999999998
s(S'x'
S'H'
tp14
F0.14285714285714288
s(S'g'
S'd'
tp15
F0.042553191489361708
s(S'6'
S'd'
tp16
F1
s(S'G'
S'F'
tp17
F0.25
s(S'D'
S'D'
tp18
F0.33333333333333331
s(S'C'
S'A'
tp19
F1
s(S'd'
S'G'
tp20
F0.25
s(S'h'
S'g'
tp21
F1
s(S'x'
S'y'
tp22
F0.14285714285714288
s(S'x'
S'g'
tp23
F0.14285714285714288
s(S'y'
S'x'
tp24
F0.5
s(S'0'
S'y'
tp25
F0.19999999999999998
s(S'v'
S'g'
tp26
F0.5
s(S't'
S'r'
tp27
F1
s(S'g'
S'h'
tp28
F0.021276595744680854
s(S'd'
S'D'
tp29
F0.25
s(S'g'
S'g'
tp30
F0.89361702127659581
s(S'd'
S'0'
tp31
F0.25
s(S'F'
S'D'
tp32
F0.5
s(S'v'
S'G'
tp33
F0.5
s(S'H'
S'G'
tp34
F1
s(S'G'
S'D'
tp35
F0.25
s(S'x'
S'v'
tp36
F0.28571428571428575
s(S'5'
S'6'
tp37
F1
s(S'c'
S'r'
tp38
F1
s(S'd'
S'd'
tp39
F0.25
s(S'D'
S'0'
tp40
F0.16666666666666666
s(S'D'
S'F'
tp41
F0.16666666666666666
s(S'0'
S't'
tp42
F0.19999999999999998
s(S'r'
S'C'
tp43
F0.39999999999999997
s(S'g'
S'c'
tp44
F0.042553191489361708
s(S'x'
S'w'
tp45
F0.14285714285714288
stRp46
(dp47
S'_guess'
p48
g1
(cpykov
Vector
p49
g3
(dp50
S'A'
F0.02
sS'C'
F0.02
sS'D'
F0.060000000000000005
sS'G'
F0.040000000000000001
sS'F'
F0.02
sS'H'
F0.029999999999999999
sS'v'
F0.02
sS'c'
F0.02
sS'd'
F0.040000000000000001
sS'g'
F0.46999999999999997
sS'h'
F0.01
sS'0'
F0.050000000000000003
sS'r'
F0.050000000000000003
sS'5'
F0.01
sS't'
F0.029999999999999999
sS'w'
F0.01
sS'6'
F0.01
sS'y'
F0.02
sS'x'
F0.069999999999999993
stRp51
sb.S'56ddDFDDxwDDxvGD0xvgdGFgd0xygggggcr0xxggggggggggggggghgggggggggggggggggggggggggcrCAtrCAtr0tr0yxHGHGHG'
p1
.(lp1
(F22.522323
F42.355947
tp2
a.cnumpy.core.multiarray
scalar
p1
(cnumpy
dtype
p2
(S'f8'
I0
I1
tRp3
(I3
S'<'
NNNI-1
I-1
I0
tbS"\xf5\x1c'\x0ba\x9b\x86?"
tRp4
.F2.9380867252895655e-28
.