ccopy_reg
_reconstructor
p1
(cpykov
Vector
p2
c__builtin__
dict
p3
(dp4
S'A'
F0.058823529411764705
sS'a'
F0.058823529411764705
sS'c'
F0.058823529411764705
sS'g'
F0.058823529411764705
sS'C'
F0.058823529411764705
sS'0'
F0.17647058823529413
sS'r'
F0.23529411764705882
sS't'
F0.17647058823529413
sS'7'
F0.058823529411764705
sS'9'
F0.058823529411764705
stRp5
.ccopy_reg
_reconstructor
p1
(cpykov
Chain
p2
c__builtin__
dict
p3
(dp4
(S'A'
S'A'
tp5
F1
s(S'c'
S'r'
tp6
F1
s(S'7'
S'9'
tp7
F1
s(S'0'
S't'
tp8
F1
s(S'9'
S'g'
tp9
F1
s(S'r'
S'0'
tp10
F0.5
s(S'a'
S'0'
tp11
F1
s(S'C'
S'A'
tp12
F1
s(S'r'
S'C'
tp13
F0.25
s(S'g'
S'c'
tp14
F1
s(S'r'
S'a'
tp15
F0.25
s(S't'
S'r'
tp16
F1
stRp17
(dp18
S'_guess'
p19
g1
(cpykov
Vector
p20
g3
(dp21
S'A'
F0.058823529411764705
sS'a'
F0.058823529411764705
sS'c'
F0.058823529411764705
sS'g'
F0.058823529411764705
sS'C'
F0.058823529411764705
sS'0'
F0.17647058823529413
sS'r'
F0.23529411764705882
sS't'
F0.17647058823529413
sS'7'
F0.058823529411764705
sS'9'
F0.058823529411764705
stRp22
sb.S'79gcr0tra0tr0trCA'
p1
.(lp1
(F1800.622828
F1802.040493
tp2
a.cnumpy.core.multiarray
scalar
p1
(cnumpy
dtype
p2
(S'f8'
I0
I1
tRp3
(I3
S'<'
NNNI-1
I-1
I0
tbS'\x82\xb4h\x95\xf00\x8e?'
tRp4
.F0.015625000000000007
.