ccopy_reg
_reconstructor
p1
(cpykov
Vector
p2
c__builtin__
dict
p3
(dp4
S'A'
F0.024676850763807285
sS'C'
F0.027027027027027025
sS'D'
F0.0011750881316098707
sS'G'
F0.032902467685076382
sS'I'
F0.0035252643948296119
sS'H'
F0.023501762632197415
sS'9'
F0.0011750881316098707
sS'a'
F0.021151586368977671
sS'c'
F0.017626321974148061
sS'd'
F0.0047003525264394828
sS'g'
F0.53584018801410094
sS'i'
F0.052878965922444184
sS'h'
F0.14101057579318452
sS'0'
F0.014101057579318449
sS'r'
F0.022326674500587541
sS'u'
F0.0094007050528789656
sS't'
F0.016451233842538191
sS'7'
F0.0011750881316098707
sS'y'
F0.014101057579318446
sS'x'
F0.027027027027027029
sS'z'
F0.0082256169212690956
stRp5
.ccopy_reg
_reconstructor
p1
(cpykov
Chain
p2
c__builtin__
dict
p3
(dp4
(S'G'
S'H'
tp5
F0.39285714285714279
s(S'A'
S't'
tp6
F0.14285714285714288
s(S'G'
S'G'
tp7
F0.17857142857142858
s(S'h'
S'i'
tp8
F0.058333333333333327
s(S'u'
S'u'
tp9
F0.125
s(S'g'
S'a'
tp10
F0.0021929824561403512
s(S'i'
S'h'
tp11
F0.13333333333333333
s(S'I'
S'i'
tp12
F0.33333333333333337
s(S'0'
S'x'
tp13
F0.58333333333333337
s(S'i'
S'0'
tp14
F0.022222222222222223
s(S'u'
S'x'
tp15
F0.125
s(S'z'
S'h'
tp16
F0.14285714285714285
s(S'a'
S'C'
tp17
F0.55555555555555558
s(S'y'
S'x'
tp18
F0.58333333333333348
s(S'g'
S'i'
tp19
F0.006578947368421054
s(S't'
S'z'
tp20
F0.071428571428571425
s(S'u'
S't'
tp21
F0.125
s(S'h'
S'g'
tp22
F0.63333333333333319
s(S'x'
S'g'
tp23
F0.13043478260869565
s(S'a'
S'g'
tp24
F0.055555555555555559
s(S'g'
S'C'
tp25
F0.0021929824561403512
s(S'7'
S'i'
tp26
F1
s(S'x'
S'u'
tp27
F0.043478260869565216
s(S'u'
S'I'
tp28
F0.125
s(S'I'
S'G'
tp29
F0.33333333333333337
s(S't'
S'r'
tp30
F0.92857142857142849
s(S'y'
S'H'
tp31
F0.083333333333333343
s(S'g'
S'h'
tp32
F0.16447368421052633
s(S'g'
S'g'
tp33
F0.8092105263157896
s(S'd'
S'g'
tp34
F0.5
s(S'z'
S'r'
tp35
F0.2857142857142857
s(S'r'
S'y'
tp36
F0.10526315789473685
s(S'h'
S'z'
tp37
F0.0083333333333333315
s(S'z'
S'u'
tp38
F0.2857142857142857
s(S'u'
S'0'
tp39
F0.125
s(S'G'
S'D'
tp40
F0.035714285714285712
s(S'G'
S'h'
tp41
F0.071428571428571425
s(S'c'
S'r'
tp42
F0.13333333333333333
s(S'i'
S'u'
tp43
F0.022222222222222223
s(S'G'
S'g'
tp44
F0.035714285714285712
s(S'u'
S'C'
tp45
F0.125
s(S'r'
S'z'
tp46
F0.052631578947368425
s(S'C'
S'A'
tp47
F0.91304347826086962
s(S'g'
S'x'
tp48
F0.0021929824561403512
s(S'I'
S'I'
tp49
F0.33333333333333337
s(S'G'
S'y'
tp50
F0.21428571428571427
s(S'A'
S'C'
tp51
F0.28571428571428575
s(S'C'
S'r'
tp52
F0.086956521739130432
s(S'D'
S'd'
tp53
F1
s(S'h'
S'C'
tp54
F0.0083333333333333315
s(S'y'
S'g'
tp55
F0.083333333333333343
s(S'r'
S'0'
tp56
F0.2105263157894737
s(S'x'
S'G'
tp57
F0.043478260869565216
s(S'x'
S'x'
tp58
F0.21739130434782608
s(S'H'
S'H'
tp59
F0.099999999999999992
s(S'y'
S'y'
tp60
F0.083333333333333343
s(S'r'
S'a'
tp61
F0.052631578947368425
s(S'i'
S'd'
tp62
F0.044444444444444446
s(S'g'
S'd'
tp63
F0.0021929824561403512
s(S'A'
S'a'
tp64
F0.095238095238095233
s(S'0'
S't'
tp65
F0.41666666666666663
s(S'x'
S'y'
tp66
F0.13043478260869565
s(S'r'
S'C'
tp67
F0.2105263157894737
s(S'h'
S'x'
tp68
F0.0083333333333333315
s(S'a'
S'0'
tp69
F0.055555555555555559
s(S'c'
S'a'
tp70
F0.8666666666666667
s(S'd'
S'u'
tp71
F0.25
s(S'g'
S'G'
tp72
F0.006578947368421054
s(S'g'
S'u'
tp73
F0.0021929824561403512
s(S'i'
S'g'
tp74
F0.066666666666666666
s(S'x'
S'H'
tp75
F0.2608695652173913
s(S'x'
S'h'
tp76
F0.13043478260869565
s(S'u'
S'z'
tp77
F0.25
s(S'a'
S'z'
tp78
F0.055555555555555559
s(S'y'
S'i'
tp79
F0.083333333333333343
s(S'h'
S'u'
tp80
F0.0083333333333333315
s(S'd'
S'0'
tp81
F0.25
s(S'r'
S'c'
tp82
F0.36842105263157898
s(S'g'
S'c'
tp83
F0.0021929824561403512
s(S'9'
S'7'
tp84
F1
s(S'H'
S'G'
tp85
F0.90000000000000002
s(S'A'
S'c'
tp86
F0.28571428571428575
s(S'z'
S'z'
tp87
F0.14285714285714285
s(S'y'
S'h'
tp88
F0.083333333333333343
s(S'A'
S'0'
tp89
F0.19047619047619047
s(S'a'
S'A'
tp90
F0.055555555555555559
s(S'a'
S't'
tp91
F0.22222222222222224
s(S'G'
S'I'
tp92
F0.035714285714285712
s(S'h'
S'c'
tp93
F0.0083333333333333315
s(S'z'
S'x'
tp94
F0.14285714285714285
s(S'h'
S'h'
tp95
F0.26666666666666661
s(S'G'
S't'
tp96
F0.035714285714285712
s(S'x'
S'a'
tp97
F0.043478260869565216
s(S'i'
S'i'
tp98
F0.71111111111111114
stRp99
(dp100
S'_guess'
p101
g1
(cpykov
Vector
p102
g3
(dp103
S'A'
F0.024676850763807285
sS'C'
F0.027027027027027025
sS'D'
F0.0011750881316098707
sS'G'
F0.032902467685076382
sS'I'
F0.0035252643948296119
sS'H'
F0.023501762632197415
sS'9'
F0.0011750881316098707
sS'a'
F0.021151586368977671
sS'c'
F0.017626321974148061
sS'd'
F0.0047003525264394828
sS'g'
F0.53584018801410094
sS'i'
F0.052878965922444184
sS'h'
F0.14101057579318452
sS'0'
F0.014101057579318449
sS'r'
F0.022326674500587541
sS'u'
F0.0094007050528789656
sS't'
F0.016451233842538191
sS'7'
F0.0011750881316098707
sS'y'
F0.014101057579318446
sS'x'
F0.027027027027027029
sS'z'
F0.0082256169212690956
stRp104
sb.S'97iiiiiiiiiiiiidgihgihiiiiiiiiiiiiiii0xxhggggggggggggghgggghgggggggggggggggggggggggighggggggggggggggghgggggggggghhggduzuzutzzryiggghggghggggggggggggghhhghgggghiuIIihiiiiiidgaguuxu0xxhgggggghuCAazrzhhiihzxaAtryxggggggggggggggggggghgggggggggggggggggggggggggggggggggggggghghgggggghhgghgggggggghgggghgggghggCraCAa0xxhhcrCA0trcaCA0tr0tr0xxgghggghghiggggghggggggggggggggggggggggggggghghghghghghggghghgggcr0xygghghhhghgghggggggggggghggghgggggGggGGhghggghggghghghggghgggghgghgghgggggggghghhggggghgghgghgghggghgghggghghhgghgghhhghgghhghgggggghggghhhhghggghxyyHHHGyxHGHGHGyxHGHGHGyxHGHGHGyxHGHGHGyxHGHGIGyxHGHGHGtrcaCAcaCAcaCAcatrcaCAcatrcaCACA0trCACAcaCACAtrcatrcatrcaCAcaCACA0xyhhhhhhhihhhhhhgGhhihhhgggggggxGGGGGDd0xxggghghgghgggggggggghggggggggggggggggggggghhhgggggggggggggggggggggggggggghggghggggggggggghggggggggggggggggggggggggggghggggggggghCr0trCACACAtrCA'
p1
.(lp1
(F5.0331159999999997
F5.7872430000000001
tp2
a.cnumpy.core.multiarray
scalar
p1
(cnumpy
dtype
p2
(S'f8'
I0
I1
tRp3
(I3
S'<'
NNNI-1
I-1
I0
tbS"yU\xb3\xba'f\x83?"
tRp4
.F7.7620286101166733e-306
.