ccopy_reg
_reconstructor
p1
(cpykov
Vector
p2
c__builtin__
dict
p3
(dp4
S'A'
F0.025000000000000001
sS'C'
F0.025000000000000001
sS'G'
F0.018750000000000003
sS'H'
F0.043749999999999997
sS'x'
F0.037500000000000006
sS'a'
F0.0062500000000000003
sS'c'
F0.012500000000000001
sS'd'
F0.012500000000000001
sS'g'
F0.54999999999999993
sS'i'
F0.018750000000000003
sS'h'
F0.14374999999999999
sS'0'
F0.018750000000000003
sS'r'
F0.018749999999999999
sS'u'
F0.012500000000000001
sS't'
F0.018749999999999999
sS'y'
F0.025000000000000001
sS'8'
F0.012500000000000001
stRp5
.ccopy_reg
_reconstructor
p1
(cpykov
Chain
p2
c__builtin__
dict
p3
(dp4
(S'G'
S'H'
tp5
F0.66666666666666663
s(S'u'
S'x'
tp6
F0.5
s(S'8'
S'8'
tp7
F0.5
s(S'H'
S'H'
tp8
F0.4285714285714286
s(S'i'
S'h'
tp9
F0.33333333333333331
s(S'y'
S'y'
tp10
F0.25
s(S'H'
S'0'
tp11
F0.14285714285714288
s(S'A'
S't'
tp12
F0.5
s(S'g'
S'x'
tp13
F0.011363636363636366
s(S'x'
S'H'
tp14
F0.16666666666666666
s(S'g'
S'd'
tp15
F0.011363636363636366
s(S'y'
S'x'
tp16
F0.25
s(S'g'
S'i'
tp17
F0.034090909090909095
s(S'C'
S'A'
tp18
F1
s(S'H'
S'G'
tp19
F0.4285714285714286
s(S'x'
S'g'
tp20
F0.49999999999999989
s(S'd'
S'u'
tp21
F1
s(S'a'
S'0'
tp22
F1
s(S'c'
S'a'
tp23
F0.5
s(S'0'
S'y'
tp24
F0.33333333333333331
s(S'i'
S'g'
tp25
F0.66666666666666663
s(S'G'
S'0'
tp26
F0.33333333333333331
s(S't'
S'r'
tp27
F1
s(S'y'
S'H'
tp28
F0.25
s(S'g'
S'h'
tp29
F0.15909090909090909
s(S'g'
S'g'
tp30
F0.78409090909090917
s(S'x'
S'x'
tp31
F0.33333333333333331
s(S'h'
S'g'
tp32
F0.60869565217391308
s(S'A'
S'c'
tp33
F0.25
s(S'y'
S'h'
tp34
F0.25
s(S'c'
S'r'
tp35
F0.5
s(S'u'
S'y'
tp36
F0.5
s(S'h'
S'c'
tp37
F0.043478260869565223
s(S'8'
S'y'
tp38
F0.5
s(S'h'
S'h'
tp39
F0.30434782608695654
s(S'0'
S't'
tp40
F0.33333333333333331
s(S'r'
S'C'
tp41
F1
s(S'h'
S'd'
tp42
F0.043478260869565223
s(S'A'
S'C'
tp43
F0.25
s(S'0'
S'x'
tp44
F0.33333333333333331
stRp45
(dp46
S'_guess'
p47
g1
(cpykov
Vector
p48
g3
(dp49
S'A'
F0.025000000000000001
sS'C'
F0.025000000000000001
sS'G'
F0.018750000000000003
sS'H'
F0.043749999999999997
sS'x'
F0.037500000000000006
sS'a'
F0.0062500000000000003
sS'c'
F0.012500000000000001
sS'd'
F0.012500000000000001
sS'g'
F0.54999999999999993
sS'i'
F0.018750000000000003
sS'h'
F0.14374999999999999
sS'0'
F0.018750000000000003
sS'r'
F0.018749999999999999
sS'u'
F0.012500000000000001
sS't'
F0.018749999999999999
sS'y'
F0.025000000000000001
sS'8'
F0.012500000000000001
stRp50
sb.S'88yyHHHH0yxHGHGHG0xxggigghduyhhgxxgggggghgduxgggggggggggggggggggggggghgggggghhhgggggghggggggggghggggigggggghggggggggggghgihggghghghghghgghhhhhcrCAtrCAtrCACAca0tr'
p1
.(lp1
(F54.107736000000003
F397.52198900000002
tp2
a.cnumpy.core.multiarray
scalar
p1
(cnumpy
dtype
p2
(S'f8'
I0
I1
tRp3
(I3
S'<'
NNNI-1
I-1
I0
tbS'\xce\xff\xe9\xd3t\x99\x83?'
tRp4
.F1.2189705261303279e-51
.