ccopy_reg
_reconstructor
p1
(cpykov
Vector
p2
c__builtin__
dict
p3
(dp4
S'd'
F0.028985507246376812
sS'g'
F0.043478260869565216
sS'i'
F0.11594202898550725
sS'h'
F0.20289855072463769
sS'G'
F0.014492753623188406
sS'0'
F0.086956521739130432
sS'r'
F0.028985507246376812
sS'u'
F0.10144927536231885
sS'4'
F0.014492753623188406
sS'H'
F0.043478260869565216
sS'y'
F0.21739130434782608
sS'x'
F0.043478260869565216
sS'8'
F0.014492753623188406
sS'z'
F0.028985507246376812
sS't'
F0.014492753623188406
stRp5
.ccopy_reg
_reconstructor
p1
(cpykov
Chain
p2
c__builtin__
dict
p3
(dp4
(S'y'
S'0'
tp5
F0.13333333333333333
s(S'y'
S'g'
tp6
F0.13333333333333333
s(S'h'
S'i'
tp7
F0.2857142857142857
s(S'r'
S'0'
tp8
F0.5
s(S'h'
S'h'
tp9
F0.2857142857142857
s(S'i'
S'h'
tp10
F0.875
s(S'i'
S'r'
tp11
F0.125
s(S'y'
S'y'
tp12
F0.20000000000000001
s(S'0'
S'x'
tp13
F0.16666666666666669
s(S'8'
S'4'
tp14
F1
s(S'z'
S'h'
tp15
F0.5
s(S'x'
S'H'
tp16
F0.66666666666666674
s(S'u'
S'0'
tp17
F0.14285714285714285
s(S'x'
S'y'
tp18
F0.33333333333333337
s(S'd'
S'u'
tp19
F1
s(S'h'
S'x'
tp20
F0.071428571428571425
s(S'y'
S'x'
tp21
F0.13333333333333333
s(S'g'
S'u'
tp22
F1
s(S'0'
S'y'
tp23
F0.66666666666666674
s(S'z'
S'i'
tp24
F0.5
s(S'u'
S'z'
tp25
F0.14285714285714285
s(S't'
S'r'
tp26
F1
s(S'y'
S'i'
tp27
F0.20000000000000001
s(S'r'
S'y'
tp28
F0.5
s(S'G'
S'u'
tp29
F1
s(S'H'
S'y'
tp30
F0.33333333333333337
s(S'h'
S'g'
tp31
F0.071428571428571425
s(S'y'
S'h'
tp32
F0.13333333333333333
s(S'4'
S'u'
tp33
F1
s(S'u'
S'y'
tp34
F0.7142857142857143
s(S'y'
S'z'
tp35
F0.066666666666666666
s(S'H'
S'H'
tp36
F0.33333333333333337
s(S'0'
S't'
tp37
F0.16666666666666669
s(S'h'
S'0'
tp38
F0.071428571428571425
s(S'h'
S'd'
tp39
F0.14285714285714285
s(S'h'
S'G'
tp40
F0.071428571428571425
s(S'H'
S'0'
tp41
F0.33333333333333337
stRp42
(dp43
S'_guess'
p44
g1
(cpykov
Vector
p45
g3
(dp46
S'd'
F0.028985507246376812
sS'g'
F0.043478260869565216
sS'i'
F0.11594202898550725
sS'h'
F0.20289855072463769
sS'G'
F0.014492753623188406
sS'0'
F0.086956521739130432
sS'r'
F0.028985507246376812
sS'u'
F0.10144927536231885
sS'4'
F0.014492753623188406
sS'H'
F0.043478260869565216
sS'y'
F0.21739130434782608
sS'x'
F0.043478260869565216
sS'8'
F0.014492753623188406
sS'z'
F0.028985507246376812
sS't'
F0.014492753623188406
stRp47
sb.S'84uzihihiryguyguyihihihduyihGu0tr0yzhguyihduyh0xyyhhhhhxHy0yxHH0y0yyyx'
p1
.(lp1
(F1801.541228
F7.5292300000000001
tp2
a.cnumpy.core.multiarray
scalar
p1
(cnumpy
dtype
p2
(S'f8'
I0
I1
tRp3
(I3
S'<'
NNNI-1
I-1
I0
tbS'\xd1\xba9\x93+{\x83?'
tRp4
.F3.5238799071730228e-33
.