ccopy_reg
_reconstructor
p1
(cpykov
Vector
p2
c__builtin__
dict
p3
(dp4
S'A'
F0.048662913441238562
sS'C'
F3.518648838845883e-05
sS'E'
F1.7593244194229415e-05
sS'G'
F1.7593244194229415e-05
sS'F'
F1.7593244194229415e-05
sS'I'
F0.00211118930330753
sS'H'
F0.06407459535538354
sS'a'
F0.40891977480647429
sS'c'
F0.3836734693877551
sS'g'
F1.7593244194229415e-05
sS'i'
F0.00066854327938071774
sS'h'
F0.0062807881773399013
sS'1'
F1.7593244194229415e-05
sS'r'
F0.04273399014778325
sS't'
F0.04273399014778325
sS'8'
F1.7593244194229415e-05
stRp5
.ccopy_reg
_reconstructor
p1
(cpykov
Chain
p2
c__builtin__
dict
p3
(dp4
(S'a'
S'a'
tp5
F0.0085617175063459963
s(S'g'
S'I'
tp6
F1
s(S'H'
S'I'
tp7
F0.00027457440966501917
s(S'i'
S'a'
tp8
F0.026315789473684213
s(S'h'
S'A'
tp9
F0.91036414565826329
s(S'A'
S'F'
tp10
F0.00036153289949385393
s(S'H'
S'H'
tp11
F0.0079626578802855577
s(S'I'
S'H'
tp12
F0.82499999999999996
s(S'r'
S'a'
tp13
F0.0016467682173734047
s(S'a'
S'H'
tp14
F0.051585423568386184
s(S'i'
S'H'
tp15
F0.92105263157894746
s(S'h'
S'a'
tp16
F0.075630252100840331
s(S'A'
S'a'
tp17
F0.00036153289949385393
s(S'I'
S'a'
tp18
F0.083333333333333329
s(S'I'
S'h'
tp19
F0.033333333333333333
s(S'c'
S'a'
tp20
F1
s(S'a'
S'h'
tp21
F0.00077442670911672339
s(S'A'
S'i'
tp22
F0.013738250180766451
s(S'a'
S'c'
tp23
F0.83392849460052498
s(S'F'
S'h'
tp24
F1
s(S'8'
S'1'
tp25
F1
s(S'A'
S'A'
tp26
F0.0057845263919016629
s(S'E'
S'g'
tp27
F1
s(S'H'
S'a'
tp28
F0.3272926963207029
s(S'G'
S'A'
tp29
F1
s(S'H'
S'h'
tp30
F0.00082372322899505756
s(S'C'
S'a'
tp31
F1
s(S'r'
S'c'
tp32
F0.99835323178262669
s(S'h'
S'H'
tp33
F0.014005602240896359
s(S'a'
S'E'
tp34
F4.3023706062040185e-05
s(S'A'
S'h'
tp35
F0.11966738973246566
s(S'i'
S'G'
tp36
F0.026315789473684213
s(S'A'
S'I'
tp37
F0.037237888647866958
s(S'a'
S'I'
tp38
F0.00060233188486856254
s(S'a'
S't'
tp39
F0.10450458202469561
s(S'1'
S'H'
tp40
F1
s(S'I'
S'A'
tp41
F0.049999999999999996
s(S'H'
S'A'
tp42
F0.6636463481603514
s(S'I'
S'I'
tp43
F0.0083333333333333332
s(S'i'
S'A'
tp44
F0.026315789473684213
s(S'A'
S'H'
tp45
F0.82212581344902391
s(S't'
S'r'
tp46
F1
s(S'A'
S'C'
tp47
F0.00072306579898770787
stRp48
(dp49
S'_guess'
p50
g1
(cpykov
Vector
p51
g3
(dp52
S'A'
F0.048662913441238562
sS'C'
F3.518648838845883e-05
sS'E'
F1.7593244194229415e-05
sS'G'
F1.7593244194229415e-05
sS'F'
F1.7593244194229415e-05
sS'I'
F0.00211118930330753
sS'H'
F0.06407459535538354
sS'a'
F0.40891977480647429
sS'c'
F0.3836734693877551
sS'g'
F1.7593244194229415e-05
sS'i'
F0.00066854327938071774
sS'h'
F0.0062807881773399013
sS'1'
F1.7593244194229415e-05
sS'r'
F0.04273399014778325
sS't'
F0.04273399014778325
sS'8'
F1.7593244194229415e-05
stRp53
sb.S'81HaHaHaHaHaHaHaHaHaHaHaHaHAHAHaHAHAHAHAHAHAHAHAHAHAHAHAHAHAHAHAHAHAHAHAHAHAHAHAHAHAHAhaHahAHAhAHAhAHAhAHAHAHAHAHAHAHAHaHaHaHaHAhAHAhAHAhAHAhAHAhAHAhahahAHAhAHAhAHAhAHAhAHAhAHAhAHAhAHAhAHAhAHAhAHAhAHAhAHAhAHAhAHAHAHAHAHAHAHAHAHAHAHAHAHAHAHAHAHAHAHAHAHAHAHAIHaHAhAHAhAHAhahahAHAhAHAhAHaHaHaHaHaHaHaHaHahaHaHaHaHaHaHaHaHaHaHAHAHAHAHAHaHaHAHAHAHAHAHAHAHAHaHaHAhAHAhAHAhAHAhAHAhAHAhAHAhAHaHAHAHAhAHAhAHAhAHAhAHAhAHAhAHAhAHAhAHAhAHAhAHAHAHAHAHAHAHAHAHAHaHaHAHAHAHAHAHAHAHAHAHAHAhAHAHAHAHAHAHAHHaEgIaHAhAIHaHAhAHAhAHAhAHAhAHAhAHAhAHAHAHAHAHAHAHAHAHAHAHAHAHAHAHAHAHAHAHAHAHAHAHAHAHAHAHAHAHAHAHAHaHaHAhAHaHaHAhAHAhAHAhAHAhAHAhAHAhAHAhAHAhAHAhAHaHAhAHAhAHAhAHAhAHAhAHAhAHAhAHAhAHAhAHAhAHaHaHaHaHaHaHaHaHaHaHaHaHaHaHaHaHaHaHaHaHaHaHaHaHaHaHaHAhAHAhAHAhAHAhAHAhAHAhahahAHAhAHAhAHAHAHAHAHAHAHAHAHAHaHaHAHAHAHAHAHAHAHAHAHaHaHAHAHAhAHAhAHAhAHAhAHAhAHAhAHAhAHAhAHaHAHAHAhAHAhAHAhAHAhAHAhAHAHAhAIHaHAHAHAhAHAHAHAHaHaHAHAHAhAHAHAHAHaHAHaHAHaHaHAHAHAHaHaHAHAHaHaHAHAhahAHAHAHAHaHaHAHAHAhAHAHAHAIHAHAHAHAHAHAHAHAHaHaHAHAHaHaHAHAHaHAHaHAHAHaHaHAHAHAHAHAHAHAHaHaHaHaHaHaHAHAHAhAHAHAHAHaHaHAHAHAhAHAHAHAIHaHAHAHaHaHAHAHAhAHAHAHaHAHaHAHAHAhAHAHAHAHaHaHAHAHAhahAHaHAHaHaHAHAHaHaHAHAHAHAHAHAHAhAHaHAHAHAhAHAHAHAIHaHAiGAIaaIaHaHaHAhAHaHAHAHaHaHAHAHAhAHAHAHAhAHaHAHAHAhAHaHAHAHaHaHAHAHAhAHaHAHAHaHaHAHHAAhAHaHAHAHaHaHAHaHAiHaHAHAHaHaHAHAHAiHaHAHAHaHaHAHAHAhAHaHAHAHaIaHAHAHAhAHaHAHAHaHaHAHAHAiHaHAHAHaHaHAHAHAHAHaHAHAHaHaHAHAHAHaHaHAHAHaHAhAHAHAHaHaHAHAHaHaHAHAHAIHaHAHaHAHaHAHAHAIHaHAHAHaHaHAHAHAHaHaHAHAHaHaHAHAHAHaHaHAHAHaHaHAHAHAIHaHAHAHaHaHAHAHAHaHaHAHAHaHaHAHAHAHaHaHAHAHaHaHAHAHAHHaHAHAHAHAHAHAHAIHaHAHAHAHaHAHAhAIHaHAHAHAHAHAHAHAIHaHAHAHaHaHAHAHAIHaHAHAHaHaHAHAHAhAHaHaHaHaHaHAHAHAiHaHAHAHaHaHAHAHAhAHaHAHAHaHaHAHAHAHaHaHAHAHaHaHAHAHAHaHaHAHAHaHaHAHAHAIHaHAHAHaHaHAHAHAIHaHAHAHaHaHAHAHAHaHaHAHAHaHaHAHAHAHaHaHAHAHaHaHAHAHAIHaHAHAHaIaHAHAHAHaHaHAHAHaHaHAHAHAHaHaHAHAHaHaHAHAHAHHaHAHAHAHAHAHAHAIHaHAHAHAHAHAhAHAHaHaHAHAHAHAHAHAHAHaHaHAHAHaHAHAHAHAIHaHAHAHAhAHAHAHAHaHAHaHAHAhAHAHAHAHaHaHAHAHAhAHAHAHAHaHaHAHAHAhAHAHAHAIHaHAHAHAhAHAHAHAIHaHAHAHAhAHAHAHAHaHaHAHAHAhAHAHAHAHaHaHAHAHAhAHAHAHAIHaHAHAHAhAHAHAHAHaHaHAHAHAhAHAHAHAHaHaHAHAHAhAHAHAHAHaHaHaHaHAhAHAHAHAHaHaHAHAHAhAHaHAHAHaHaHAHAHAhAHaHAHAHaHaHAHAHAhAHaHAHAHaHaHAHAHAhAHaHAHAHaHaHAhAHAiHaHAHAHaHaHAHAHAiHaHAHAHaHaHAHAHAhAHaHAHAHaHaHAHAHAhAHAHAHAIHaHAHAHAhAHAHAHAHaHaHAHAHAhAHAHAHAHaHaHAHAHAhAHAHAHAHaHaHAHAHAhAHAHAHAHHaHAHAHAhAHAHAhaHaHaHAHAHaHaHAHAHAHaHaHAHAHaHaHAHAHAIHaHAHAHaHaHAHAHAIHaHAHAHaHaHAHAHAiHaHAHAHaHaHAHAHAhAHAHAHAHHaHAHAHAhAHAHAHAIHaHAHAHAhAHAHAHAHaHaHAHAHAhAHAhAHAHaHaHAHAHAhAHAHAHAIHaHAHAHahAHAHAHAHaHaHAHAHAhAHAHAHAHaHAHaHAHAhAHAHAHAIHaHAHAHAhAHAHAHAHaHaHAHAHAhAHAHAHAHaHaHAHAHAiHaHAHAHaHaHAHAHAhAHaHAHAHaHAhAHAHAhAHaHAHAHaHaHAHAIAhAHaHAHAHaHaHAHAHAiHaHAHAHaHaHAHAHAhAHaHAHAHaHaHAHAHAhAHaHAHAHaHaHAHAHAiHaHAHAHaHaHAHAIIhaHIAiaHaHAHAHAhAHaHAHAHaHaHAHAHAiHaHAHAHaHaHAHAHAHAHaHAHAHHaHAHaHaIaHaHAHAHaHaHAHAHAHaHaHAHAHaHaHAHAHAHHaHAHAHaHaHAHAHAIHaHAHAHaHaHAHAHAHaHaHAHAIaHaHAFhAIHAHaIAHAHaHaHAHAHAiHaHAHAHaHaHAHAHAHAHAhaHaHaHaHAHAHAHaHaHAHAHaHaHAHAHAhAHaHAHAHaHaHAHAHAHaHaHAHAHaHaHaHaHAIHaHAHAHaHaHAHAHAHaHaHAHAhAHaHAHAHAHaHaHAHAHAHAHAHAHAIHAhAHAHAHAHAHAHAHaHaHAHAHAHAHAHAHaHAHaHAHAHAhAHAHAHAHaHaHAHAHAhahAHAHAHaHaHAHAHAhAHAHAHAIHaHAHaHAhAHAHAHAIHaHAHAHAhAHAHAHAHaHaHAHAHAhAHAHAHAIHaHAHAHAhAHAhAHAHaHaHAHAHAhAHAHAHAHaHaHAHAHAhAHAHAHAHaHaHAHAHAhAHAHAHAHaHaHAHAHAiHaHAHAHaHaHAHAHAhAHaHAHAHaHaHAHAHAhAHaHAHAHaHaHAHAHAIHaHAHAHaHaHAHAHAiHaHAHAHaHaHAHAHAhAHaHAHAHaHaHAHAHAhAHaHAHAHaHaHAHAHAiHaHAHAHaHaHAHAHAhAHaHAHAHaHaHAHAHAHaHaHAHAHaHaHAHAHAHHaHAHAHaHaHAHAHAIHaHAHAHaHaHAHAHAHaHaHAHAHaHaHAHaHaHaHaHAHAHaHaHAHAHAHaHaHAHAHaHaHaHaHAHaHaHAHAHaHaHAHAHAHaHaHAHAHaHaHAHAHAiHaHAHAHaHaHAHAHAhAHAHAHAIHaHAHAHaHaHAHAHAHaHaHAHAHaHaHAHAHAhAHAHAHAHaHaHAHAHAHahAHAHAHaHaHAHAHaHaHAHAHAiHaHAHAHaHaHAHAHAhAHAHAHAIHaHAHAHAHAHAHAHAhaHaHAHAHaHaHAHAHAhAHaHAHAHaHaHAHAHAhAHAHAHAIHaHAHAHAhAHAHAHAHaHaHAHAHaHaHAHAHAhAHAHAHAHaHaHAHAHAHAHAHAHAHaHaHAHAHaHaHAHAHAiHaHAHAHaHaHAHAHAhAHAHAHAHHaHAHAHaHaHAHAHAiHaHAHAHaHaHAHAHAhAHAHAHAHaHaHAHAHaHaHAHAHAhAHAHAHAIHaHAHAHAhAHAHAHAHaHaHAHAHaHaHAHAHAHaHaHAHAHaHaHAHAHAhAHAHAHAIaIaHAHAHAHAHAHAHAhAHaHAHAHaHaHAHAHAhAHaHAHAHaHaHAHAHAhAHAHAHAHaHaHAHAHaHaHAHAHAhAHaHAHAHaHAhAHAHAhHaHAHAHaHAHaHACacacacacahaaHaHAHAHAhAHAHAHAIHaHAhAHaHaHAHAHAHAHAHAHAHaHaHAHAHAhAHAHAHAIHaHAHAHaHaHAHAHAhAHaHaHaHaHaHAHAHAhAHAHAHAHaHaHAHAHAhAHAHAHAIHaHAHAHaHaHAHAHAhHaHAHAHaHaHAHAhaHaHAHAHAHaHaHAHAHaHAHAHAHAIHaHAHAHAHAHAHAHAHaHAHaHAHAHAHAHAHAHaHaHAHAHAhAHAHAHAHaHaHAHAHAhAHAHAHAHaHaHAHAHAhAHAHAHAHaHaHAHAHAhAHAHAHAIHaHAHAHAhAHAHAHAIHaHAHAHaHaHAHAHAIHaHAHAHaHaHAHAHAHaHaHAHAHaHaHAHAHAIHAHAHaHaHaHAHAHaHaHaHaHaHaHaHaHaHAHaHaHAHAHaHaHAHAHAIHaHAIAHaHaHAHAHAHaHaHAHAHaHaHHAAHAHaHaHAHAHaHaHAHAHAHaHaHAHAHaHaHAHAHAIHaHAHAHAHAHAHAHAIHaHAHAhaHAHAHAHAHaHaHAHAHAHAHAHAHAHaHaHAHAHAHAHAHAHAIHaHAHAhahAHaHAHAHaHaHAHAHAiAHAHAHAHaHaHAHAHAhAHAHAHAHaHaHAHAHAhAHAHaHaIHaHAHAHAhAHAHAHAIHaHAHAHAhAHAHAHAHaHaHAHAHAhAHAHAHAHaHaHAHAHAhAHAHAHAIHaHAHAHAhAHAHAHAHaHaHAHAHAhAHAHAHAHaHaHAHAHAhAHaHAHAHaHaHAHAHAiHaHAHAHaHaHAHAHAhAHaHAHAHaHaHAHAHAhAHaHAHAHaHaHAHAHAhAHaHAHAHaHaHAHAHAiHaHAHAHaHaHAHAHAiHaHAHAHaHaHAHAHAhAHaHAHAHaHaHAHAHAhAHaHAHAHaHaHAHAHAhAHaHAHAHaHaHAHAHAhHaHAHAHaHaHAHAHAhAHAHAHAHaHaHAHAHaHaHAHAHAIHaHAHAHaHaHAHAHAhAHAHAHAIHaHAHAHAHAHAHAHAIHaHAHAHaHaHAHAHAHaHaHAHAHaHaHAHAHAHHaHAHAHaHaHAHAHAiHaHAHAHaHaHAHaHAhAHAHAHAIHaHAHAHaHaHAHAHAHaHaHAHAHaHaHAHAHAhAHAHAHAIHaHAHAHaHaHAHAHAiHaHAHAHaHaHAHAHAhAHaHAHAHaHaHAHAHAHAHAHAHAHaHaHAhAHAHaHAHAHAIHaHAHAHaHaHAHAHAiHaHAHAHaHaHAHAHAhAHAHAHAHaHaHAHAHaHaHAHAHAhAHaHAHAHaHaHAHAHAhAHAHAHAHaHaHAhAHaHaHAHAHAHaHaHAHAHaHaHAHAHAhaHaHAHAIHaHAHAHAHAHAHAHAHaHaHAHaHAHaHAHAHAhAHaHAHAHaHaHAHAHAhAHaHaHAHaHaHAHAHAhAHAHAHAHaHaHAHAHaHaHAHAHAHaHaHAHAHaHaHAHAHAhAHAhAHaHaHaHAHAHAhAHAHAHAIHaHAHAHaHAHaHAHAIHaHAHAHaHaHAHAHAhAHAHAHaIhaHAHAHAhAHAHAHAHaHaHAHAHAHAhAIaHAIHaHAHAHaHaHAHAHAHAHaHAHAHAHaHAHAHAhAHaHAHAHaHaHAHAHAhAHAHaHAHaHaHAHAHAiHaHAHAHaHaHAHAHaIhaHAHAHaHaHAHAHAHAHaHAHAHaHaHAHAHAHaHaHaHaHaHaHAHAHAIHaHAHAHaHaHAHAHAiHaHAHAHaHaHAHAHAHaHaHAHAHaHaHaHaHAHaHaHAHAHaHaHAHAHAHaHaHAHAHaHaHAHAHAHaHaHAHAHaHaHAHAHAHHAhAHAHAHAHAHAHAIHaHAHAHAHAHAHAhAHaHaIAHAHAHAHAHAHAHaHaHAHAHAHAHaHAHAIHaHAHAHAhAHAHAHAHaHaHAhAHAhAHAHAHAHHaHAHAHAhAHAHAHAHaHaHAHAHAhAHAHAHAHaHaHAHAHAhAHaHaHAIHaHAHAHAhAHAHAHAHaHaHAHAHAhAHAHAHAHaHaHAHAHAhAHAHAHAIHaHAHAHAhAHAHAHAHaHaHAHAHAhAHAHAHAHaHaHHAAHAhAHAHAHAHaHaHAHAHaIhaHAHAHaHaHAHAHAhAHaHAHAHaHAhAHAHAhAHaHAHAHaHaHAHAHAhAHaHAHAHaHaHAHAHAhHaHAHAHaHaHAHAHAiHaHAHAHaHaHAHAHAiHaHAHAHaHaHAhAHAhAHaHAHAHaHaHAHAHAhAHaHAHAHaHaHAHAHAiHaHAHAHaHaHAHAHAHaHaHAHAHaHaHAHAhaHaHaHAHAHaHaHAHAHAIHaHAHAHaHAHaHAHAIHaHAHAHaHaHAHAHAHaHaHAHaHAHaHAHAHAHaHaHAHAHaHaHAHAHAhAHAHAHAIHaHAHAHAhAHAHAHAIHaHAHAHAHaHAHAHAIHaHAHAHaHaHAHAHAhAHaHaHAIHaHAHAHAhAHAHAHAHaHaHAHAHAHAHAHAHAHaHaHAHAHaHaHAHAHAIHaHAHAHaHaHAHAHAHaHaHAHAHaHaHAHAhahAHAHAHAHaHaHAHAHaHaHAHAHAhAHaHAHAHaHaHAHAHAhAHAHAHAIHaHAHaHAHaHAHAHAHaHaHAHAHaHaHAHAHAhahAHAHAHaHaHAHAHAhAHAHAHAHaHaHAHAHAhAHAHAHAHaHaHAHAHAhAHAHAHAHHaHAHAHaHaHAHAHAHAHaHAHAHaHaHAhAHAhAHAHAHAIHaHAHAHAhAHAHAHAIHaHAHAHaHaHAHAHAHAHAHAHAHaHaHAHAHAHAHAHAHAIHaHAHAHaHaHAHAHAiHaHAHAHaHaHAHAHAhAHAHAHAIHaHaHaHAHAHAHAHAHaHaHAHAHaHaHAHAHAhAHaHAHAHaHaHAHAHAhAHAHAHAHaHaHAhAHAhAHAHAHAHaHaHAHAHAhAHAHAHAIHaHAHAHAhAHAHAHAHaHaHAHAHAhAHAhAHAHaHaHAHAHAhAHAHAHAIHhAAHAHaHaHAHAHAIHaHAHAHaHaHAHAHAIHAhAHAHaHaHAHAHAiHaHAHAHaHaHAHAHaHaHAHAHAIHaHHAAHaHaHAHAHAhAHaHHAAHaHaHAHAHAHaHaHAHAHaHaIAHAHAHaHaHAHAHaHaHAHHAAHHaHAHAHaHAHaHHAAIHaHAHAHaHaHAHAHAHaHaHAhAHaHaHAHAHAIHaHAHAHaHaHAHAHAHaHaHAHAHaHaHAHAHAHAHhAAHAHaHaHaHaHAHaHaHAHAHaHaHAHAHAIHaHAHAHaHaHAHAHAIHaHAHAHaHaHAHAHAHaHaHAHAHaHaHAHAHAHaHaHAHAHaHaHAHaHaIHaHAHAHaHaHAHAHAHaHaHAHAHaHaHAHAHAHaHaHAHHAaHaHAHHAAHHaHAHAHAHAHAHaHaIHaHAHAHAHAHAHAHAHaHaHAHAHAHAHaHAHAHaHaHAHAHAHAHHAAHAIHaHAhAHAhAHAHAHAHaHaHAHAHAhAHAHAHAHaHaHAHAHAhAHAHAHAHaHaHAHAHAhAHaHaHAIHaHAHAHAhAHAHAHAIHaHAHAhahAHAHAHAHaHaHAHAHAhAHHAHAAHaHaHAHAHAhAHAHAHAIHaHAHAHAhAHAHAHAHaHaHAHAHAhAHAHAHAHaHaHAHAHaHaHAHAHAHaHaHAHAHAiHhAAHAHaHAHAHAHAhAHaHAHAHaHaHAHAHAhHaHAhAHaHaHAHAHAiHaHAHAHaHaHAHHAAhAHaHAHAHaHaHAHAHAhAHaHAHAHaHaHaHaHAhAHaHAHAHaHaHAHAHAHAHaHAHAhAHaHAHAHAhAHAHAHAHaHaHAHAHaHaHAHAHAIHaHAHAHaHaHAHAHAhAHAHAHAhAHaHAHAHaHaHAHAHAHAHAHAHAHaHaHAHAHAhAHaHAHAHaHaHAHAHAhAHAHAHAHaHaHHAAHAHAHAHAHAIHaHAHAHaHaHAHAHAhAHAHAHAHaHaHAHAHaHaHAHaHaHaHaHAHAHaHaHAHAHAhAHAHaHaHaHaHAHAHAhAHAHHAAHaHaHAHAHaHaHAHAHAiHaHAHAHaHaHAHAHAhAHAHAHACacacacacacacacacacacatrcacacacacacacacacatrcacacacacacacacacatrcacacacacacacacacatrcacacacacacacacacatrcacacacacacacacacatrcacacacacacacacacatrcacacacacacacacacatrcacacacacacacacacatrcacacacacacacacacatrcacacacacacacacacatrcacacacacacacacacatrcacacacacacacacacatrcacacacacacacacacatrcacacacacacacacacatrcacacacacacacacacatrcacacacacacacacacatrcacacacacacacacacatrcacacacacacacacacatrcacacacacacacacacatrcacacacacacacacacatrcacacacacacacacacatrcacacacacacacacacatrcacacacacacacacacatrcacacacacacacacacatrcacacacacacacacacatrcacacacacacacacacatrcacacacacacacacacatrcacacacacacacacacatrcacacacacacacacacatrcacacacacacacacacatrcacacacacacacacacatrcacacacacacacacacatrcacacacacacacacacatrcacacacacacacacacatrcacacacacacacacacatrcacacacacacacacacatrcacacacacacacacacatrcacacacacacacacacatrcacacacacacacacacatrcacacacacacacacacatrcacacacacacacacacatrcacacacacacacacacatrcacacacacacacacacatrcacacacacacacacacatrcacacacacacacacacatrcacacacacacacacacatrcacacacacacacacacatrcacacacacacacacacatrcacacacacacacacacatrcacacacacacacacacatrcacacacacacacacacatrcacacacacacacacacatrcacacacacacacacacatrcacacacacacacacacatrcacacacacacacacacatrcacacacacacacacacatrcacacacacacacacacatrcacacacacacacacacatrcacacacacacacacacatrcacacacacacacacacatrcacacacacacacacacatrcacacacacacacacacatrcacacacacacacacacatrcacacacacacacacacatrcacacacacacacacacatrcacacacacacacacacatrcacacacacacacacacatrcacacacacacacacacatrcacacacacacacacacatrcacacacacacacacacatrcacacacacacacacacatrcacacacacacacacacatrcacacacacacacacacatrcacacacacacacacacatrcacacacacacacacacatrcacacacacacacacacatrcacacacacacacacacatrcacacacacacacacacatrcacacacacacacacacatrcacacacacacacacacatrcacacacacacacacacatrcacacacacacacacacatrcacacacacacacacacatrcacacacacacacacacatrcacacacacacacacacatrcacacacacacacacacatrcacacacacacacacacatrcacacacacacacacacatrcacacacacacacacacatrcacacacacacacacacatrcacacacacacacacacatrcacacacacacacacacatrcacacacacacacacacatrcacacacacacacacacatrcacacacacacacacacatrcacacacacacacacacatrcacacacacacacacacatrcacacacacacacacacatrcacacacacacacacacatrcacacacacacacacacatrcacacacacacacacacatrcacacacacacacacacatrcacacacacacacacacatrcacacacacacacacacatrcacacacacacacacacatrcacacacacacacacacatrcacacacacacacacacatrcacacacacacacacacatrcacacacacacacacacatrcacacacacacacacacatrcacacacacacacacacatrcacacacacacacacacatrcacacacacacacacacatrcacacacacacacacacatrcacacacacacacacacatrcacacacacacacacacatrcacacacacacacacacatrcacacacacacacacacatrcacacacacacacacacatrcacacacacacacacacatrcacacacacacacacacatrcacacacacacacacacatrcacacacacacacacacatrcacacacacacacacacatrcacacacacacacacacatrcacacacacacacacacatrcacacacacacacacacatrcacacacacacacacacatrcacacacacacacacacatrcacacacacacacacacatrcacacacacacacacacatrcacacacacacacacacatrcacacacacacacacacatrcacacacacacacacacatrcacacacacacacacacatrcacacacacacacacacatrcacacacacacacacacatrcacacacacacacacacatrcacacacacacacacacatrcacacacacacacacacatrcacacacacacacacacatrcacacacacacacacacatrcacacacacacacacacatrcacacacacacacacacatrcacacacacacacacacatrcacacacacacacacacatrcacacacacacacacacatrcacacacacacacacacatrcacacacacacacacacatrcacacacacacacacacatrcacacacacacacacacatrcacacacacacacacacatrcacacacacacacacacatrcacacacacacacacacatrcacacacacacacacacatrcacacacacacacacacatrcacacacacacacacacatrcacacacacacacacacatrcacacacacacacacacatrcacacacacacacacacatrcacacacacacacacacatrcacacacacacacacacatrcacacacacacacacacatrcacacacacacacacacatrcacacacacacacacacatrcacacacacacacacacatrcacacacacacacacacatrcacacacacacacacacatrcacacacaaaacacacacatrcacacacacacacacacatrcacacacacacacacacatrcacacacacacacacacatrcacacacacacacacacatrcacacacacacacacacatrcacacacacacacacacatrcacacacacacacacacatrcacacacacacacacacatrcacacacacacacacacatrcacacacacacacacacatrcacacacacacacacacatrcacacacacacacacacatrcacacacacacacacacatrcacacacacacacacacatrcacacacacacacacacatrcacacacacacacacacatrcacacacacacacacacatrcacacacacacacacacatrcacacacacacacacacatrcacacacacacacacacatrcacacacacacacacacatrcacacacacacacacacatrcacacacacacacacacatrcacacacacacacacacatrcacacacacacacacacatrcacacacacacacacacatrcacacacacacacacacatrcacacacacacacacacatrcacacacacacacacacatrcacacacacacacacacatrcacacacacacacacacatrcacacacacacacacacatrcacacacacacacacacatrcacacacacacacacacatrcacacacacacacacacatrcacacacacacacacacatrcacacacacacacacacatrcacacacacacacacacatrcacacacacacacacacatrcacacacacacacacacatrcacacacacacacacacatrcacacacacacacacacatrcacacacacacacacacatrcacacacacacacacacatrcacacacacacacacacatrcacacacacacacacacatrcacacacacacacacacatrcacacacacacacacacatrcacacacacacacacacatrcacacacacacacacacatrcacacacacacacacacatrcacacacacacacacacatrcacacacacacacacacatrcacacacacacacacacatrcacacacacacacacacatrcacacacacacacacacatrcacacacacacacacacatrcacacacacacacacacatrcacacacacacacacacatrcacacacacacacacacatrcacacacacacacacacatrcacacacacacacacacatrcacacacacacacacacatrcacacacacacacacacatrcacacacacacacacacatrcacacacacacacacacatrcacacacacacacacacatrcacacacacacacacacatrcacacacacacacacacatrcacacacacacacacacatrcacacacacacacacacatrcacacacacacacacacatrcacacacacacacacacatrcacacacacacacacacatrcacacacacacacacacatrcacacacacacacacacatrcacacacacacacacacatrcacacacacacacacacatrcacacacacacacacacatrcacacacacacacacacatrcacacacacacacacacatrcacacacacacacacacatrcacacacacacacacacatrcacacacacacacacacatrcacacacacacacacacatrcacacacacacacacacatrcacacacacacacacacatrcacacacacacacacacatrcacacacacacacacacatrcacacacacacacacacatrcacacacacacacacacatrcacacacacacacacacatrcacacacacacacacacatrcacacacacacacacacatrcacacacacacacacacatrcacacacacacacacacatrcacacacacacacacacatrcacacacacacacacacatrcacacacacacacacacatrcacacacacacacacacatrcacacacacacacacacatrcacacacacacacacacatrcacacacacacacacacatrcacacacacacacacacatrcacacacacacacacacatrcacacacacacacacacatrcacacacacacacacacatrcacacacacacacacacatraaacacacacacacacacatrcacacacacacacacacatrcacacacacacacacacatrcacacacacacacacacatrcacacacacacacacacatrcacacacacacacacaaaatrcacacacacacacacacatrcacacacacacacacacatrcacacacacacacacacatrcacacacacacacacacatrcacacacacacacacacatrcacacacacacacacacatrcacacacacacacacacatrcacacacacacacacacatrcacacacacacacacacatrcacacacacacacacacatrcacacacacacacacacatrcacacacacacacacacatrcacacacacacacacacatrcacacacacacacacacatrcacacacacacacacacatrcacacacacacacacacatrcacacacacacacacacatrcacacacacacacacacatrcacacacacacacacacatrcacacacacacacacacatrcacacacacacacacacatrcacacacacacacacacatrcacacacacacacacacatrcacacacacacacacacatrcacacacacacacacacatrcacacacacacacacacatrcacacacacacacacacatrcacacacacacacacacatrcacacacacacacacacatrcacacacacacacacacatrcacacacacacacacacatrcacacacacacacacacatrcacacacacacacacacatrcacacacacacacacacatrcacacacacacacacacatrcacacacacacacacacatrcacacacacacacacacatrcacacacacacacacacatrcacacacacacacacacatrcacacacacacacacacatrcacacacacacacacaaaatrcacacacacacacacacatrcacacacacacacacacatrcacacacacacacacacatrcacacacacacacacacatrcacacacacacacacacatrcacacacacacacacacatrcacacacacacacacacatrcacacacacacacacacatrcacacacacacacacacatrcacacacacacacacacatrcacacacacacacacacatrcacacacacacacacacatrcacacacacacacacacatrcacacacacacacacacatrcacacacacacacacacatrcacacacacacacacacatrcacacacacacacacacatrcacacacacacacacacatrcacacacacacacacacatrcacacacacacacacacatrcacacacacacacacacatrcacacacacacacacacatrcacacacacacacacacatrcacacacacacacacacatrcacacacacacacacacatrcacacacacacacacacatrcacacacacacacacacatrcacacacacacacacacatrcacacacacacacacacatrcacacacacacacacacatrcacacacacacacacacatrcacacacacacacacacatrcacacacacacacacacatrcacacacacacacacacatrcacacacacacacacacatrcacacacacacacacacatrcacacacacacacacacatrcacacacacacacacacatrcacacacacacacacacatrcacacacacacacacacatrcacacacacacacacacatrcacacacacacacacacatrcacacacacacacacacatrcacacacacacacacacatrcacacacacacacacacatrcacacacacacacacacatrcacacacacacacacacatrcacacacacacacacacatrcacacacacacacacacatrcacacacacacacacacatrcacacacacacacacacatrcacacacacacacacacatrcacacacacacacacacatrcacacacacacacacacatrcacacacacacacacacatrcacacacacacacacacatrcacacacacacacacacatrcacacacacacacacacatrcacacacacacacacacatrcacacacacacacacacatrcacacacacacacacacatrcacacacacacacacacatrcacacacacacacacacatrcacacacacacacacacatrcacacacacacacacacatrcacacacacacacacacatrcacacacacacacacacatrcacacacacacacacacatrcacacacacacacacacatrcacacacacacacacacatrcacacacacacacacacatrcacacacacacacacacatrcacacacacacacacacatrcacacacacacacacacatrcacacacacacacacacatrcacacacacacacacacatrcacacacacacacacacatrcacacacacacacacacatrcacacacacacacacacatrcacacacacacacacacatrcacacacacacacacacatrcacacacacacacacacatrcacacacacacacacacatrcacacacacacacacacatrcacacacacacacacacatrcacacacacacacacacatrcacacacacacacacacatrcacacacacacacacacatrcacacacacacacacacatrcacacacacacacacacatrcacacacacacacacacatrcacacacacacacacacatrcacacacacacacacacatrcacacacacacacacacatrcacacacacacacacacatrcacacacacacacacacatrcacacacacacacacacatrcacacacacacacacacatrcacacacacacacacacatrcacacacacacacacacatrcacacacacacacacacatrcacacacacacacacacatrcacacacacacacacacatrcacacacacacacacacatrcacacacacacacacacatrcacacacacacacacacatrcacacacacacacacacatrcacacacacacacacacatrcacacacacacacacacatrcacacacacacacacacatrcacacacacacacacacatrcacacacacacacacacatrcacacacacacacacacatrcacacacacacacacacatrcacacacacacacacacatrcacacacacacacacacatrcacacacacacacacacatrcacacacacacacacacatrcacacacaaaacacacacatrcacacacacacacacacatrcacacacacacacacacatrcacacacacacacacacatrcacacacacacacacacatrcacacacaaaacacacacatrcacacacacacacacacatrcacacacaaaaaaacaaaacatrcacacacacacacacacatrcacacacacacacacacatrcacacacacacacacacatrcacacacacacacaaaacatrcacacacacacacacacatrcacacacacacacacacatrcacacacacacacacacatrcacacacacacacacacatrcacacacacacacacacatrcacacacacacacacacatrcacacacacacacacacatrcacacacacacacacacatrcacacacacacacacacatrcacacacacacacacacatrcacacacacacacacacatrcacacacacacacacacatrcacacacacacacacacatrcacacacacacacacacatrcacacacacacacacacatrcacacacacacacacacatrcacacacacacacacacatrcacacacacacacacacatrcacacacacacacacacatrcacacacacacacacacatrcacacacacacacacacatrcacacacacacacacacatrcacacacacacacacacatrcacacacacacacacacatrcacacacacacacacacatrcacacacacacacacacatrcacacacacacacacacatrcacacacacacacacacatrcacacacacacacacacatrcacacacacacacacacatrcacacacacacacacacatrcacacacacacacacacatrcacacacacacacacacatrcacacacacacacacacatrcacacacacacacacacatrcacacacacacacacacatrcacacacacacacacacatrcacacacacacacacacatrcacacacacacacacacatrcacacacacacacacacatrcacacacacacacacacatrcacacacacacacacacatrcacacacacacacacacatrcacacacacacacacacatrcacacacacacacacacatrcacacacacacacacacatrcacacacacacacacacatrcacacacacacacacacatrcacacacacacacacacatrcacacacacacacacacatrcacacacacacacacacatrcacacacacacacacacatrcacacacacacacacacatrcacacacacacacacacatrcacacacacacacacacatrcacacacacacacacacatrcacacacacacacacacatrcacacacacacacacacatrcacacacacacacacacatrcacacacacacacacacatrcacacacacacacacacatrcacacacacacacacacatrcacacacacacacacacatrcacacacacacacacacatrcacacacacacacacacatrcacacacacacacacacatrcacacacacacacacacatrcacacacacacacacacatrcacacacacacacacacatrcacacacacacacacacatrcacacacacacacacacatrcacacacacacacacacatrcacacacacacacacacatrcacacacacacacacacatrcacacacacacacacacatrcacacacacacacacacatrcacacacacacacacacatrcacacacacacacacacatrcacacacacacacacacatrcacacacacacacacacatrcacacacacacacacacatrcacacacacacacacacatrcacacacacacacacacatrcacacacacacacacacatrcacacacacacacacacatrcacacacacacacacacatrcacacacacacacacacatrcacacacacacacacacatrcacacacacacacacacatrcacacacacacacacacatrcacacacacacacacacatrcacacacacacacacacatrcacacacacacacacacatrcacacacacacacacacatrcacacacacacacacacatrcacacacacacacacacatrcacacacacacacacacatrcacacacacacacacacatrcacacacacacacacacatrcacacacacacacacacatrcacacacacacacacacatrcacacacacacacacacatrcacacacacacacacacatrcacacacacacacacacatrcacacacacacacacacatrcacacacacacacacacatrcacacacacacacacacatrcacacacacacacacacatrcacacacacacacacacatrcacacacacacacacacatrcacacacacacacacacatrcacacacacacacacacatrcacacacacacacacacatrcacacacacacacacacatrcacacacacacacacacatrcacacacacacacacacatrcacacacacacacacacatrcacacacacacacacacatrcacacacacacacacacatrcacacacacacacacacatrcacacacacacacacacatrcacacacacacacacacatrcacacacacacacacacatrcacacacacacacacacatrcacacacacacacacacatrcacacacacacacacacatrcacacacacacacacacatrcacacacacacacacacatrcacacacacacacacacatrcacacacacacacacacatrcacacacacacacacacatrcacacacacacacacacatrcacacacacacacacacatrcacacacacacacacacatrcacacacacacacacacatrcacacacacacacacacatrcacacacacacacacacatrcacacacacacacacacatrcacacacacacacacacatrcacacacacacacacacatrcacacacacacacacacatrcacacacacacacacacatrcacacacacacacacacatrcacacacacacacacacatrcacacacacacacacacatrcacacacacacacacacatrcacacacacacacacacatrcacacacacacacacacatrcacacacacacacacacatrcacacacacacacacacatrcacacacacacacacacatrcacacacacacacacacatrcacacacacacacacacatrcacacacacacacacacatrcacacacacacacacacatrcacacacacacacacacatrcacacacacacacacacatrcacacacacacacacacatrcacacacacacacacacatrcacacacacacacacacatrcacacacacacacacacatrcacacacacacacacacatrcacacacacacacacacatrcacacacacacacacacatrcacacacacacacacacatrcacacacacacacacacatrcacacacacacacacacatrcacacacacacacacacatrcacacacacacacacacatrcacacacacacacacacatrcacacacacacacacacatrcacacacacacacacacatrcacacacacacacacacatrcacacacacacacacacatrcacacacacacacacacatrcacacacacacacacacatrcacacacacacacacacatrcacacacacacacacacatrcacacacacacacacacatrcacacacacacacacacatrcacacacacacacacacatrcacacacacacacacacatrcacacacacacacacacatrcacacacacacacacacatrcacacacacacacacacatrcacacacacacacacacatrcacacacacacacacacatrcacacacacacacacacatrcacacacacacacacacatrcacacacacacacacacatrcacacacacacacacacatrcacacacacacacacacatrcacacacacacacacacatrcacacacacacacacacatrcacacacacacacacacatrcacacacacacacacacatrcacacacacacacacacatrcacacacacacacacacatrcacacacacacacacacatrcacacacacacacacacatrcacacacacacacacacatrcacacacacacacacacatrcacacacacacacacacatrcacacacacacacacacatrcacacacacacacacacatrcacacacacacacacacatrcacacacacacacacacatrcacacacacacacacacatrcacacacacacacacacatrcacacacacacacacacatrcacacacacacacacacatrcacacacacacacacacatrcacacacacacacacacatrcacacacacacacacacatrcacacacacacacacacatrcacacacacacacacacatrcacacacacacacacacatrcacacacacacacacacatrcacacacacacacacacatrcacacacacacacacacatrcacacacacacacacacatrcacacacacacacacacatrcacacacacacacacacatrcacacacacacacacacatrcacacacacacacacacatrcacacacacacacacacatrcacacacacacacacacatrcacacacacacacacacatrcacacacacacacacacatrcacacacacacacacacatrcacacacacacacacacatrcacacacacacacacacatrcacacacacacacacacatrcacacacacacacacacatrcacacacacacacacacatrcacacacacacacacacatrcacacacacacacacacatrcacacacacacacacacatrcacacacacacacacacatrcacacacacacacacacatrcacacacacacacacacatrcacacacacacacacacatrcacacacacacacacacatrcacacacacacacacacatrcacacacacacacacacatrcacacacacacacacacatrcacacacacacacacacatrcacacacacacacacacatrcacacacacacacacacatrcacacacacacacacacatrcacacacacacacacacatrcacacacacacacacacatrcacacacacacacacacatrcacacacacacacacacatrcacacacacacacacacatrcacacacacacacacacatrcacacacacacacacacatrcacacacacacacacacatrcacacacacacacacacatrcacacacacacacacacatrcacacacacacacacacatrcacacacacacacacacatrcacacacacacacacacatrcacacacacacacacacatrcacacacacacacacacatrcacacacacacacacacatrcacacacacacacacacatrcacacacacacacacacatrcacacacacacacacacatrcacacacacacacacacatrcacacacacacacacacatrcacacacacacacacacatrcacacacacacacacacatrcacacacacacacacacatrcacacacacacacacacatrcacacacacacacacacatrcacacacacacacacacatrcacacacacacacacacatrcacacacacacacacacatrcacacacacacacacacatrcacacacacacacacacatrcacacacacacacacacatrcacacacacacacacacatrcacacacacacacacacatrcacacacacacacacacatrcacacacacacacacacatrcacacacacacacacacatrcacacacacacacacacatrcacacacacacacacacatrcacacacacacacacacatrcacacacacacacacacatrcacacacacacacacacatrcacacacacacacacacatrcacacacacacacacacatrcacacacacacacacacatrcacacacacacacacacatrcacacacacacacacacatrcacacacacacacacacatrcacacacacacacacacatrcacacacacacacacacatrcacacacacacacacacatrcacacacacacacacacatrcacacacacacacacacatrcacacacacacacacacatrcacacacacacacacacatrcacacacacacacacacatrcacacacacacacacacatrcacacacacacacacacatrcacacacacacacacacatrcacacacacacacacacatrcacacacacacacacacatrcacacacacacacacacatrcacacacacacacacacatrcacacacacacacacacatrcacacacacacacacacatrcacacacacacacacacatrcacacacacacacacacatrcacacacacacacacacatrcacacacacacacacacatrcacacacacacacacacatrcacacacacacacacacatrcacacacacacacacacatrcacacacacacacacacatrcacacacacacacacacatrcacacacacacacacacatrcacacacacacacacacatrcacacacacacacacacatrcacacacacacacacacatrcacacacacacacacacatrcacacacacacacacacatrcacacacacacacacacatrcacacacacacacacacatrcacacacacacacacacatrcacacacacacacacacatrcacacacacacacacacatrcacacacacacacacacatrcacacacacacacacacatrcacacacacacacacacatrcacacacacacacacacatrcacacacacacacacacatrcacacacacacacacacatrcacacacacacacacacatrcacacacacacacacacatrcacacacacacacacacatrcacacacacacacacacatrcacacacacacacacacatrcacacacacacacacacatrcacacacacacacacacatrcacacacacacacacacatrcacacacacacacacacatrcacacacacacacacacatrcacacacacacacacacatrcacacacacacacacacatrcacacacacacacacacatrcacacacacacacacacatrcacacacacacacacacatrcacacacacacacacacatrcacacacacacacacacatrcacacacacacacacacatrcacacacacacacacacatrcacacacacacacacacatrcacacacacacacacacatrcacacacacacacacacatrcacacacacacacacacatrcacacacacacacacacatrcacacacacacacacacatrcacacacacacacacacatrcacacacacacacacacatrcacacacacacacacacatrcacacacacacacacacatrcacacacacacacacacatrcacacacacacacacacatrcacacacacacacacacatrcacacacacacacacacatrcacacacacacacacacatrcacacacacacacacacatrcacacacacacacacacatrcacacacacacacacacatrcacacacacacacacacatrcacacacacacacacacatrcacacacacacacacacatrcacacacacacacacacatrcacacacacacacacacatrcacacacacacacacacatrcacacacacacacacacatrcacacacacacacacacatrcacacacacacacacacatrcacacacacacacacacatrcacacacacacacacacatrcacacacacacacacacatrcacacacacacacacacatrcacacacacacacacacatrcacacacacacacacacatrcacacacacacacacacatrcacacacacacacacacatrcacacacacacacacacatrcacacacacacacacacatrcacacacacacacacacatrcacacacacacacacacatrcacacacacacacacacatrcacacacacacacacacatrcacacacacacacacacatrcacacacacacacacacatrcacacacacacacacacatrcacacacacacacacacatrcacacacacacacacacatrcacacacacacacacacatrcacacacacacacacacatrcacacacacacacacacatrcacacacacacacacacatrcacacacacacacacacatrcacacacacacacacacatrcacacacacacacacacatrcacacacacacacacacatrcacacacacacacacacatrcacacacacacacacacatrcacacacacacacacacatrcacacacacacacacacatrcacacacacacacacacatrcacacacacacacacacatrcacacacacacacacacatrcacacacacacacacacatrcacacacacacacacacatrcacacacacacacacacatrcacacacacacacacacatrcacacacacacacacacatrcacacacacacacacacatrcacacacacacacacacatrcacacacacacacacacatrcacacacacacacacacatrcacacacacacacacacatrcacacacacacacacacatrcacacacacacacacacatrcacacacacacacacacatrcacacacacacacacacatrcacacacacacacacacatrcacacacacacacacacatrcacacacacacacacacatrcacacacacacacacacatrcacacacacacacacacatrcacacacacacacacacatrcacacacacacacacacatrcacacacacacacacacatrcacacacacacacacacatrcacacacacacacacacatrcacacacacacacacacatrcacacacacacacacacatrcacacacaaaacacacacatrcaaaacacacaaaaaaacacatrcacacacaaaacacacacatrcacacacacaaaaaaacacatrcacacacacacacacacatrcacacacacacacacacatrcacacacacacacacacatrcaaaaaaacacacacacacatrcacacacacacacacacatrcacacacacacacacacatrcacacacacacacacacatrcacacacacacacacacatrcacacacacacacacacatrcacacacacacacacacatrcacacacacacacacacatrcacacacacacacacacatrcacacacacacacacacatrcacacacacacacacacatrcacacacacacacacacatrcacacacacacacacacatrcacacacacacacacacatrcacacacacacacacacatrcacacacacacacacacatrcacacacacacacacacatrcacacacacacacacacatrcacacacacacacacacatrcacacacacacacacacatrcacacacacacacacacatrcacacacacacacacacatrcacacacacacacacacatrcacacacacacacacacatrcacacacacacacacacatrcacacacacacacacacatrcacacacacacacacacatrcacacacacacacacacatrcacacacacacacacacatrcacacacacacacacacatrcacacacacacacacacatrcacacacacacacacacatrcacacacacacacacacatrcacacacacacacacacatrcacacacacacacacacatrcacacacacacacacacatrcacacacacacacacacatrcacacacacacacacacatrcacacacacacacacacatrcacacacacacacacacatrcacacacacacacacacatrcacacacacacacacacatrcacacacacacacacacatrcacacacacacacacacatrcacacacacacacacacatrcacacacacacacacacatrcacacacacacacacacatrcacacacacacacacacatrcacacacacacacacacatrcacacacacacacacacatrcacacacacacacacacatrcacacacacacacacacatrcacacacacacacacacatrcacacacacacacacacatrcacacacacacacacacatrcacacacacacacacacatrcacacacacacacacacatrcacacacacacacacacatrcacacacacacacacacatrcacacacacacacacacatrcacacacacacacacacatrcacacacacacacacacatrcacacacacacacacacatrcacacacacacacacacatrcacacacacacacacacatrcacacacacacacacacatrcacacacacacacacacatrcacacacacacacacacatrcacacacacacacacacatrcacacacacacacacacatrcacacacacacacacacatrcacacacacacacacacatrcacacacacacacacacatrcacacacacacacacacatrcacacacacacacacacatrcacacacacacacacacatrcacacacacacacacacatrcacacacacacacacacatrcacacacacacacacacatrcacacacacacacacacatrcacacacacacacacacatrcacacacacacacacacatrcacacacacacacacacatrcacacacacacacacacatrcacacacacacacacacatrcacacacacacacacacatrcacacacacacacacacatrcacacacacacacacacatrcacacacacacacacacatrcacacacacacacacacatrcacacacacacacacacatrcacacacacacacacacatrcacacacacacacacacatrcacacacacacacacacatrcacacacacacacacacatrcacacacacacacacacatrcacacacacacacacacatrcacacacacacacacacatrcacacacacacacacacatrcacacacacacacacacatrcacacacacacacacacatrcacacacacacacacacatrcacacacacacacacacatrcacacacacacacacacatrcacacacacacacacacatrcacacacacacacacacatrcacacacacacacacacatrcacacacacacacacacatrcacacacacacacacacatrcacacacacacacacacatrcacacacacacacacacatrcacacacacacacacacatrcacacacacacacacacatrcacacacacacacacacatrcacacacacacacacacatrcacacacacacacacacatrcacacacacacacacacatrcacacacacacacacacatrcacacacacacacacacatrcacacacacacacacacatrcacacacacacacacacatrcacacacacacacacacatrcacacacacacacacacatrcacacacacacacacacatrcacacacacacacacacatrcacacacacacacacacatrcacacacacacacacacatrcacacacacacacacacatrcacacacacacacacacatrcacacacacacacacacatrcacacacacacacacacatrcacacacacacacacacatrcacacacacacacacacatrcacacacacacacacacatrcacacacacacacacacatrcacacacacacacacacatrcacacacacacacacacatrcacacacacacacacacatrcacacacacacacacacatrcacacacacacacacacatrcacacacacacacacacatrcacacacacacacacacatrcacacacacacacacacatrcacacacacacacacacatrcacacacacacacacacatrcacacacacacacacacatrcacacacacacacacacatrcacacacacacacacacatrcacacacacacacacacatrcacacacacacacacacatrcacacacacacacacacatrcacacacacacacacacatrcacacacacacacacacatrcacacacacacacacacatrcacacacacacacacacatrcacacacacacacacacatrcacacacacacacacacatrcacacacacacacacacatrcacacacacacacacacatrcacacacacacacacacatrcacacacacacacacacatrcacacacacacacacacatrcacacacacacacacacatrcacacacacacacacacatrcacacacacacacacacatrcacacacacacacacacatrcacacacacacacacacatrcacacacacacacacacatrcacacacacacacacacatrcacacacacacacacacatrcacacacacacacacacatrcacacacacacacacacatrcacacacacacacacacatrcacacacacacacacacatrcacacacacacacacacatrcacacacacacacacacatrcacacacacacacacacatrcacacacacacacacacatrcacacacacacacacacatrcacacacacacacacacatrcacacacacacacacacatrcacacacacacacacacatrcacacacacacacacacatrcacacacacacacacacatrcacacacacacacacacatrcacacacacacacacacatrcacacacacacacacacatrcacacacacacacacacatrcacacacacacacacacatrcacacacacacacacacatrcacacacacacacacacatrcacacacacacacacacatrcacacacacacacacacatrcacacacacacacacacatrcacacacacacacacacatrcacacacacacacacacatrcacacacacacacacacatrcacacacacacacacacatrcacacacacacacacacatrcacacacacacacacacatrcacacacacacacacacatrcacacacacacacacacatrcacacacacacacacacatrcacacacacacacacacatrcacacacacacacacacatrcacacacacacacacacatrcacacacacacacacacatrcacacacacacacacacatrcacacacacacacacacatrcacacacacacacacacatrcacacacacacacacacatrcacacacacacacacacatrcacacacacacacacacatrcacacacacacacacacatrcacacacacacacacacatrcacacacacacacacacatrcacacacacacacacacatrcacacacacacacacacatrcacacacacacacacacatrcacacacacacacacacatrcacacacacacacacacatrcacacacacacacacacatrcacacacacacacacacatrcacacacacacacacacatrcacacacacacacacacatrcacacacacacacacacatrcacacacacacacacacatrcacacacacacacacacatrcacacacacacacacacatrcacacacacacacacacatrcacacacacacacacacatrcacacacacacacacacatrcacacacacacacacacatrcacacacacacacacacatrcacacacacacacacacatrcacacacacacacacacatrcacacacacacacacacatrcacacacacacacacacatrcacacacacacacacacatrcacacacacacacacacatrcacacacacacacacacatrcacacacacacacacacatrcacacacacacacacacatrcacacacacacacacacatrcacacacacacacacacatrcacacacacacacacacatrcacacacacacacacacatrcacacacacacacacacatrcacacacacacacacacatrcacacacacacacacacatrcacacacacacacacacatrcacacacacacacacacatrcacacacacacacacacatrcacacacacacacacacatrcacacacacacacacacatrcacacacacacacacacatrcacacacacacacacacatrcacacacacacacacacatrcacacacacacacacacatrcacacacacacacacacatrcacacacacacacacacatrcacacacacacacacacatrcacacacacacacacacatrcacacacacacacacacatrcacacacacacacacacatrcacacacacacacacacatrcacacacacacacacacatrcacacacacacacacacatrcacacacacacacacacatrcacacacacacacacacatrcacacacacacacacacatrcacacacacacacacacatrcacacacacacacacacatrcacacacacacacacacatrcacacacacacacacacatrcacacacacacacacacatrcacacacacacacacacatrcacacacacacacacacatrcacacacacacacacacatrcacacacacacacacacatrcacacacacacacacacatrcacacacacacacacacatrcacacacacacacacacatrcacacacacacacacacatrcacacacacacacacacatrcacacacacacacacacatrcacacacacacacacacatrcacacacacacacacacatrcacacacacacacacacatrcacacacacacacacacatrcacacacacacacacacatrcacacacacacacacacatrcacacacacacacacacatrcacacacacacacacacatrcacacacacacacacacatrcacacacacacacacacatrcacacacacacacacacatrcacacacacacacacacatrcacacacacacacacacatrcacacacacacacacacatrcacacacacacacacacatrcacacacacacacacacatrcacacacacacacacacatrcacacacacacacacacatrcacacacacacacacacatrcacacacacacacacacatrcacacacacacacacacatrcacacacacacacacaaaatrcacacacacacacacacatrcacacacacacacacacatrcacacacacacacacacatrcacacacacacacacacatrcacacacacacacacacatrcacacacacacacacacatrcacacacacacacacacatrcacacacacacacacacatrcacacacacacacacacatrcacacacacacacacacatrcacacacacacacacacatrcacacacacacacacacatrcacacacacacacacacatrcacacacacacacacacatrcacacacacacacacacatrcacacacacacacacacatrcacacacacacacacacatrcacacacacacacacacatrcacacacacacacacacatrcacacacacacacacacatrcacacacacacacacaaaatrcacacacacacacacacatrcacacacacacacacacatrcacacacacacacacacatrcacacacacacacacacatrcacacacacacacacacatrcacacacacacacacacatrcacacacacacacacacatrcacacacacacacacacatrcacacacacacacacacatrcacacacacacacacacatrcacacacacacacacacatrcacacacacacacacacatrcacacacacacacacacatrcacacacacacacacacatrcacacacacacacacacatrcacacacacacacacacatrcacacacacacacacacatrcacacacacacacacacatrcacacacacacacacacatrcacacacacacacacacatrcacacacacacacaaaacatrcacacacacacacacacatrcacacacacacacacacatrcacacacacacacacacatrcacacacacacacacacatrcacacacacacacacacatrcacacacacacacacacatrcacacacacacacacacatrcacacacacacacacacatrcacacacacacacacacatrcacacacacacacacacatrcacacacacacacacacatrcacacacacacacacacatrcacacacacacacacacatrcacacacacacacacacatrcacacacacacacacacatrcacacacacacacacacatrcacacacacacacacacatrcacacacacacacacacatrcacacacacacacacacatrcacacacacacacacacatrcacacacacacacacacatrcacacacacacacacacatrcacacacacacacacacatrcacacacacacacacacatrcacacacacacacacacatrcacacacacacacacacatrcacacacacacacacacatrcacacacacacacacacatrcacacacacacacacacatrcacacacacacacacacatrcacacacacacacacacatrcacacacacacacacacatrcacacacacacacacacatrcacacacacacacacacatrcacacacacacacacacatrcacacacacacacacacatrcacacacacacacacacatrcacacacacacacacacatrcacacacacacacacacatrcacacacacacacacacatrcacacacacacacacacatrcacacacacacacacacatrcacacacacacacacacatrcacacacacacacacacatrcacacacacacacacacatrcacacacacacacacacatrcacacacacacacacacatrcacacacacacacacacatrcacacacacacacacacatrcacacacacacacacacatrcacacacacacacacacatrcacacacacacacacacatrcacacacacacacacacatrcacacacaaaacacacacatrcacacacacacacacacatrcacacacacacacacacatrcacacacacacacacacatrcacacacacacacacacatrcacacacacacacacacatrcacacacacacacacacatrcacacacacacacacacatrcacacacacacacacacatrcacacacacacacacacatrcacacacacacacacacatrcacacacacacacacacatrcacacacacacacacacatrcacacacacacacacacatrcacacacacacacacacatrcacacacacacacacacatrcacacacacacacacacatrcacacacacacacacacatrcacacacacacacacacatrcacacacacacacacacatrcacacacacacacacacatrcacacacacacacacacatrcacacacacacacacacatrcacacacacacacacacatrcacacacaaaacacacaaaatrcacacacacacacacacatrcacacacacacacacacatrcacacacacacacacacatrcacacacacacacacacatrcacacacacacacacacatrcacacacacacacacacatrcacacacacacacacacatrcacacacacacacacacatrcacacacacacacacaaaatrcacacacaaaacaaaacacatrcacacacacacacacacatrcacacacacacacacacatrcacacacacacacacacatrcacacacacacacacacatrcacacacacacacacacatrcacacacacacacacacatrcacacacacacacacacatrcacacacacacacacacatrcaaaacacacacacacacatrcacacacacacacacacatrcacacacacacacacacatrcacacacacacacacacatrcacacacacacacacacatrcacacacacacacacacatrcacacacacacacacacatrcacacacacacacacacatrcacacacacacacacacatrcacacacacacacacacatrcacacacacacacacacatrcacacacacacacacacatrcacacacacacacacacatrcacacacacacacacacatrcacacacacacacacacatrcacacacacacacacacatrcacacacacacacacacatrcacacacacacacacacatrcacacacacacacacacatrcacacacacacacacacatrcacacacacacacacacatrcacacacacacacacacatrcacacacacacacacacatrcacacacacacacacacatrcacacacacacacacacatrcacacacacacacacacatrcacacacacacacacacatrcacacaaaacacacacacatrcacacacacacacacacatrcacacacacacacacacatrcacacacacacacacacatrcacacacacacacacacatrcacacacacacacacacatrcacacacacacacacacatrcacaaaacacacacacacatrcacacacacacacacacatrcacacacacacacacacatrcacacacacacacacacatrcacacacacacacacacatrcacacacacacacacacatrcacacacacacacacacatrcacacacacacacacacatrcacacacacacacacacatrcacacacacacacacacatrcacacacacacacacacatrcacacacacacacacacatrcacaaaacacacacacacatrcacacacacacacaaaacatrcacacacacacacacacatrcacacacacacacacacatrcacacacacacacacacatrcacacacacacacacacatrcacacacacacacacacatrcacacacacacacacacatrcacacacacacacacacatrcacacacacacacacacatrcacacacacacacacacatrcaaaacacacacacacacatrcacacacacacacacacatrcacacacaaaacaaaacacatrcacacacacacacacacatrcacacacacacacacacatrcacacacacacacacaaaatrcacacacacacacacacatrcacacacacacacacacatrcacacacacacacacacatrcacacacacacacacacatrcacacacacacacacacatrcacacacacacacacacatrcacacacacacacacacatrcacacacacacacacacatrcacacacacacacacacatrcacacacacacacacacatrcacacacacacacacacatrcacacacacacacacacatrcacacacacacacacacatrcacacacacacacacacatrcacacacacacacacacatrcacacacacacacacacatrcacacacacacacacacatrcacacacacacacacacatrcacacacacacacacacatrcacacacacacacacacatrcacacacacacacacacatrcacacacacacacacacatrcacacacacacacacacatrcacacacacacacacacatrcacacacacacacacacatrcacacacacacacacacatrcacacacacacacacacatrcacacacacacacacacatrcacacacacacacacacatrcacacacacacacacacatrcacacacacacacacacatrcacacacacacacacacatrcacacacacacacacacatrcacacacacacacacacatrcacacacacacacacacatrcacacacacacacacacatrcacacacacacacacacatrcacacacacacacacacatrcacacacacacacacacatrcacacacacacacacacatrcacacacacacacacacatrcacacacacacacacacatrcacacacacacacacacatrcacacacacacacacacatrcacacacacacacacacatrcacacacacacacacacatrcacacacacacacacacatrcacacacacacacacacatrcacacacacacacacacatrcacacacacacacacacatrcacacacacacacacacatrcacacacacacacacacatrcacacacacacacacacatrcacacacacacacacacatrcacacacacacacacacatrcacacacacacacacacatrcacacacacacacacacatrcacacacacacacacacatrcacacacacacacacacatrcacacacacacacacacatrcacacacacacacacacatrcacacacacacacacacatrcacacacacacacacacatrcacacacacacacacacatrcacacacacacacacacatrcacacacacacacacacatrcacacacacacacacacatrcacacacacacacacacatrcacacacacacacacacatrcacacacacacacacacatrcacacacacacacacacatrcacacacacacacacacatrcacacacacacacacacatrcacacacacacacacacatrcacacacacacacacacatrcacacacacacacacacatrcacacacacacacacacatrcacacacacacacacacatrcacacacacacacacacatrcacacacacacacacacatrcacacacacacacacacatrcacacacacacacacacatrcacacacacacacacacatrcacacacacacacacacatrcacacacacacacacacatrcacacacacacacacacatrcacacacacacacacacatrcacacacacacacacacatrcacacacacacacacacatrcacacacacacacacacatrcacacacacacacacacatrcacacacacacacacacatrcacacacacacacacacatrcacacacacacacacacatrcacacacacacacacacatrcacacacacacacacacatrcacacacacacacacacatrcacacacacacacacacatrcacacacacacacacacatrcacacacacacacacacatrcacacacacacacacacatrcacacacacacacacacatrcacacacacacacacacatrcacacacacacacacacatrcacacacacacacacacatrcacacacacacacacacatrcacacacacacacacacatrcacacacacacacacacatrcacacacacacacacacatrcacacacacacacacacatrcacacacacacacacacatrcacacacacacacacacatrcacaaaacacacacacacatrcacacacacacacacacatrcacacacacacacacacatrcacacacacacacacacatrcacacacacacacacacatrcacacacacacacacacatrcacacacacacacacacatrcacacacacacacacacatrcacacacacacacacacatrcacacacacacacacacatrcacacacacacacacacatrcacacacacacacacacatrcacacacacacacacacatrcacacacacacacacacatrcacacacacacacacacatrcacacacacacacacacatrcacacacacacacacacatrcacacacacacacacacatrcacacacacacacacacatrcacacacacacacacacatrcacacacacacacacacatrcacacacacacacacacatrcacacacacacacacacatrcacacacacacacacacatrcacacacacacacacacatrcacacacacacacacacatrcacacacacacacacacatrcacacacacacacacacatrcacacacacacacacacatrcacacacacacacacacatrcacacacacacacacacatrcacacacacacacacacatrcacacacacacacacacatrcacacacacacacacacatrcacacacacacacacacatrcacacacacacacacacatrcacacacacacacacacatrcacacacacacacacacatrcacacacacacacacacatrcacacacacacacacacatrcacacacacacacacacatrcacacacacacacacacatrcacacacacacacacacatrcacacacacacacacacatrcacacacacacacacacatrcacacacacacacacacatrcacacacacacacacacatrcacacacacacacacacatrcacacacacacacacacatrcacacacacacacacacatrcacacacacacacacacatrcacacacacacacacacatrcacacacacacacacacatrcacacacacacacacacatrcacacacacacacacacatrcacacacacacacacacatrcacacacacacacacacatrcacacacacacacacacatrcacacacacacacacacatrcacacacacacacacacatrcacacacacacacacacatrcacacacacacacacacatrcacacacacacacacacatrcacacacacacacacacatrcacacacacacacacacatrcacacacacacacacacatrcacacacacacacacacatrcacacacacacacacacatrcacacacacacacacacatrcacacacacacacacacatrcacacacacacacacacatrcacacacacacacacacatrcacacacacacacacacatrcacacacacacacacacatrcacacacacacacacacatrcacacacacacacacacatrcacacacacacacacacatrcacacacacacacacacatrcacacacacacacacacatrcacacacacacacacacatrcacacacacacacacacatrcacacacacacacacacatrcacacacacacacacacatrcacacacacacacacacatrcacacacacacacacacatrcacacacacacacacacatrcacacacacacacacacatrcacacacacacacacacatrcacacacacacacacacatrcacacacacacacacacatrcacacacacacacacacatrcacacacacacacacacatrcacacacacacacacacatrcacacacacacacacacatrcacacacacacacacacatrcacacacacacacacacatrcacacacacacacacacatrcacacacacacacacacatrcacacacacacacacacatrcacacacacacacacacatrcacacacacacacacacatrcacacacacacacacacatrcacacacacacacacacatrcacacacacacacacacatrcacacacacacacacacatrcacacacacacacacacatrcacacacacacacacacatrcacacacacacacacacatrcacacacacacacacacatrcacacacacacacacacatrcacacacacacacacacatrcacacacacacacacacatrcacacacacacacacacatrcacacacacacacacacatrcacacacacacacacacatrcacacacacacacacacatrcacacacacacacacacatrcacacacacacacacacatrcacacacacacacacacatrcacacacacacacacacatrcacacacacacacacacatrcacacacacacacacacatrcacacacacacacacacatrcacacacacacacacacatrcacacacacacacacacatrcacacacacacacacacatrcacacacacacacacacatrcacacacacacacacacatrcacacacacacacacacatrcacacacacacacacacatrcacacacacacacacacatrcacacacacacacacacatrcacacacacacacacacatrcacacacacacacacacatrcacacacacacacacacatrcacacacacacacacacatrcacacacacacacacacatrcacacacacacacacacatrcacacacacacacacacatrcacacacacacacacacatrcacacacacacacacacatrcacacacacacacacacatrcacacacacacacacacatrcacacacacacacacacatrcacacacacacacacacatrcacacacacacacacacatrcacacacacacacacacatrcacacacacacacacacatrcacacacacacacacacatrcacacacacacacacacatrcacacacacacacacacatrcacacacacacacacacatrcacacacacacacacacatrcacacacacacacacacatrcacacacacacacacacatrcacacacacacacacacatrcacacacacacacacacatrcacacacacacacacacatrcacacacacacacacacatrcacacacacacacacacatrcacacacacacacacacatrcacacacacacacacacatrcacacacacacacacacatrcacacacacacacacacatrcacacacacacacacacatrcacacacacacacacacatrcacacacacacacacacatrcacacacacacacacacatrcacacacacacacacacatrcacacacacacacacacatrcacacacacacacacacatrcacacacacacacacacatrcacacacacacacacacatrcacacacacacacacacatrcacacacacacacacacatrcacacacacacacacacatrcacacacacacacacacatrcacacacacacacacacatrcacacacacacacacacatrcacacacacacacacacatrcacacacacacacacacatrcacacacacacacacacatrcacacacacacacacacatrcacacacacacacacacatrcacacacacacacacacatrcacacacacacacacacatrcacacacacacacacacatrcacacacacacacacacatrcacacacacacacacacatrcacacacacacacacacatrcacacacacacacacacatrcacacacacacacacacatrcacacacacacacacacatrcacacacacacacacacatrcacacacacacacacacatrcacacacacacacacacatrcacacacacacacacacatrcacacacacacacacacatrcacacacacacacacacatrcacacacacacacacacatrcacacacacacacacacatrcacacacacacacacacatrcacacacacacacacacatrcacacacacacacacacatrcacacacacacacacacatrcacacacacacacacacatrcacacacacacacacacatrcacacacacacacacacatrcacacacacacacacacatrcacacacacacacacacatrcacacacacacacacacatrcacacacacacacacacatrcacacacacacacacacatrcacacacacacacacacatrcacacacacacacacacatrcacacacacacacacacatrcacacacacacacacacatrcacacacacacacacacatrcacacacacacacacacatrcacacacacacacacacatrcacacacacacacacacatrcacacacacacacacacatrcacacacacacacacacatrcacacacacacacacacatrcacacacacacacacacatrcacacacacacacacacatrcacacacacacacacacatrcacacacacacacacacatrcacacacacacacacacatrcacacacacacacacacatrcacacacacacacacacatrcacacacacacacacacatrcacacacacacacacacatrcacacacacacacacacatrcacacacacacacacacatrcacacacacacacacacatrcacacacacacacacacatrcacacacacacacacacatrcacacacacacacacacatrcacacacacacacacacatrcacacacacacacacacatrcacacacacacacacacatrcacacacacacacacacatrcacacacacacacacacatrcacacacacacacacacatrcacacacacacacacacatrcacacacacacacacacatrcacacacacacacacacatrcacacacacacacacacatrcacacacacacacacacatrcacacacacacacacacatrcacacacacacacacacatrcacacacacacacacacatrcacacacacacacacacatrcacacacacacacacacatrcacacacacacacacacatrcacacacacacacacaaaatrcacacacacacacacacatrcacacacacacacacacatrcacacacacacacacacatrcacacacacacacacacatrcacacacacacacacacatrcacacacacacacacacatrcacacacacacacacacatrcacacacacacacacacatrcacacacacacacacacatrcacacacacacacacacatrcacacacacacacacacatrcacacacacacacacacatrcacacacacacacacacatrcacacacacacacacacatrcacacacacacacacacatrcacacacacacacacacatrcacacacacacacacacatrcacacacacacacacacatrcacacacacacacacacatrcacacacacacacacacatrcacacacacacacacacatrcacacacacacacacacatrcacacacacacacacacatrcacacacacacacacacatrcacacacacacacacacatrcacacacacacacacacatrcacacacacacacacacatrcacacacacacacacacatrcacacacacacacacacatrcacacacacacacacacatrcacacacacacacacacatrcacacacacacacacacatrcacacacacacacacacatrcacacacacacacacacatrcacacacacacacacacatrcacacacacacacacacatrcacacacacacacacacatrcacacacacacacacacatrcacacacacacacacacatrcacacacacacacacacatrcacacacacacacacacatrcacacacacacacacacatrcacacacacacacacacatrcacacacacacacacacatrcacacacacacacacacatrcacacacacacacacacatrcacacacacacacacacatrcacacacacacacacacatrcacacacacacacacacatrcacacacacacacacacatrcacacacacacacacacatrcacacacacacacacacatrcacacacacacacacacatrcacacacacacacacacatrcacacacacacacacacatrcacacacacacacacacatrcacacacacacacacacatrcacacacacacacacacatrcacacacacacacacacatrcacacacacacacacacatrcacacacacacacacacatrcacacacacacacacacatrcacacacacacacacacatrcacacacacacacacacatrcacacacacacacacacatrcacacacacacacacacatrcacacacacacacacacatrcacacacacacacacacatrcacacacacacacacacatrcacacacacacacacacatrcacacacacacacacacatrcacacacacacacacacatrcacacacacacacacacatrcacacacacacacacacatrcacacacacacacacacatrcacacacacacacacacatrcacacacacacacacacatrcacacacacacacacacatrcacacacacacacacacatrcacacacacacacacacatrcacacacacacacacacatrcacacacacacacacacatrcacacacacacacacacatrcacacacacacacacacatrcacacacacacacacacatrcacacacacacacacacatrcacacacacacacacacatrcacacacacacacacacatrcacacacacacacacacatrcacacacacacacacacatrcacacacacacacacacatrcacacacacacacacacatrcacacacacacacacacatrcacacacacacacacacatrcacacacacacacacacatrcacacacacacacacacatrcacacacacacacacacatrcacacacacacacacacatrcacacacacacacacacatrcacacacacacacacacatrcacacacacacacacacatrcacacacacacacacacatrcacacacacacacacacatrcacacacacacacacacatrcacacacacacacacacatrcacacacacacacacacatrcacacacacacacacacatrcacacacacacacacacatrcacacacacacacacacatrcacacacacacacacacatrcacacacacacacacacatrcacacacacacacacacatrcacacacacacacacacatrcacacacacacacacacatrcacacacacacacacacatrcacacacacacacacacatrcacacacacacacacacatrcacacacacacacacacatrcacacacacacacacacatrcacacacacacacacacatrcacacacacacacacacatrcacacacacacacacacatrcacacacacacacacacatrcacacacacacacacacatrcacacacacacacacacatrcacacacacacacacacatrcacacacacacacacacatrcacacacacacacacacatrcacacacacacacacacatrcacacacacacacacacatrcacacacacacacacacatrcacacacacacacacacatrcacacacacacacacacatrcacacacacacacacacatrcacacacacacacacacatrcacacacacacacacacatrcacacacacacacacacatrcacacacacacacacacatrcacacacacacacacacatrcacacacacacacacacatrcacacacacacacacacatrcacacacacacacacacatrcacacacacacacacacatrcacacacacacacacacatrcacacacacacacacacatrcacacacacacacacacatrcacacacacacacacacatrcacacacacacacacacatrcacacacacacacacacatrcacacacacacacacacatrcacacacacacacacacatrcacacacacacacacacatrcacacacacacacacacatrcacacacacacacacacatrcacacacacacacacacatrcacacacacacacacacatrcacacacacacacacacatrcacacacacacacacacatrcacacacacacacacacatrcacacacacacacacacatrcacacacacacacacacatrcacacacacacacacacatrcacacacacacacacacatrcacacacacacacacacatrcacacacacacacacacatrcacacacacacacacacatrcacacacacacacacacatrcacacacacacacacacatrcacacacacacacacacatrcacacacacacacacacatrcacacacacacacacacatrcacacacacacacacacatrcacacacacacacacacatrcacacacacacacacacatrcacacacacacacacacatrcacacacacacacacacatrcacacacacacacacacatrcacacacacacacacacatrcacacacacacacacacatrcacacacacacacacacatrcacacacacacacacacatrcacacacacacacacacatrcacacacacacacacacatrcacacacacacacacacatrcacacacacacacacacatrcacacacacacacacacatrcacacacacacacacacatrcacacacacacacacacatrcacacacacacacacacatrcacacacacacacacacatrcacacacacacacacacatrcacacacacacacacacatrcacacacacacacacacatrcacacacacacacacacatrcacacacacacacacacatrcacacacacacacacacatrcacacacacacacacacatrcacacacacacacacacatrcacacacacacacacacatrcacacacacacacacacatrcacacacacacacacacatrcacacacacacacacacatrcacacacacacacacacatrcacacacacacacacacatrcacacacacacacacacatrcacacacacacacacacatrcacacacacacacacacatrcacacacacacacacacatrcacacacacacacacacatrcacacacacacacacacatrcacacacacacacacacatrcacacacacacacacacatrcacacacacacacacacatrcacacacacacacacacatrcacacacacacacacacatrcacacacacacacacacatrcacacacacacacacacatrcacacacacacacacacatrcacacacacacacacacatrcacacacacacacacacatrcacacacacacacacacatrcacacacacacacacacatrcacacacacacacacacatrcacacacacacacacacatrcacacacacacacacacatrcacacacacacacacacatrcacacacacacacacacatrcacacacacacacacacatrcacacacacacacacacatrcacacacacacacacacatrcacacacacacacacacatrcacacacacacacacacatrcacacacacacacacacatrcacacacacacacacacatrcacacacacacacacacatrcacacacacacacacacatrcacacacacacacacacatrcacacacacacacacacatrcacacacacacacacacatrcacacacacacacacacatrcacacacacacacacacatrcacacacacacacacacatrcacacacacacacacacatrcacacacacacacacacatrcacacacacacacacacatrcacacacacacacacacatrcacacacacacacacacatrcacacacacacacacacatrcacacacacacacacacatrcacacacacacacacacatrcacacacacacacacacatrcacacacacacacacacatrcacacacacacacacacatrcacacacacacacacacatrcacacacacacacacacatrcacacacacacacacacatrcacacacacacacacacatrcacacacacacacacacatrcacacacacacacacacatrcacacacacacacacacatrcacacacacacacacacatrcacacacacacacacacatrcacacacacacacacacatrcacacacacacacacacatrcacacacacacacacacatrcacacacacacacacacatrcacacacacacacacacatrcacacacacacacacacatrcacacacacacacacacatrcacacacacacacacacatrcacacacacacacacacatrcacacacacacacaaaacatrcacacacacacacacacatrcacacacacacacacacatrcacacacacacacacacatrcacacacacacacacacatrcacacacacacacacacatrcacacacacacacacacatrcacacacacacacacacatrcacacacacacacacacatrcacacacacacacacacatrcacacacacacacacacatrcacacacacacacacacatrcacacacacacaaaacacatrcacacacacacacacacatrcacacacacacacacacatrcacacacacacacacacatrcacacacacacacacacatrcacacacacacacacacatrcacacacacacacacacatrcacacacacacacacacatrcacacacacacacacacatrcacacacacacacacacatrcacacacacacacacacatrcacacacacacacacacatrcacacacacacacacacatrcacacacacacacacacatrcacacacacaaaacacacatrcacacacacacacacacatrcacacacacacacacacatrcacacacacacacacacatrcacacacacacacacacatrcacacacacacacacacatrcacacacaaaacacacacatrcacacacacacacacacatrcacacacacacacacacatrcacacacacacacacacatrcacacacacacacacacatrcacacacacacacacacatrcacacacacacacacacatrcacacacacacacacacatrcacacacacacacacacatrcacacacacacacacacatrcacacacacacacacacatrcaaaacacacacacacacatrcaaaacacaaaacacacacatrcacacacaaaacacacacatrcacacacacacacacacatrcacacacacacacacacatrcacacacacacacacacatrcacacacacacacacacatrcacacacacacacacacatrcacacacacacacacacatrcacacacacacacacacatrcacacacacacacacacatrcacacacacacacacacatrcacacacacacacacacatrcacacacacacacacacatrcacacacacacacacacatrcacacacacacacacacatrcacacacacacacacacatrcacacacacacacacacatrcacacacacacacacacatrcacacacacacacacacatrcacacacacacacacacatrcacacacacacacacacatrcacacacacacacacacatrcacacacacacacacacatrcacacacacacacacacatrcacacacacacacacacatrcacacacacacacacacatrcacacacacacacacacatrcacacacacacacacacatrcacacacacacacacacatrcacacacacacacacacatrcacacacacacacacacatrcacacacacacacacacatrcacacacacacacacacatrcacacacacacacacacatrcacacacacacacacacatrcacacacacacacacacatrcacacacacacacacacatrcacacacacacacacacatrcacacacacacacacacatrcacacacacaaaacacacatrcacaaaacacacacacacatrcacacacacacacacacatrcacacacacacacacacatrcacacacacacacacacatrcacacacacacacacacatrcacacacacacacacacatrcacacacacacacacacatrcacacacacacacacacatrcacacacacacacacacatrcacacacacacacacacatrcacacacacacacacacatrcacacacacacacacacatrcacacacacacacacacatrcacacacacacacacacatrcacacacacacacacacatrcacacacacacacacacatrcacacacacacacacacatrcacacacacacacacacatrcacacacacacacacacatrcacacacacacacacacatrcacacacacacacacacatraaacacacacacacacacatrcacacacacacacacacatrcacacacacacacacacatraaacacacacacacacacatrcacacacacacacacacatrcacacacacacacacacatrcacacacacacacacaaaatrcacacacacacacacacatrcacacacacacacacaaaatrcacacacacacacacacatrcacacacacacacacacatrcacacacacacacacacatrcacacacacacacacacatrcacacacacacacacacatrcacacacacacacacacatrcacacacacacacacacatrcacacacacacacacacatrcacacacacacacacacatrcacacacacacacacacatrcacacacacacacacacatrcacacacacacacacacatrcacacacacacacacacatrcacacacacacacacacatrcacacacacacacacacatrcacacacacacacacacatrcacacacacacacacacatrcacacacacaaaacacacatrcacacacacacacacacatrcacacacacacacacacatrcacacacacacacacacatrcacacacacacacacacatrcacacacacacacacacatrcacacacacacacacacatrcacacacacacacacacatrcacacacacacacacacatrcacacacacacacacacatrcacacacacacacacacatrcacacacacacacacacatrcacacacacacacacacatrcacacacacacacacacatrcacacacacacacacacatrcacacacacacacacacatrcacacacacacacacacatrcacacacacacacacacatrcacacacacacacacacatrcacacacacacacacacatrcacacacacacacacacatrcacacacacacacacacatrcacacacacacacacacatrcacacacacacacacacatrcacacacacacacacacatrcacacacacacacacacatrcacacacacacacacacatrcacacacacacacacacatrcacacacacacacacacatrcacacacacacacacacatrcacacacacacacacacatrcacacacacacacacacatrcacacacacacacacacatrcacacacacacacacacatrcacacacacacacacacatrcacacacacacacacacatrcacacaaaacacacacacatrcacacacacacacacacatrcacacaaaacacacacacatrcacacacacacacacacatrcacacacacacacacaaaatrcacacacacacacacacatrcacacacacacacacacatrcacacacacacacacacatrcacacacacacacacacatrcacacacacacaaaacacatrcacacacacacacacacatrcacacacacacacacacatrcacacacacacacacacatrcacacacacacacacacatrcacacacacacacacacatrcacacacacacacacacatrcacacacacacacacacatrcacacacacacacacacatrcacacacacacacacacatrcacacacacacacacacatrcacacacacacacacacatrcacacacacacacacacatrcacacacacacacacacatrcacacacacacacacacatrcacacacacacacacacatrcacacacacacacacacatrcacacacacacacacacatrcacacacacacacacacatrcacacacacacacacacatrcacacacacacacacacatrcacacacacacacacacatrcacacacacacacacacatrcacacacacacacacacatrcacacacacacacacacatrcacacacacacacacacatrcacacacacacacacacatrcacacacacacacacacatrcacacacacacacacacatrcacacacacacacacacatrcacacacacacacacacatrcacacacacacacacacatrcacacacacacacacacatrcacacacacacacacacatrcacacacacacacacacatrcacacacacacacacacatrcacacacacacacacacatrcacacacacacacacacatrcacacacacacacacacatrcacacacacacacacacatrcacacacacacacacacatrcacacacacacacacacatrcacacacacacacacacatrcacacacacacacacacatrcacacacacacacacacatrcacacacacacacacacatrcacacacacacacacacatrcacacacacacacacacatrcacacacacacacacacatrcacacacacacacacacatrcacacacacacacacacatrcacaaaacacacacacacatrcacacacacacacacacatrcacacacacacacacacatrcacacacacacacacacatrcacacacacacacacacatrcacacacacacacacacatrcacacacacacacacacatrcacacacacacacacacatrcacacacacacacacacatrcacacacacacacacacatrcacacacacacacacacatrcacacacacacacacacatrcacacacacacacacacatrcacacacacacacacacatrcacacacacacacacacatrcacacacacacacacacatrcacacacacacacacacatrcacacacacacacacacatrcacacacacacacacacatrcacacacacacacacacatrcacacacacacacacacatrcacacacacacacacacatrcacacacacacacacacatrcacacacacacacacacatrcacacacacacacacacatrcacacacacacacacacatrcacacacacacacacacatrcacacacacacacacacatrcacacacacacacacacatrcacacacacacacacacatrcacacacacacacacacatrcacacacacacacacacatrcacacacacacacacacatrcacacacacacacacacatrcacacacacacacacacatrcacacacacacacacacatrcacacacacacacacacatrcacacacacacacacacatrcacacacacacacacacatrcacacacacacacacacatrcacacacacacacacacatrcacacacacacacacacatrcacacacacacacacacatrcacacacacacacacacatrcacacacacacacacacatrcacacacacacacacacatrcacacacacacacacacatrcacacacacacacacacatrcacacacacacacacacatrcacacacacacacacacatrcacacacacacacacacatrcacacacacacacacacatrcacacacacacacacacatrcacacacacacacacacatrcacacacacacacacacatrcacacacacacacacacatrcacacacacacacacacatrcacacacacacacacacatrcacacacacacacacacatrcacacacacacacacacatrcacacacacacacacacatrcacacacacacacacacatrcacacacacacacacacatrcacacaaaacacacacacatrcacacacacacacacacatrcacacacacacacacacatrcacacacacacacacacatrcacaaaacacacacacacatrcacacacacacacacaaaatrcacacacacacacacacatrcacacacacacaaaacacatrcacacacacacacacacatrcacacacacacacacacatrcacacacacacacacacatrcacacacacacacacacatrcacacacacacacacacatrcacacacacacacacacatrcacacacacacacacacatrcacacacacacacacacatrcacacacacacacacacatrcacacacacacacacacatrcacacacacacacacacatrcacacacacacacacacatrcacacacacacacacacatrcacacacacacacacacatrcacacacacacacacacatrcacacacacacacacacatrcacacacacacacacacatrcacacacacacacacacatrcacacacacacacacacatrcacacacacacacacacatrcacacacacacacacacatrcacacacacacacacacatrcacacacacacacacacatrcacacacacacacacacatrcacacacacacacacacatrcacacacacacacacacatrcacacacacacacacacatrcacacacacacacacacatrcacacacacacacacacatrcacacacacacacacacatrcacacacacacacacacatrcacacacacacacacacatrcacacacacacacacacatrcacacacacacacacacatrcacacacacacacacacatrcacacacacacacacacatrcacacacacacacacacatrcacacacacacacacacatrcacacacacacacacacatrcacacacacacacacacatrcacacacacacacacacatrcacacacacacacacacatrcacacacacacacacacatrcacacacacacacacacatrcacacacacacacacacatrcacacacacacacacacatrcacacacacacacacacatrcacacacacacacacacatrcacacacacacacacacatrcacacacacacacacacatrcacacacacacacacacatrcacacacacacacacacatrcacacacacacacacacatrcacaaaacacacacacacatrcacacacacacacacacatrcacacacacacacacacatrcacacacacacacacacatrcacacacacacacacacatrcacacacacacacacacatrcacacacacacacacacatrcacacacacacacacacatrcaaaacacacacacacacatrcacacacacacacacacatrcacacacacacacacacatrcacacacacacacacacatrcacacacacacacacacatrcacacacacacacacacatrcacacacacacacacacatraaacacacacacacacacatrcacacacacacacacacatrcacacacaaaacacacacatrcacacacacacacacacatrcacacacacacacacacatrcacacacacacacacac'
.(lp1
(F30.370035999999999
F90.322952000000001
tp2
a.cnumpy.core.multiarray
scalar
p1
(cnumpy
dtype
p2
(S'f8'
I0
I1
tRp3
(I3
S'<'
NNNI-1
I-1
I0
tbS'@g\x1f\x84\xf9G\x8f?'
tRp4
.F0
.