ccopy_reg
_reconstructor
p1
(cpykov
Vector
p2
c__builtin__
dict
p3
(dp4
S'0'
F0.30769230769230771
sS'd'
F0.038461538461538464
sS'g'
F0.019230769230769232
sS'h'
F0.038461538461538464
sS'9'
F0.15384615384615385
sS'i'
F0.096153846153846159
sS'z'
F0.34615384615384615
stRp5
.ccopy_reg
_reconstructor
p1
(cpykov
Chain
p2
c__builtin__
dict
p3
(dp4
(S'9'
S'i'
tp5
F0.375
s(S'z'
S'z'
tp6
F0.22222222222222224
s(S'g'
S'g'
tp7
F1
s(S'9'
S'0'
tp8
F0.125
s(S'd'
S'0'
tp9
F1
s(S'i'
S'h'
tp10
F0.40000000000000002
s(S'9'
S'9'
tp11
F0.5
s(S'h'
S'0'
tp12
F1
s(S'z'
S'i'
tp13
F0.16666666666666669
s(S'i'
S'g'
tp14
F0.20000000000000001
s(S'0'
S'z'
tp15
F1
s(S'i'
S'd'
tp16
F0.40000000000000002
s(S'z'
S'0'
tp17
F0.61111111111111116
stRp18
(dp19
S'_guess'
p20
g1
(cpykov
Vector
p21
g3
(dp22
S'0'
F0.30769230769230771
sS'd'
F0.038461538461538464
sS'g'
F0.019230769230769232
sS'h'
F0.038461538461538464
sS'9'
F0.15384615384615385
sS'i'
F0.096153846153846159
sS'z'
F0.34615384615384615
stRp23
sb.S'99ih0zzih0z0z0z0z0z0z0z0zz0z0z0z#99id0zzi#990z0z#99id0zzig'
p1
.(lp1
(F5.0861510000000001
F5.0817259999999997
tp2
a(F5.004156
F5.0247169999999999
tp3
a(F70417.862899999993
F394689.93852800003
tp4
a(F5.0036209999999999
F5.1705519999999998
tp5
a.cnumpy.core.multiarray
scalar
p1
(cnumpy
dtype
p2
(S'f8'
I0
I1
tRp3
(I3
S'<'
NNNI-1
I-1
I0
tbS'\x92\x07\xd4]\x96=d?'
tRp4
.F1.7936874823726496e-06
.