ccopy_reg
_reconstructor
p1
(cpykov
Vector
p2
c__builtin__
dict
p3
(dp4
S'A'
F0.13636363636363635
sS'C'
F0.056818181818181823
sS'E'
F0.022727272727272728
sS'D'
F0.022727272727272728
sS'G'
F0.011363636363636364
sS'I'
F0.011363636363636364
sS'a'
F0.19318181818181815
sS'c'
F0.125
sS'e'
F0.011363636363636364
sS'd'
F0.068181818181818177
sS'g'
F0.11363636363636365
sS'i'
F0.034090909090909088
sS'h'
F0.034090909090909088
sS'1'
F0.022727272727272728
sS'3'
F0.011363636363636364
sS'r'
F0.011363636363636364
sS'5'
F0.011363636363636364
sS't'
F0.022727272727272728
sS'7'
F0.022727272727272728
sS'v'
F0.011363636363636364
sS'9'
F0.022727272727272728
sS'u'
F0.011363636363636364
sS'z'
F0.011363636363636364
stRp5
.ccopy_reg
_reconstructor
p1
(cpykov
Chain
p2
c__builtin__
dict
p3
(dp4
(S'g'
S'e'
tp5
F0.099999999999999992
s(S'c'
S'g'
tp6
F0.27272727272727271
s(S'A'
S't'
tp7
F0.083333333333333343
s(S'g'
S'I'
tp8
F0.099999999999999992
s(S'h'
S'i'
tp9
F0.33333333333333337
s(S'I'
S'A'
tp10
F1
s(S'g'
S'a'
tp11
F0.19999999999999998
s(S'h'
S'h'
tp12
F0.33333333333333337
s(S'i'
S'h'
tp13
F0.66666666666666674
s(S'c'
S'A'
tp14
F0.18181818181818182
s(S'a'
S'a'
tp15
F0.29411764705882359
s(S'a'
S'd'
tp16
F0.11764705882352944
s(S'D'
S'a'
tp17
F0.5
s(S'9'
S'9'
tp18
F0.5
s(S'C'
S'D'
tp19
F0.19999999999999998
s(S'a'
S'C'
tp20
F0.11764705882352944
s(S'a'
S'v'
tp21
F0.058823529411764719
s(S'E'
S'A'
tp22
F0.5
s(S't'
S'u'
tp23
F0.5
s(S'A'
S'a'
tp24
F0.25
s(S't'
S'z'
tp25
F0.5
s(S'C'
S'A'
tp26
F0.79999999999999993
s(S'u'
S'a'
tp27
F1
s(S'c'
S'a'
tp28
F0.36363636363636365
s(S'g'
S'C'
tp29
F0.099999999999999992
s(S'A'
S'd'
tp30
F0.16666666666666669
s(S'D'
S'A'
tp31
F0.5
s(S'z'
S'C'
tp32
F1
s(S'a'
S'c'
tp33
F0.23529411764705888
s(S'G'
S'E'
tp34
F1
s(S'h'
S'A'
tp35
F0.33333333333333337
s(S'A'
S'A'
tp36
F0.25
s(S'i'
S'c'
tp37
F0.33333333333333337
s(S'g'
S'g'
tp38
F0.099999999999999992
s(S'd'
S'g'
tp39
F0.83333333333333337
s(S'c'
S'i'
tp40
F0.090909090909090912
s(S'r'
S'c'
tp41
F1
s(S'1'
S'a'
tp42
F0.5
s(S'a'
S't'
tp43
F0.058823529411764719
s(S'c'
S'd'
tp44
F0.090909090909090912
s(S'v'
S'r'
tp45
F1
s(S'A'
S'c'
tp46
F0.16666666666666669
s(S'e'
S'a'
tp47
F1
s(S'g'
S'E'
tp48
F0.099999999999999992
s(S'1'
S'd'
tp49
F0.5
s(S'7'
S'7'
tp50
F0.5
s(S'a'
S'g'
tp51
F0.058823529411764719
s(S'9'
S'i'
tp52
F0.5
s(S'3'
S'1'
tp53
F1
s(S'g'
S'c'
tp54
F0.29999999999999993
s(S'a'
S'D'
tp55
F0.058823529411764719
s(S'd'
S'a'
tp56
F0.16666666666666669
s(S'7'
S'G'
tp57
F0.5
s(S'E'
S'a'
tp58
F0.5
s(S'A'
S'C'
tp59
F0.083333333333333343
s(S'5'
S'1'
tp60
F1
stRp61
(dp62
S'_guess'
p63
g1
(cpykov
Vector
p64
g3
(dp65
S'A'
F0.13636363636363635
sS'C'
F0.056818181818181823
sS'E'
F0.022727272727272728
sS'D'
F0.022727272727272728
sS'G'
F0.011363636363636364
sS'I'
F0.011363636363636364
sS'a'
F0.19318181818181815
sS'c'
F0.125
sS'e'
F0.011363636363636364
sS'd'
F0.068181818181818177
sS'g'
F0.11363636363636365
sS'i'
F0.034090909090909088
sS'h'
F0.034090909090909088
sS'1'
F0.022727272727272728
sS'3'
F0.011363636363636364
sS'r'
F0.011363636363636364
sS'5'
F0.011363636363636364
sS't'
F0.022727272727272728
sS'7'
F0.022727272727272728
sS'v'
F0.011363636363636364
sS'9'
F0.022727272727272728
sS'u'
F0.011363636363636364
sS'z'
F0.011363636363636364
stRp66
sb.S'31avrcdgIAcggcadgEacgcaaatzCAaCAdacga#99ihihhAAaaa#77GEA#51dgCDaageacAAtuacicadgaDAcAACAdgcaCA'
.(lp1
(F8.9929000000000006
F22.328116000000001
tp2
a(F0.000408
F5.8923920000000001
tp3
a(F44.736063999999999
F0.000464
tp4
a(F31.758603000000001
F37.590809999999998
tp5
a.cnumpy.core.multiarray
scalar
p1
(cnumpy
dtype
p2
(S'f8'
I0
I1
tRp3
(I3
S'<'
NNNI-1
I-1
I0
tbS'p\xe5;\x86\xa1\x98\x85?'
tRp4
.F8.6487900465210842e-22
.