ccopy_reg
_reconstructor
p1
(cpykov
Vector
p2
c__builtin__
dict
p3
(dp4
S'A'
F0.080444203683640303
sS'C'
F0.0051462621885157095
sS'D'
F0.00054171180931744309
sS'G'
F0.0010834236186348862
sS'I'
F0.0016251354279523294
sS'H'
F0.046316359696641385
sS'8'
F0.00027085590465872155
sS'a'
F0.10590465872156013
sS'c'
F0.048483206933911165
sS'b'
F0.00027085590465872155
sS'g'
F0.017063921993499452
sS'i'
F0.0010834236186348862
sS'h'
F0.0083965330444203679
sS'1'
F0.00027085590465872155
sS'0'
F0.0029794149512459372
sS'r'
F0.01218851570964247
sS'u'
F0.00081256771397616469
sS't'
F0.011917659804983749
sS'w'
F0.00054171180931744309
sS'y'
F0.013542795232936078
sS'x'
F0.63840736728060665
sS'z'
F0.0027085590465872156
stRp5
.ccopy_reg
_reconstructor
p1
(cpykov
Chain
p2
c__builtin__
dict
p3
(dp4
(S'y'
S'r'
tp5
F0.039999999999999994
s(S'c'
S'g'
tp6
F0.005586592178770949
s(S'G'
S'G'
tp7
F0.25
s(S'i'
S'a'
tp8
F0.5
s(S'g'
S'a'
tp9
F0.41269841269841284
s(S'c'
S'A'
tp10
F0.005586592178770949
s(S'a'
S'a'
tp11
F0.14066496163682865
s(S'0'
S'x'
tp12
F1
s(S'D'
S'a'
tp13
F0.5
s(S'a'
S'H'
tp14
F0.24552429667519182
s(S'x'
S't'
tp15
F0.015697921086126432
s(S'a'
S'C'
tp16
F0.035805626598465472
s(S'a'
S'0'
tp17
F0.0025575447570332479
s(S'h'
S'a'
tp18
F0.61290322580645162
s(S'z'
S'z'
tp19
F0.099999999999999992
s(S'x'
S'g'
tp20
F0.0021213406873143827
s(S'a'
S'g'
tp21
F0.063938618925831206
s(S'1'
S'A'
tp22
F1
s(S'x'
S'u'
tp23
F0.0012728044123886297
s(S'r'
S'A'
tp24
F0.02222222222222222
s(S'y'
S't'
tp25
F0.019999999999999997
s(S't'
S'r'
tp26
F0.95454545454545459
s(S'g'
S'h'
tp27
F0.015873015873015879
s(S'I'
S'A'
tp28
F1
s(S'r'
S'g'
tp29
F0.13333333333333333
s(S'g'
S'g'
tp30
F0.3809523809523811
s(S'r'
S'y'
tp31
F0.02222222222222222
s(S'x'
S'z'
tp32
F0.0029698769622401363
s(S'A'
S'I'
tp33
F0.0033670033670033669
s(S'h'
S'g'
tp34
F0.032258064516129031
s(S't'
S'x'
tp35
F0.045454545454545449
s(S'r'
S'h'
tp36
F0.02222222222222222
s(S'x'
S'r'
tp37
F0.00042426813746287658
s(S'a'
S'c'
tp38
F0.32736572890025573
s(S'C'
S'A'
tp39
F0.89473684210526316
s(S'g'
S'x'
tp40
F0.11111111111111116
s(S'a'
S'D'
tp41
F0.0025575447570332479
s(S'A'
S'H'
tp42
F0.24579124579124581
s(S'A'
S'C'
tp43
F0.016835016835016835
s(S'r'
S'i'
tp44
F0.02222222222222222
s(S'a'
S'y'
tp45
F0.0076726342710997444
s(S'u'
S'x'
tp46
F1
s(S'a'
S'x'
tp47
F0.079283887468030681
s(S'A'
S'y'
tp48
F0.0033670033670033669
s(S'x'
S'G'
tp49
F0.00084853627492575317
s(S'x'
S'x'
tp50
F0.95333050487908366
s(S'G'
S'x'
tp51
F0.5
s(S'y'
S'y'
tp52
F0.039999999999999994
s(S'r'
S'a'
tp53
F0.02222222222222222
s(S'g'
S'0'
tp54
F0.015873015873015879
s(S'a'
S'i'
tp55
F0.0051150895140664957
s(S'H'
S'A'
tp56
F0.98830409356725157
s(S'A'
S'a'
tp57
F0.36363636363636365
s(S'C'
S'H'
tp58
F0.10526315789473684
s(S'A'
S'x'
tp59
F0.0033670033670033669
s(S'x'
S'y'
tp60
F0.018243529910903694
s(S'i'
S'A'
tp61
F0.25
s(S'h'
S'x'
tp62
F0.032258064516129031
s(S'y'
S'x'
tp63
F0.83999999999999997
s(S'c'
S'a'
tp64
F0.983240223463687
s(S'a'
S'h'
tp65
F0.038363171355498715
s(S'i'
S'g'
tp66
F0.25
s(S'A'
S'i'
tp67
F0.0033670033670033669
s(S'x'
S'h'
tp68
F0.00042426813746287658
s(S'h'
S'A'
tp69
F0.32258064516129031
s(S'b'
S'a'
tp70
F1
s(S'H'
S'a'
tp71
F0.011695906432748537
s(S'g'
S't'
tp72
F0.047619047619047637
s(S'r'
S'c'
tp73
F0.75555555555555554
s(S'A'
S'h'
tp74
F0.040404040404040407
s(S'A'
S'A'
tp75
F0.2626262626262626
s(S'A'
S'c'
tp76
F0.057239057239057235
s(S'D'
S'D'
tp77
F0.5
s(S'w'
S'x'
tp78
F1
s(S'a'
S'A'
tp79
F0.033248081841432228
s(S'a'
S't'
tp80
F0.0051150895140664957
s(S'x'
S'0'
tp81
F0.003818413237165889
s(S'c'
S'h'
tp82
F0.005586592178770949
s(S'y'
S'G'
tp83
F0.019999999999999997
s(S'y'
S'z'
tp84
F0.039999999999999994
s(S'z'
S'x'
tp85
F0.90000000000000002
s(S'G'
S't'
tp86
F0.25
s(S'g'
S'b'
tp87
F0.015873015873015879
s(S'8'
S'1'
tp88
F1
s(S'a'
S'I'
tp89
F0.01278772378516624
s(S'x'
S'w'
tp90
F0.00084853627492575317
stRp91
(dp92
S'_guess'
p93
g1
(cpykov
Vector
p94
g3
(dp95
S'A'
F0.080444203683640303
sS'C'
F0.0051462621885157095
sS'D'
F0.00054171180931744309
sS'G'
F0.0010834236186348862
sS'I'
F0.0016251354279523294
sS'H'
F0.046316359696641385
sS'8'
F0.00027085590465872155
sS'a'
F0.10590465872156013
sS'c'
F0.048483206933911165
sS'b'
F0.00027085590465872155
sS'g'
F0.017063921993499452
sS'i'
F0.0010834236186348862
sS'h'
F0.0083965330444203679
sS'1'
F0.00027085590465872155
sS'0'
F0.0029794149512459372
sS'r'
F0.01218851570964247
sS'u'
F0.00081256771397616469
sS't'
F0.011917659804983749
sS'w'
F0.00054171180931744309
sS'y'
F0.013542795232936078
sS'x'
F0.63840736728060665
sS'z'
F0.0027085590465872156
stRp96
sb.S'81AiAahaAHAAHAAHAAHAAHAAHAAHAAHAAHAAHAAHAAHAAHAAHAAHAAHAAHAAHAAHAAHAAHAACAhaaHAaCAcahaaaAhAAhAAhAAhAaCAcacaahaaaHAaHAaHAaHAaHAaHAaHAaHAaHAaHAaHAaHAaHAaHAaHAaHAaHAaHAaHAaHAaCHaaHAaHAaHAaHAaHAaHAaHAaHAaCHaaHAaHAaCAcacacahaaaHAaHAaHAaHAaHAaCAcacahaaAHAAHAAHAAHAAHAAHAAHAAHAACAcacahaaaAhAAhAAhAaHAAhAAhAAhAAcAcacahaaAHAAHAAHAAHAAHAAHAaCAcacacacayraHAaHAaHAaHAaHAaHAaHAaHAaHAaHAaHAaHAaHAaCAcacahaaaAHAaHAAHAAHAAHAACAcahaaaHAaHAaHAaIAaIAaIAaDDaaHAaHAaHAaHAaHAaHAaHAaHAaIAaHAaHAaHAaHAaHAaHAaHAaHAaHAaHAaHAaHAaCAcacahaaaAHAAHAAHAAHAAHAAHAAHAAHAAHAAHAaCAcacacacaahaaAIAaHAaHAaHAaHAaHAaHAaHAaHAaCAcacahaaaAHAAHAAHAAHAAHAAHAAHAAHAAHAAHAAHAAHAACAhaaAHAaHAaHAaHAaHAaIAaHAaHAaCAcahaaHAaHAaHAaHAaCAcacacachaaaaHAaHAaHAaHAaCAcacahaaAHAAHAAHAAHAAHAAHAAHAAHAACAcacacacaAyrAHAAHAAHAa0xxxxxxxxxxxxxxxxxxxxtrcacacacacaiaaxxtrcacacacacacacacacacaxxtrcacacacacacacacacacaAxxxxxxyxxxxxxxyxxxtrcacacacacacacacacaggaaxxxxxxxxxxxxxxxxxxyxxxtrcacacaggaaxxxxxxxxxxxxxxxxtrcahaaxxxxxxxxxxxxxxxxxxxxtrcacacacacagaaxxxxxxtrcacaaggaaxxxxxxtrcacacacaagatrigaxxxxxxyxxxxxyxxxxxxxxxxxxxxxxxxxtrcaggaxxxxxxxx0xxxxxxxxxxtrcacacaggaaxxtrcacacacacacacacacaggaxxxxxxxxxxxxxxxxxxxxxxyxxxxxxxxxxxxxxxxxxxxxyxxxxxxxxxxxxxxxyxyxxxtrcacacacaggaaxxtrcacagaaxxtrggaxxxxxxxxxxxxyxxxxxxxxxxxxxxxxxxxtrhgaxxxxtrggxxxxxytrcacacacacacacacacacaxxxxxxyxxxxxxxxxzxxxxxxxxxxxxxxxxxxxxxxxxxyxxxxxxxxxxxxxxxtrggxxxxxxxxxxxxxxxxxxxxxxxxxxtxgxxxx0xxtrggayxyxxxxxxxxxxxyxxxxxxxxxxxyxtrcaghaxxxxxxxxxxxxxxxyxxxxxxxxxxxxxxxxxxxxxxxxxxxxyxxxxxxxtrcacaggaaxxxxxxtrcacacacacacacacacacaxxtrcacaggaayxxxxxxxxxxxxxxxxxxxxxxxxxxxxxxxyxxxxxxxtrcacagaaxxtrcacaaggbaxxxxxxxxxxxxtrcacacacacaggaaxxxxxxxxxxyxwxgtrcaaggxxxxxxxxxyxxxxzxxxxxxxyxtrcaggaxxxxxxxxxxxxxxxxxxzxxxyxxyxxxx0xxxxxxxxxxxxxxxxxxxxxxxxxxxxxxxxtrcaggaxxtrggxxtrcaiaaxxxxxxxxxxxxxxxxxxxxxxxxxxxxxxxxtrcacaggaaxxxxxxxxxxxxxxxxxxxxxxxxtrcacacacaagaxxxxxxxxxxxxtxgtrcacacacacagaatrcggaxxxxxxzxxxxxxxxxzxxxxxxxxxxxxxtrcaaggtrcacacacacacacacacacaxxxxxxxxxxtrcacacacagaaxxxxxxGGtrcacacacacacacaggaaxxxxxxxxxxxxxxxxxxxxxxxxxxxxxxxxxxxxxxxxxxxxxxxxxxxxxxxxxx0xxxxxxxxxxxxxxxxxxxxxxxxxxxxxxxxxxxxxxxxxxxxxxxxyxxxxxxxxxxxxxxxxxxxxxxxxxxxxxxxxxxxxxxxxxxxxxxxxxxxxxxxxxxxxxxxxxxxxxxxxxxxxxuxhxxxxxxxxxxxxxxxxxxxxxxxxxxxxxxxxxxxxxxxxxxxxxxxxxxxxxxxxxxxxxxxxxxxxxxxxxxxxxxxxxxxxxxxxxxxxxxxxxxxxxxxxuxg0xxxxxxxxxxxxxxxxxxxxxxxxxxxxxxxxxxxxxxxxxxxxxxxxxxxxxxxxxxxxxxyxxxxxxxxxxxxxxxxxxxxxxxxxxxxxxxxxxxxxxxxxxxxxxxxxxxxxxxxxxxxxxxxxxxxxxxxxxxxxxxxxxxxxxxxxxxxxxxxxxxxxxxxxxxxxxxxxxxxxxxxxxxxxxxxxxxxxxxxxxxxxxxxxxxxxxxxxxxxxxxxxxxxxxxxxxx0xxxxxxxxxxxxxxxxxxxxxxxxxxxxxxxxxxxxxxxxxxxxxxxxxxxxxxxxxxxxxxxxxxxxxxxxxxxxxxxxxxxxxxxxxxxxxxyxxxxxxxxxxxxxxxxxxxxxxxxxxxxxxxxxxxxxxxxxxxxxxxxxxxxxxxxxxxxxxxxxxxxxxxxxxxxxxxxxxxxxxxxxxxxxxxxxxxxxxxxxxxxxxxxxxxxxxxxxxxxxxxxxxxxxxxxxxx0xxxxxxxxxxxxxxxxxxxxxxxxxxxxxxxxxxxxxxxxxxxxxxxxxxxxxxxxxxxxxxxxxxxxxxxxxxxxxxxxxxxxxxxxxxxxxxxxxxxxxxxxxxxxxxxxxxxxxxxxxxxxxxxxxxxxxxxxxxxxxxxxxxxxxxxxxxxxxxxxxxxxxxxxxxxxxxxxxxxxxxxxxxxxxxxxxxxxxxxxxxxxxxxxzxxxxxxxxxxxxxxxxxxxxxxxxx0xxxxxxxxxxxxxxxxxxxxxxxxyxxxxxxxxxxxxxxxxxyxxxxxxxxxxxxxxxxxyxxxxxxxyyyxxxxxxxxxxxxxxxxxxxxxxxxxxxxxxxxxxyzxxxxxxxxxxxxxxxxxxxxxxxxxxxxxyxxxxxxxxxxxxxxxxxxxxyxxxxxxxxxxyxxxxxxxxxxxxxxxxxwxGxxxxxxxxxxxxxxxxxxxxxxxxxxxxxxxxxxxzzxxxxxxxxx0xxxxxxxxxxxxxxxxxxxxyzxxxxxxxxxxxxxxxxxxxxxxxxxxxxxxxxxxxxxxxxxxxxxxxxxxxxxxxxxxxxxxxxxxxxxxxxxxxxxxxxxxxxxxxxxxxxxxxxxxxyxxxxyxxxxxxxxxxxxxxxxxxxxxxxxxyxxxxxxxxxxxxxxxxxxxxxxxxxxxxxxxxxxxxxxxxxyxxxxxxxxxxxxxxxyxxxxxxxxxxxxxxxxxxxxxxx0xxxxxxxxxxxxxxxxxxxxtrggxxxxxxxxxxxxxxxxxxxxxxxxxxxxxxxxxxxxxxxxxxxxxxuxgxxxxxxxxxxxxxxxxxxxxxxxxxxxxxxxxxxxxxxxxxxxxxxxxxxxxxxxxxxxxxyxxxxxxxxxxxxxxxxxxxxxxxxxxxxxxxxxxxxxxxxxxxxxxxxxxxxxxxxxxxxxxyxxxxxxxxxxxxxxxxxxxxxxxxxxxxxryGxxxxxxxx'
p1
.(lp1
(F16.538474999999998
F73.694235000000006
tp2
a.cnumpy.core.multiarray
scalar
p1
(cnumpy
dtype
p2
(S'f8'
I0
I1
tRp3
(I3
S'<'
NNNI-1
I-1
I0
tbS'\xad\xcb"[Gi}?'
tRp4
.F0
.