ccopy_reg
_reconstructor
p1
(cpykov
Vector
p2
c__builtin__
dict
p3
(dp4
S'A'
F0.0011952051182901537
sS'C'
F0.00017576545857208141
sS'E'
F3.5153091714416281e-05
sS'D'
F0.00035153091714416282
sS'G'
F0.069181284493971248
sS'F'
F3.5153091714416281e-05
sS'I'
F0.0002109185502864977
sS'H'
F0.0020037262277217277
sS'8'
F3.5153091714416281e-05
sS'a'
F0.001933420044292895
sS'c'
F0.00024607164200091396
sS'd'
F0.00045699019228741169
sS'g'
F0.47896087460892189
sS'f'
F0.00014061236685766512
sS'i'
F0.0015115829437199
sS'h'
F0.011881744999472704
sS'7'
F0.0010897458431469048
sS'1'
F0.00035153091714416282
sS'0'
F0.043976517734734766
sS'3'
F0.00035153091714416282
sS'r'
F0.0005624494674306605
sS'u'
F0.0002109185502864977
sS't'
F0.00056244946743066039
sS'w'
F7.0306183428832562e-05
sS'v'
F0.00017576545857208141
sS'y'
F0.016240728372060319
sS'x'
F0.36534608218792852
sS'z'
F0.0027067880620100537
stRp5
.ccopy_reg
_reconstructor
p1
(cpykov
Chain
p2
c__builtin__
dict
p3
(dp4
(S'G'
S'G'
tp5
F0.47459349593495931
s(S'D'
S'G'
tp6
F0.19999999999999998
s(S'u'
S'u'
tp7
F0.16666666666666666
s(S'1'
S'c'
tp8
F0.099999999999999992
s(S'i'
S'h'
tp9
F0.046511627906976744
s(S'r'
S'a'
tp10
F0.25
s(S'z'
S'0'
tp11
F0.03896103896103896
s(S'0'
S'x'
tp12
F0.90567545963229423
s(S'a'
S'H'
tp13
F0.018181818181818184
s(S'x'
S't'
tp14
F0.00028865582603675546
s(S'z'
S'h'
tp15
F0.012987012987012986
s(S'd'
S'C'
tp16
F0.076923076923076913
s(S'x'
S'w'
tp17
F9.6218608678918472e-05
s(S'y'
S'x'
tp18
F0.041125541125541135
s(S'7'
S'x'
tp19
F0.032258064516129031
s(S'i'
S'y'
tp20
F0.023255813953488372
s(S'f'
S'a'
tp21
F0.25
s(S'z'
S'z'
tp22
F0.5714285714285714
s(S'x'
S'g'
tp23
F0.38910805349754629
s(S'G'
S'a'
tp24
F0.00050813008130081295
s(S'0'
S'y'
tp25
F0.03836930455635492
s(S'f'
S'c'
tp26
F0.25
s(S'x'
S'u'
tp27
F9.6218608678918472e-05
s(S'y'
S'H'
tp28
F0.036796536796536806
s(S'h'
S'x'
tp29
F0.032544378698224852
s(S'0'
S'H'
tp30
F0.0007993605115907274
s(S'x'
S'd'
tp31
F9.6218608678918472e-05
s(S'7'
S'0'
tp32
F0.032258064516129031
s(S'u'
S'A'
tp33
F0.16666666666666666
s(S'g'
S'y'
tp34
F0.00066055045871559631
s(S'H'
S'y'
tp35
F0.40350877192982459
s(S'A'
S'I'
tp36
F0.029411764705882349
s(S'h'
S'g'
tp37
F0.059171597633136092
s(S'G'
S'D'
tp38
F0.0035569105691056905
s(S'd'
S'd'
tp39
F0.076923076923076913
s(S'1'
S'0'
tp40
F0.90000000000000002
s(S't'
S'x'
tp41
F0.062500000000000014
s(S'I'
S'c'
tp42
F0.16666666666666666
s(S'7'
S'7'
tp43
F0.4838709677419355
s(S'D'
S'g'
tp44
F0.5
s(S'G'
S'g'
tp45
F0.39329268292682923
s(S'x'
S'h'
tp46
F0.00096218608678918475
s(S'i'
S'z'
tp47
F0.41860465116279072
s(S'a'
S'a'
tp48
F0.65454545454545476
s(S'f'
S'A'
tp49
F0.25
s(S'x'
S'G'
tp50
F0.020687000865967472
s(S'x'
S'x'
tp51
F0.54074858077552179
s(S'H'
S'H'
tp52
F0.26315789473684215
s(S'I'
S'z'
tp53
F0.33333333333333331
s(S'g'
S'd'
tp54
F0.00066055045871559631
s(S'0'
S't'
tp55
F0.0063948840927258192
s(S'E'
S'd'
tp56
F1
s(S'x'
S'D'
tp57
F9.6218608678918472e-05
s(S'x'
S'y'
tp58
F0.0015394977388626955
s(S'r'
S'C'
tp59
F0.0625
s(S'u'
S'a'
tp60
F0.33333333333333331
s(S'c'
S'a'
tp61
F0.7142857142857143
s(S'a'
S'c'
tp62
F0.036363636363636369
s(S'h'
S'0'
tp63
F0.020710059171597631
s(S'g'
S't'
tp64
F0.00029357798165137612
s(S'f'
S'f'
tp65
F0.25
s(S'z'
S'g'
tp66
F0.012987012987012986
s(S'u'
S'r'
tp67
F0.16666666666666666
s(S'v'
S'y'
tp68
F0.19999999999999998
s(S'g'
S'i'
tp69
F0.00029357798165137612
s(S'h'
S'z'
tp70
F0.0059171597633136093
s(S'F'
S'A'
tp71
F1
s(S'x'
S'0'
tp72
F0.045992494948523033
s(S'u'
S'c'
tp73
F0.16666666666666666
s(S'h'
S'h'
tp74
F0.5325443786982248
s(S'7'
S'G'
tp75
F0.064516129032258063
s(S'H'
S'D'
tp76
F0.01754385964912281
s(S'8'
S'7'
tp77
F1
s(S'g'
S'D'
tp78
F7.3394495412844031e-05
s(S'a'
S'w'
tp79
F0.018181818181818184
s(S'G'
S'H'
tp80
F0.0020325203252032518
s(S'H'
S'z'
tp81
F0.01754385964912281
s(S'z'
S'y'
tp82
F0.025974025974025972
s(S'H'
S'h'
tp83
F0.17543859649122812
s(S'A'
S'F'
tp84
F0.029411764705882349
s(S'c'
S'A'
tp85
F0.2857142857142857
s(S'I'
S'i'
tp86
F0.16666666666666666
s(S'D'
S'a'
tp87
F0.099999999999999992
s(S'0'
S'G'
tp88
F0.0071942446043165471
s(S'x'
S'H'
tp89
F9.6218608678918472e-05
s(S't'
S'u'
tp90
F0.12500000000000003
s(S'C'
S'g'
tp91
F0.19999999999999998
s(S'0'
S'g'
tp92
F0.033573141486810558
s(S'r'
S'f'
tp93
F0.0625
s(S'z'
S'G'
tp94
F0.012987012987012986
s(S'y'
S'0'
tp95
F0.058441558441558454
s(S'A'
S'd'
tp96
F0.029411764705882349
s(S'r'
S'A'
tp97
F0.25
s(S'h'
S'y'
tp98
F0.29881656804733725
s(S't'
S'r'
tp99
F0.68750000000000022
s(S'g'
S'h'
tp100
F0.0013211009174311926
s(S'A'
S'A'
tp101
F0.29411764705882348
s(S'g'
S'g'
tp102
F0.63926605504587153
s(S'd'
S'g'
tp103
F0.53846153846153844
s(S'a'
S'f'
tp104
F0.018181818181818184
s(S'h'
S'H'
tp105
F0.044378698224852069
s(S'A'
S'0'
tp106
F0.1176470588235294
s(S'z'
S'i'
tp107
F0.24675324675324678
s(S'a'
S'A'
tp108
F0.036363636363636369
s(S'0'
S'w'
tp109
F0.0007993605115907274
s(S'7'
S'g'
tp110
F0.38709677419354838
s(S'y'
S'w'
tp111
F0.0043290043290043299
s(S'v'
S'G'
tp112
F0.39999999999999997
s(S'G'
S'0'
tp113
F0.017784552845528455
s(S'G'
S'h'
tp114
F0.00050813008130081295
s(S't'
S'A'
tp115
F0.062500000000000014
s(S'D'
S'0'
tp116
F0.19999999999999998
s(S'g'
S'A'
tp117
F0.00066055045871559631
s(S'3'
S'1'
tp118
F1
s(S'g'
S'x'
tp119
F0.24946788990825686
s(S'I'
S'I'
tp120
F0.16666666666666666
s(S'G'
S'y'
tp121
F0.0010162601626016259
s(S'y'
S'v'
tp122
F0.0064935064935064948
s(S'C'
S'd'
tp123
F0.19999999999999998
s(S'H'
S'g'
tp124
F0.035087719298245619
s(S'A'
S'C'
tp125
F0.058823529411764698
s(S'C'
S'A'
tp126
F0.19999999999999998
s(S'i'
S'x'
tp127
F0.023255813953488372
s(S'C'
S'r'
tp128
F0.39999999999999997
s(S'a'
S'x'
tp129
F0.018181818181818184
s(S'y'
S'g'
tp130
F0.028138528138528143
s(S'r'
S'0'
tp131
F0.375
s(S'0'
S'u'
tp132
F0.0015987210231814548
s(S'w'
S'r'
tp133
F1
s(S'a'
S'G'
tp134
F0.10909090909090913
s(S'G'
S'x'
tp135
F0.10518292682926829
s(S'y'
S'y'
tp136
F0.56060606060606066
s(S'v'
S'A'
tp137
F0.19999999999999998
s(S'H'
S'0'
tp138
F0.01754385964912281
s(S'z'
S'I'
tp139
F0.03896103896103896
s(S'g'
S'0'
tp140
F0.049394495412844033
s(S'G'
S'C'
tp141
F0.00050813008130081295
s(S'g'
S'H'
tp142
F0.00022018348623853209
s(S'A'
S'a'
tp143
F0.38235294117647056
s(S'g'
S'G'
tp144
F0.057614678899082568
s(S'd'
S'G'
tp145
F0.23076923076923075
s(S'z'
S't'
tp146
F0.012987012987012986
s(S'a'
S'0'
tp147
F0.072727272727272738
s(S'A'
S'E'
tp148
F0.029411764705882349
s(S'i'
S'g'
tp149
F0.069767441860465129
s(S'd'
S'c'
tp150
F0.076923076923076913
s(S'h'
S'A'
tp151
F0.0029585798816568047
s(S'y'
S'i'
tp152
F0.0021645021645021649
s(S't'
S'a'
tp153
F0.062500000000000014
s(S'g'
S'z'
tp154
F7.3394495412844031e-05
s(S'G'
S'A'
tp155
F0.0010162601626016259
s(S'0'
S'z'
tp156
F0.0055955235811350921
s(S'H'
S'G'
tp157
F0.070175438596491238
s(S'x'
S'v'
tp158
F0.00019243721735783694
s(S'y'
S'h'
tp159
F0.25108225108225113
s(S'v'
S'0'
tp160
F0.19999999999999998
s(S'y'
S'G'
tp161
F0.0064935064935064948
s(S'y'
S'z'
tp162
F0.0043290043290043299
s(S'z'
S'x'
tp163
F0.025974025974025972
s(S'A'
S'G'
tp164
F0.029411764705882349
s(S'i'
S'i'
tp165
F0.41860465116279072
s(S'I'
S'f'
tp166
F0.16666666666666666
s(S'a'
S'I'
tp167
F0.018181818181818184
s(S'h'
S'G'
tp168
F0.0029585798816568047
stRp169
(dp170
S'_guess'
p171
g1
(cpykov
Vector
p172
g3
(dp173
S'A'
F0.0011952051182901537
sS'C'
F0.00017576545857208141
sS'E'
F3.5153091714416281e-05
sS'D'
F0.00035153091714416282
sS'G'
F0.069181284493971248
sS'F'
F3.5153091714416281e-05
sS'I'
F0.0002109185502864977
sS'H'
F0.0020037262277217277
sS'8'
F3.5153091714416281e-05
sS'a'
F0.001933420044292895
sS'c'
F0.00024607164200091396
sS'd'
F0.00045699019228741169
sS'g'
F0.47896087460892189
sS'f'
F0.00014061236685766512
sS'i'
F0.0015115829437199
sS'h'
F0.011881744999472704
sS'7'
F0.0010897458431469048
sS'1'
F0.00035153091714416282
sS'0'
F0.043976517734734766
sS'3'
F0.00035153091714416282
sS'r'
F0.0005624494674306605
sS'u'
F0.0002109185502864977
sS't'
F0.00056244946743066039
sS'w'
F7.0306183428832562e-05
sS'v'
F0.00017576545857208141
sS'y'
F0.016240728372060319
sS'x'
F0.36534608218792852
sS'z'
F0.0027067880620100537
stRp174
sb.S'77G0xxgxxxggGGgggxxggxxggGGggxxggGGggxxgggGxxggGGgGGggxxggxxgxgxxxgggxxgggGxxgGxxgxxxgxg0xxxgggxxxxx0xxx0xxxGxxxgxgxgxxgxxggxxxxgyxggxxxxxgxxxxxgxxxxxxxxxggxxxxx0xxxgGxggxxggxxgxxggxxxGxgxxxGGGGGGxxGGGGGGGGGGGGGGGxxGGGGGGxxGGGGGGxxGGGGGGxxgxxgxxgxxgxx0xxgxxggxxxxgxxggggggxxggxxggxgxgggggxxgxxggggxxgxxgggxGxgggxxxxggxxgggxxgyyyyyyhhyyyyyyhyyyhhhhyyhhhhhhyyhhhhhhhyyhhhhhyyhhyyhyyhhhyyhhhhhyyyyhhyyhyHyhhyyyyhyyHHy0yyyyyyhhhyyhyyyHyhyyhhhyyhyyhyy0yyyhyhhyyhhhyyyyyGxgxxgxxgxxggxxggxxxgggggxxggggggggGGgxxGgxxxxxxxggxxxgxxxgxxgggxxggxxxGGx0xxGGxxxxxggggxxxxggggggxxgggxxggggxxxxgxxgx0xxgxxgxggxxx0xxxxggxxxxxxxxxxxgxxxxggxxxxgxxgxxxxggxxxxxxxxxxxxxgggxxggGGggggGGgxxggggggxxggggggxxggggxxgggggxxgggxxxxxxxxhxxxgxx0xxxgxxxxgxxgGxgxxgGxgxxgxxgGGGxxGgxxgGxxGx0xxxxxxggxxgggxxggggxxxxgggxxgggxxggGxggGGgg0xxgxxxxxxxxgxxxxxxggxxxxggxxgxgxxggggGGgGxgGxgGxgxxgggGGxxGxGgxxxgxxgxxxgggxgxxx0xxgxxggxxx0xx0xxxxGgxxgg0xxxxxggxxgggggxxggxxgggxxggx0xxx0xxgg0xxx0x0gx0xxxxghgxxxxxgggxxxgggxxgxxxxggxxggxxggxgxgxgxxxggxxgg0xxggxxxx0xxxx0xxgx0x0xxtr0xxgxxxggxggg0xx0xxg0xx0x0xxxx0xx0xx0x0xx0xxxxxxgggxxggxxgxxgxxxgxxxxxgx0x0G0G0gxx0xxxxx0xxgxxxggg0x0xx0x0xxg0x0xxxxxxxgggxxgggggxxggxxggxxggggxxxxgxxgggggxxggxxgxxgxxgggxxxgxgxxxxxxgggxxgxxgxgxgxg0x0g0x0xxgxxxxxx0xxxgggxxxggxxggggxxx0xxxggxGGxgxggx0x0xxgggxgxxgGGxxxxxggxxggxg0xxgxgxxggx0xxxxxxgggxxgggxxggxxxgxggggxxggggxxg0xxxxxxggxxgxxxggxggxxxg0xxxx0xxxggxgxxxgggggxxgxxxx0xxgxxggxxxxxxgggxxgxxxxgxxgxxggxxxxxxxgxxxgg0xxggxxgggg0xxggGGggGggxxgGggggggGGg0xxgggggg0xxgggxxgggxxgggxxggggggg0xxgggxxgggxxgggxxggg0xxgggxxgggxxgggxxggg0xxGGgggxxgggxxggg0xxgggxxgggxxgggGGGGggg0xxgggxxgggxxggggxxggg0xxgggxxgggxxgggxxggggxxgggxxgggxxgggxxggg0xxgggxxgggxxgggxxggg0xxgggxxgggGGgggGGgggxxggg0xxgggxxgggxxgggGGxxggg0xxgggxGGgggxxgggxxggg0xxggGGgggxxgggxxggg0xxggggxxgggxxgggxxggg0xxgggxxgggggxxgggxxggg0xxggggGGgggxxgggxxggg0xxgggggxxgggxxgggxxgggG0xxGgggxxgggxxggg0xxgggxxgggxxgggGGGxgggtra#310xxgg0xxgggggGgGggggggGGxxGgGgggGGGg0xxgggGGGg0xxgggGGgg0xxgggxxgggGGGGgggxxggg0xxgggGGgggGGgggxxgggxxggg0xxgggxxgggxxGgggxxggg0xxgggxxgggxGGgggxxggg0xxgggxxgggGgGgggxxggg0xxGgggxxgggxxggg0xxgggxxgggxxgggxxggg0xxGGgggxxgggxxgggxxgggGxxgggxxgggxxgggxxggg0xxgggxxgggxxgggxxGggg0xxgggggxxgggxxgggxxgggGGgggGGgggxxgggxxgggxxgggggggggxxgggxxgggxxGGgggxxggg0xxgggxxgggxxgggxxggg0xxgggxxgggxxgggxxgggxxgggGGGgggxxgggxxgggxxggggggxxgggxxgggxxggg0xxgggxxgggxxgggxxggg0xxggggggggggxxggggggggxxggggggggxxgggggggg0xxgggxxgggggggggxxgggxxggggxxgggxxgggxxgggGGxggg0xxgggGGGgggxxgggxxggg0xxggggggggxxggggggggxxggggggggxxgggggggg0xxgggxxgggxxgggGGggGGggg0xxgggxxgggggggxxgggxxgggxxgggGGggggggGGgggxxgggxxgggxxgggggggggggxxgggxxgggxxggg0xxgggGGGgggxxgggxxggg0xxgggxxgggxxgggxxgggxxGgggxxgggxxggg0xxgggxxgggxxgggGGxxggg0xxgggGGgGGgggxxgggxxggg0xxgggxxgggxxgggGgGgggxxgggxxgggxxggggxxggg0xxgGgggxxgggxxgggxxgggGG0xxgggGGGGgggxxgggxxggg0xxgggxxgggxxgggxxgggGgGggg0xxgggxxgggxxgggxxgggxxgggxxgggxxgggxxgggxxgggGGGgggxxgggxxggg0urffcaa#77ggggGGGggGgGgggGGGg0xxgggGgggggGgxxggggggxxgGgGgGGg0xxgggxxgggxxgggxxggg0xxggggxGGgggxxgggxxggg0xxgggxxgggxxgggxxggg0xxgggxxgggGGggGGgggxxggg0xxGGgggxxgggxxgggxxgggGGgggg0xxgggxxgggxxgggGGggGGggg0xxgggxxgggxxgggxxGGggg0xxgggxGGgggxxgggxxggg0xxgggGGgGGgggxxgggxxggg0xxgggxxggggggxxgggxxggg0xxgggxxgggxxgggGGgGGggg0xxgggxxggggxxgggxxggggggg0xxghgxxgggxxgggxxggg0xxgggxxgggxxgggxxggg0xxgggxxgggxxgggxxggg#310xxxxxgxgxggggggGgxxggggGGGggGgGgggGGGg0xxgggGgggggGgxxgggggggggggGGgggggGgGgGGg0xxgggxxgggxxgggxxggg0xxgggxxgggxxgggGgGggg0xxgggxxgggxxgggxxggg0xxgggxxgggxxgggxxggg0xxgggxxgggxxgggxxggg0xxggggxGGgggxxgggxxggg0xxgggxxgggxxgggxxggg0xxgggxxgggxxgggGGggGGggg0xxgggxxgggGGggGGgggxxggg0xxGGgggxxgggxxgggxxgggGGgggg0xxggggggggxxggggggggxxggggggggGGggggggGGgggggggg0xxgggxxggggggxxgggxxgggxxgGGgggxxgggxxgggxxggggg0xxgggxxgggGGggGGgggxxggg0xxGGgggxxgggxxgggxxgggGGgGxgggxxgggxxgggxxGGggg0xxgggxGGgggxxgggxxggg0xxgggxxgggxxgggGGghgGGggg0xxgggGGgGGgggxxgggxxggg0xxgggxxggggggxxgggxxggg0xxgggxxgggxxgggxxgggGG0xxgggxxgggxxgggGGgGGgggxxgggxxgggxxgggggggxxggg0xxgggxxgggGGxgggxxgggxxggggxxgggxxgggxxgggGGGgggxxgggxxggg0xxgggxxggggxxgggxxggggggg0xxgggxxgggxxgggxxggg0xxgggxxgggxxgggxxggg0xxGGgggxxgggxxgggxxgggxxgggxxgggxxggg0wrCgHGaIcAa#77x0xxggxxxxgxxxxg0tr0xxgggggg0xxggggxGgggGggg0xxgggxxgggxxgggGGGGggg0xxgggxxgggxxgggGGGggg0xxgggxxgggxxgggxxggg0xxgggGGGgggxxgggxxggg0xxgggGGGgggxxgggxxgggxxggggxxgggxxgggxxggg0xxggggxxgggxxgggxxggg0xxgggxxgggxxgggxxgggxxgggxxgggxxgggxxggg0xxGgggxxgggxxggg0xxgggGGGgggxxgggxxggg0xxgggxxgggxxggggGgggxxggg0xxgggxxggggxxgggxxggg0xxGgggxxgggxxggg0xxggggxxgggxxgggxxgggxxgggxxgggxxgggxxggggxxgggxxgggxxgggGGgggGGgggxxgggxxgggGGGGgggxxgggxxgggxxggggghxxgggxxgggxxggggxxgggxxgggxxgggGGggxxgggxxgggxxgggxxggg0xxGGgggxxgggxxgggxxgggxxgggxxgggGGGggg0xxgggxxgggggxxgggxxggg0xxgggxxgggxxgggxxggg0xxgggxxgggxxgggxxggg0xxgggGGGgggxxgggxxgggxxggggggxxgggxxgggxxgggxxgggGGggxxgggxxgggxxgggGGgggGGgggxxgggxxgggxxgggGGggxxgggxxgggxxgggGGgGGgggxxgggxxgggxxgggggxxgggxxgggxxggggxxgggxxggggggg0xxGgggxxgggxxggg0trA0xvGDGDgd#77ggggxxggggggxxgggggxxgggggxx0xxxgggxGxxgxxxxxxGxgGGGggxxgxxxxxgggggxxgxxgxxxxxgggggxxgxx0xxxxgxxxgggggxGxxxxxx0xxxxxgx0xxgGGxxgx0xxxxxgggxxgggxxgggggxxgggggxxggggggggggggxxggxxgggggGGggggxxggggxxggggxxggggGGGggggxxgxxgxgxgxxggggxxg0xxg0xxxxgxx0x0x0z0zzyhgggx0xxxxxxxgxxgxxGggxxg0xxgxx0xxxgxxxxgggxxggggggxxggxxgxxggx0yygxx0x0g0Hyggxxxgxxxgxxggxgxggxxxx0xx0x0x0xxxx0xxxxxxxxxgggxxggggxxgxxxxggxxgxxggggggxxgggxxgxxgxgGxggggggGGxxGGghxGxxxhggggggxg0xxxx0xx0x0G0gxxxxxxgxgxxggxxxxggxxxgxGGggggggxxggGGggGxxGGgggggggxxgggggggxxgggggggxxgggggggGGGGggggggggggggggxxggggggggggggggxxggggggggggggggxGGggggggggggggggxxgggggggxxggggggggggggxxggggggggggggxxggggggggggggxxggg0xxxgxxxxxg0xxx0x0g0gx0xxxgggx0xxx0xx0xxxx0x0g0gxggxgGGx0x0gxxx0xxggxxgg0xxxxxxxxxg0xxxxxxggggxxggggggxxggxggxxx0xxxxgggxx0xxGxxgxxxggggghHHhHHhhhhgyyhHzziiiiyyhhhhhhhgyyhhhhhhghyyhhhhhhggGHhhHHhhhhyyhhHHhhhhhhhhyyhhhhhhhhyyhhhhhhhhxxgggggggGHHhhhhhhhyyhhhhhhhyyxxxxgxxGxxxgxxg0xxgg0xxxx0xxgxGGggggg0x0xxgxxgxxxxxxgggxxg0xxxxxxggxxx0x0gxxx0xxx0xx0xxgxgxgxxg0xxxxggggxxgggggxxggxxgggxxggxxx0xxxgxxxxxggxxxxxxggxxxxxxgxxgxxxxgxxggxgxgxgggg0xx0xxx0xxg0xx0x0xxggg0y0yy0xx0xxg0x0gxggggxx0xxgggxxggxxggxxgxxxxxxxxxggxxgxx0xxxx0xxgg0x0gxxx0xxgx0xx0xxxxxxxgxxggxxggxxgxxxxxg0xxx0xx0xx0x0gxxgxx0x0xxg0x0xxggxx0xx0xxx0x0gxgxxxgxxggxxg0xxgxxgxxgggxxgggxxggxxgx0xx0xxxxgxxgxxxggxxx0xxxx0x0xxg0x0gxxxxxxgxxxx0xxxyyhyhhyyihzzxxxxgggxxggggx0xxxgxxxx0xxx0xx0xx0xxx0xxxxxxxx0zzzix0xxxxgxxgxgg0xxxxxxggxxggggggxxggggxxggggxgGggxxgxxxgxxgxxxxggxxggxxxxggggggxxggggggggxxgxxggxxggxxxxxggxxgxgxxxxggxxggxxxxxxgxxggxxgxxgggxxgggggxxgggxxxgxgxxx0xxxxxxxxxgggxgxxgxgxgxxx0xxxgxxxxxgxxgg0xxgxxgx0xxxgxgggxx0xxggxxxxxxxgxxgxxggggxxxgxxxgxxxxgggxxgxxxxxxggxxgg0xxx0x0xx0xxgGgggGggggGg0xxgggxGgGGgggxxgggxxggg0xxgggxxgggxxgggxxggg0xxgggGgGgggxxgggxxggg0xxgggGGGgggxxgggxxggg0xxgggxxgggxxgggxxggg0xxgggxxgggGGxxgggxxggg0xxGgggxxgggxxggg0xxgggxxgggxxggggxxggg0xxgggxxgggxxgggxxgggg0xxgggxxgggGGgggggGGgggxxggg0xxgggxxgggGGGgggxxggg0xxGGgggxxgggxxgggxxgggGGg0xxgggxxgggGGggGGgggxxggg0xxgggxxgggxxggggggxxggg0xxgggGGgGGgggxxgggxxggg0xxggggxxgggxxgggxxggg0xxgggxxgggxxgggxxggg0xxGgggxxgggxxgggxxggg0xxgggxxgggxxgggxxgggxxgggxxggggxxgggxxggg0xxgggxxgggxxgggxGGggg0xyggAAaaGGggAAaaGGggAAaaGGggAAaa#310xxgggggxxgtr0xxgg0tr0xxggggGGGxxggggGGG0xxggGggGGGgGgGgggGGggGgg0xxgggggg0xxgggggg0xxgggxxgggGGGGgggxxggg0xxggggggggggxxgggxxgggxxggg0xxgggxxgggxxgggGGgGxggg0xxgggxxgggGgGgggxxggg0xxgggxxggggxxgggxxggg0xxggggxxgggxxgggxxggg0xxgggxxgggGGxgggxxggg0xxgggxxgggxxgggxxggg0xxgggggxxgggxxgggxxgggGGggg0xxgggxxgggxxgggxxggg0xxgggxxgggxxgggxxgggg0xxgggggxxgggxxgggxxggg0xxgggxxgggxxgggxxggg0xxgggxxgggxxgggxxgggxxggggxGGgggxxgggxxggg0xxgggxxgggGGgGGgggxxggg0xxgggxxgggxxgggxxgggggg0xxgggGGGGgggxxgggxxgggxxgggxxgggxxgggxxggggggg0xxgggxxgggxxgggGgggggGxggg0xxgggggggggggxxgggxxgggxxggg0xxgggxxggggggxxgggxxggg0xxgggGGGgggxxgggxxggg0xxgggxxgggxxgggxxgggGgGggg0xxgggxxgggGGGgggxxgggxxgggGGGgggxxgggxxggg0xxggggGGgggxxgggxxggg0xxgggxxgggxxgggGGgGGgggxygggxxgggxxgggggxxggg0xxdgdgdgdgdgdgxxgggGGggGxgggxxggg0xxgggxxgggxxgggxxggg0xxgggxxgggxxgggxxggg0xxgggxxgggxxgggGGGxgggtuacaA#77gggggggggggggg0xxgggxxgggxGGgggxxggg0xxgggxxgggxxgggxxggg0xxgggxxgggxxgggxxggg0xxgggxxgggxxgggxxggg0xxgggxxgggGGgGGgggxxggg0xxgggGGgGGgggxxgggxxggg0xxgggxxgggxxgggxxggg0xxgggGGGgggxxgggxxggg0xxgggxxgggxxgggxGGggg0xxgggxxgggxxgggxxggg0xxgggxxgggxxgggGGggGGggg0xxgggxxgggxxggggxxggg0xxgggGGxgggxxgggxxggg0xxgggxxgggxxgggxxgggGG0xxgGgggxxgggxxgggxxgggGGGGgggxxgggxxgggxxGggg0xxgggxxgggxxgggxxgggxxgggxxgggxxgggGGGgggxxggg0xxGgggxxgggxxggg0xxgggxGGgggxxgggxxggg0xxgggxxgggxxgggxxggg0xxgggzGAIfACrA0xxgigggAAaaaaaGGgihhgAAaaaaaHGgighhAAaaaaaGGgigggAAaaaaa#310xxggggggggggxxgggggg0xxggggGGG0xxGggGggGGGGgxxgggGGGgGgg0xxgGgGgGGg0xxggggxGgggGggg0xxgggxGgGGgggxxgggxxggg0xxggggGGgggxxgggxxgggxxgggGGgggGGgggxxgggxxggg0xxgggGGGGgggxxgggxxgggxxgggxxgggxxgggxxggg0xxgggGgGgggxxgggxxggg0xxgggxxgggxxggggxxgggxxgggxxgggxxgggxxgggxxgggxxgggxxgggxxgggxxgggxxgggxxgggxxggg0xxgggxxgggxxgggxxggg0xxgggxxgggxxgggxxgggxxgggxxgggggxxgggxxgggxxgggGGGgggxxgggxxgggxxGGgggxxgggxxgggxxgggG0xxgggxxgggxxgggGGxggg0xxGgggxxgggxxgggxxggg0xxgggxxgggxxgggxxggg0xxgggxxgggxxgggxxggg0xxgggGGGgggxxgggxxggg0xxgggxxgggxxgggxxgggxxgggxxgggxxgggxxggg0xxgggxxgggGGxgggxxgggxxgggxxgggxxgggxxggg0xxgggggxxgggxxgggxxggg0xxgggGAGggggxxgggxxgggGGgGGgggxxgggxxgggxxgggggxxgggxxgggxxhggGGGggg0xxgggxxgggxxgggGGGGggg0xxgggxxgggHGGGgggxxggg0xxgggxxgggGGGgggxxggg0xxgggGGGGgggxxgggxxgggGGGgggggxxgggxxggg0xxgggxxgggxxgggxxggg0xxgggxxgggxxgggxxgggGGggggGGgggxxgggxxgggxxgggxxgggxxgggxxgggGGGgggxxgggxxgggxxggg0xxgggxxgggxxgggxxggg0xxGGgggxxgggxxgggxxgggxxgggxxgggxxggg0tra0xxDgdGDGDgdGD0yvyvGDgGD0yv0yw#77gggxx0xxxxxgxg0xxGgggxxgggxxggg0xxgggxxgggxxgggGGGGggg0xxgggxxggggxxgggxxggg0xxGgggxxgggxxggg0xxggggxxgggxxgggxxggg0xxgggxxgggggxxgggxxggg0xxgggxxgggxxgggxxggg0xxgggGGGgggxxgggxxggg0xxgggxxgggxxgggGGggGGggg0xxgggxxgggxxgggxxggg0xxGgggxxgggxxggg0xxgggxxgggxxggggxxgggxxggg0xxgggggxxghgxxgggxxgggG0xxgggxxgggxxgggxxgggxxggg0xxgggxxgggxxgggxxgggxxgggxxgggxxgggxxggg#310xxg0xxgGggggggDgdgggg0xxgggggg0xxgggGGggGGgggxxgggxxggg0xxgggxxgggGGxxgggxxgggxxgggggxxgggxxgggxxgggGxxgggxxgggxxgggGGgGxggg0xxgggxxgggxxggggxxggg0xxgggxxgggxxgggxxggg0xxgggxxgggxxgggxxggg0xxgggxxgggxxgggxxggg0xxgggGGGgggxxgggxxgggxxgggxxgggxxgggxxggg0xxgggGGGgggxxgggxxggg0xxgggxxgggxxgggGGxggg0xxgggxxgggxxgggxxggggggggg0xxGgggxxgggxxgggxxgggxxgggxxgggxxgggg0xxgggxxgggGGgGGgggxxggg0xxgggxxgggxxgggGGGggg0xxgggxxgggggxxgggxxggg0xxGGgggxxgggxxgggxxggggxxgggxxgggxxgggxxggggxxgggxxgggxxggg0xxgggxxgggGxxgggxxggg0xxgggggxxgggxxgggxxggg0xxggggggggxxggggggggxxggggggggxxggggggggxxgggxxgggxxgggxxggg0xxgggxxgggGGxxgggxxgggxxgggggxxgggxxgggxxggg0xxgggxxgggxxggggggxxggg0xxgggGGggGGgggxxgggxxgggxxgggGGxgggxxgggxxggh0xxGgggxxgggxxggg0xxgggxxggggggxxgggxxggg0xxggggggggxxggggggggxxggggggggxxggggggggGG0xxgggxxgggxxggggxxggg0xxgggxxgggxxgggxxggg0xxggggggggxxggggggggxxggggggggxxggggggggxxgggxxgggxxggggxxgggxxggg0xxgggxxgggxxggggggxxggggg0xxgggxxgggGGGgggxxgggxxgggxGGgggxxgggxxggg0xxgggxxgggxxgggxxgggxxggg0xygggxxgggxxgggxxggg0xxgggxxgggxxgggxxggg0xxgggxxgggxxgggxxggg0tra0yw#77ggggGgggGG0xxgggggGggGG0xxgggxxgggxxgggxxggggggg0xxgggggxxgggxxgggxxgggG0xxgggxxgggxxgggxxgggxxgggggxxgggxxgggxxggg0xxgggxxgggxxgggxxggg0xxgggGGGgggxxgggxxgggxGGgggxxgggxxgggxxgggxxgggGGgggGGgggxxgggxxhgg0xxGgggxxgggxxggg0xxgggxxgggxxgggxxgggxxgggxxgggxxggggxxggg0xxgggxxgggxxgggGgggggGxggg0xxgggxxgggxxgggxxggggggggxxgggxxgggxxggggggxxggg0xxgggGxxgggxxgggxxggg0xxggggxxgggxxgggxxggg0xxgggxxgggxxgggGGggggGGgggxxxxgggGGggGxgggxxggg0x0xx0x0g0xxxx0x0x0x0xxxxxxxxxxgxxggxxgxxxgxggxxgggxxxx0xxxgx0xxxgx0xxxxggxx0x0x0x0xxx0x0gx0xxxxx0xxxG0xxx0xxggxGgxxgxxgggxx0xxggggxxxxgxxxgggggggxxxxxgggxxggxxxxgxxggggxx0xxgxxx0xxxg0x0xxx0xxxxgxxxggxxxxxxxgxgxxgxggggxxggggxxggGGxxgGGggggxxggGGxxGggggxx0x0gx0xxgx0xx0xxgxx0xxgxxgxxxggxxxxxgxxxgxxgxx0xxxxgxxgxxggggxxggxxgxxggxxggxxgggxxg0x0xxx0xxggxxxgx0yx0zxx0yxGxgggggxxgxxggxxggxxggxxgxxxg0x0xxxgx0xxggxxgxxxxx0x0xxxxx0xxxxx0xxxx0xxgxx0x0xx0x0xx0xxxxgxxggxxggxxgggxxgggxGGGxggxxgggxxxxg0xxgxxgg0xxggxgxgxxxxgxxggxxxgggg0xxxxxx0xxGxgggxxggggggxxggxxxxgxxx0xxxxgxggxxgxxxxxgggxxggggxxgggxxgxxxxhxxx0xxgxxxgx0xxxxxggxxxggxxggxxxxgggxxgxxxxgxxggx0xxxxg0x0xxxx0xxxxgggggxxgggggxxggggxxgggxxggggGxgggxxggggxxggggxxGGgGGgGGgGGgxxggGGgggGxgggGxgggxxggGGggGGgggGxgggGxgggGGGGgggGGggggxxggggGxggggGxgggGGgggGGgggGxgggGxgggGxggxGggggGGgggGxgggGGgggGgGggGGgggGxgggGxgggGGggGGggggggGGgggxxgggxxgggxxgGGggGGggGyggGGgxxggGGgGGgGGgGGgxxgGGgGGgGGgxxggGxggGxggGxggxxgggGGggxxggxxggxxgGGgGGgxxgxxgxxGGgGGgGGgGgGgggGGggGGggxxggGGxgGGgGGgHGgxxGggGGggGGggGGgxxggGGggGGggGGggxxGGggGGggGGggGGgxxgGGgggGGgggGGgggGGgxxggGGggGGggGGggGGxxgGGgggGGgggGGgggGGggxxgggggGGgggGxgggGxgggxxggGGggGGggGGggxxGggGGggGGggGGgxxggxGggxyggxxggxxggggxxggxGggxxggxGGGGggxxggxGggGGggx0yxxgxgggggggggxgxgxxxxggggxxgggggxxgggggxxggggxxggggxxxgxx0xxg0xxxxxxgxxgxxgxgg0xxxx0xxgxxggggxxggggxxggxxxgxxHgg0xxxx0xxxgggxxgggxxgggGGGGggggggxxgggggxxgggggxxgggggxxgxxxxGGxxggGgggGxggGGgxGgxxgxxGgggGxgxx0yxxyxyxgggyxggggxxg0xxxygxyxx0yxxgxygxgxggxxggg0xx0xxxxxxxggxxgggggxxggg0xxxxggxxggxxxxxxxGGxxgggxxxgxxggxxgggxxgggxxxggxxxgxgxxggggxxxxxxgxxxxgxxgxxxgxxgggggggxxggxxggxxgggxxgxxxxgggxxxxggxxgxxgxgxgxxggxgxxgxxxx0x0xxxxxggggxxggggxxgggxxgggggggxxggxxxx0xxxxx0xxg0x0xx0xxxxgxxgxxxxxxxxgxxxxx0xx0xxxxxxgggxxggggxxxxxxxgxxxgggxxggxgggxgx0xxxx0xxgggg0xxxxggxxxxxxgggxxggxxgxxxxggxgxxxgxx0x0gxx0x0xxx0x0xx0xxxxxgggggxxgggggggxxgggxxggxxggxxggx0xxxggGGGggxxggxxgxxx0x0xxxggxxxggxxgggxxgxxgggxxggggggxxgggxxgxxggxxgggxxxxxxxxggGxxxxgxxgxxggxxgxxggxxggggggxxgggxgxgxxggggxxggggggxxggggxxggxxgxxgggggxxggggggxxgggggggggxxggggxxx0xxxggGgGgxxxxgxxggxggxxgxgxxggggxxggxxggxxggxxggxxxxgxxxggxxxxx0xxxgxgx0xxxggggggxxgggxxgggxxgggxxggxxgggxxggxxxgxxgxgxgxgxxg0xxx0xxxxxgg0yxx#310tuafacaaaaxxggggxxgggggggggxxggggggxxgggggxxgxggxgggxxgxxxxxxxxxxxGxggGGGggxxggxxxxgxxgggggxxgggxxgxxxxxgxxxxgxxxgxxggxxg0xxgxxxgxgxxgggggxGxxxgxxxx0xxxxxxggx0xxgxxgxxgxg0xxxxxgggxxgggxxgggggxxgggggxxggggggggggggxxggxxgggggGGggggxxggggxxggggxxggggGGGggggxxgxxgxgxgxxggggxxg0xxg0xxxxgxx0x0x0x0yyxggggx0xxxxxxxgxxgxxGggxxg0xxgxx0xxxgxxxxgggxxggggggxxggxxgxxggx0yxgxx0x0g0Gxggxxxgxxxgxxggxgxggxxxx0xx0x0x0xxxx0xxxxxxxxxgggxxggggxxgxxxxggxxgxxggggggxxgggxxgxxgxgGxggggggGGxxGGggxGxxygggggggxg0xxxx0xx0x0G0gxxxxxxgxgxxggxxxxggxxxgxGGggggggxxggGGggGxxGGgggggggxxgggggggxxgggggggxxgggggggGGGGggggggggggggggxxggggggggggggggxxggggggggggggggxGGggggggggggggggxxgggggggxxggggggggggggxxggggggggggggxxggggggggggggxxggg0xxxgxxxxxg0xxx0x0g0gx0xxxgggx0xxx0xx0xxxx0x0g0gxggxgGGx0x0gxxx0xxggxxhg0xxxxxxxxxg0xxxxxxggggxxggggggxxggxggxxx0xxxxgggxx0xxGxxgxxxggggggGHgGGgggggxxgGyyhhhhxxggggggggxxhgggggggxxggggggggGGggGGggggxxggGGgggggghgxyggggggggxxggggggggxxgggggggGGGgggggghxxghhggggxxxxxxgxxGxxxgxxg0xxgg0xxxx0xxgxGGggggg0x0xxgxxgxxxxxxgggxxg0xxxxxxggxxx0x0gxxx0xxx0xx0xxgxgxgxxg0yxxxggggxxgggggxxggxxgggxxggxxx0xxxgxxxxxggxxxxxxggxxxxxxgxxgxxxxgxxggxgxgxgggg0xx0xxx0xxg0xx0x0xxggg0x0xx0xx0xxg0x0gxggggxx0xxgggxxggxxggxxgxxxxxxxxxggxxgxx0xxxx0xxgg0x0gxxx0xxgx0xx0xxxxxxxgxxggxxggxxgxxxxxg0xxx0xx0xx0x0gxxgxx0x0xxg0x0xxggxx0xx0xxx0x0gxgxxxgxxggxxg0xxgxxgxxgggxxgggxxggxxgx0xx0xxxxgxxgxxxggxxx0xxxx0x0xxg0x0gxxxxxxgxxxx0xxxxxgxggxxhhyyxxxxgggxxggggx0xxxgxxxx0xxx0xx0xx0xxx0xxxxxxxx0yyyhx0xxxxgxxgxgg0xxxxxxggxxggggggxxggggxxggggxgGggxxgxxxgxxgxxxxggxxggxxxxggggggxxggggggggxxgxxggxxggxxxxxggxxgxgxxxxggxxggxxxxxxgxxggxxgxxgggxxgggggxxgggxxxgxgxxx0xxxxxxxxxgggxgxxgxgxgxxx0xxxgxxxxxgxxgg0xxgxxgx0xxxgxgggxx0xxggxxxxxxxgxxgxxggggxxxgxxxgxxxxgggxxgxxxxxxggxxgg0xxx0x0xx0xxgGgggGggggGg0xxgggxGgGGgggxxgggxxggg0xxgggxxgggxxgggxxggg0xxgggGgGgggxxgggxxggg0xxgggGGGgggxxgggxxgggxxGgggxxgggxxgggxxgggGG0xxgggxxgggxxgggxxggg0xxgggxxgggGGxxgggxxggg0xxGgggxxgggxxggg0xxgggxxgggxxggggxxggg0xxggggggxxgggxxgggxxggg0xxgggxxgggxxgggxxgggxxgggGGGgggxxgggxxgggxxgggxxgggxxgggxxgggg0xxgggxxgggGGgggggGGgggxxggg0xxgggxxgggGGGgggxxggg0xxGGgggxxgggxxgggxxgggGGg0xxgggxxgggGGggGGgggxxggg0xxgggxxgggxxgggxxGGggg0xxgggxxgggGGxxgggxxggg0xxggggggggxxggggggggxxggggggggggggggxxgggggggg0xxggggxxgggxxgggxxgggGGggGGgggxxgggxxgggxxggggg0xxgggGGgGGgggxxgggxxggg0xxgggGGGgggxxgggxxggg0xxggggxxgggxxgggxxggg0xxgggxxgggxxgggxxgggxxgggxxgggggxxgggxxggg0xxgggxxgggxxgggGGggggGGggg0xxgggxxgggxxggggxxggg0xxGgggxxgggxxgggxxggg0xxgggxxgggxxgggxxgggxxgggxxggggxxgggxxggg0xxgggxxgggxxgggxGGgggxxgggxuACddCAaaawrAEdcaA0xw#77gggGGGggggggggg0xxggggxxgggxxgggxxggg0xxgggxxgggxxgggxxggg0xxgggGGgggggggGGgggGGgggggggGGgggGGggGGgggGGgg0xxgggGGggggggGGgggxxgggxxggg0xxGGgggxxgggxxgggxxgggGGg0xxgggxxgggGGGGgggxxgggxxgggxxgggGGxxgggxxggg0xxgggxxgggxxgggggggxxggg0xxgggggxxgggxxgggxxgggxxggg0xxgggxxgggxxggggxxggg0xxgggxxgggxxgggxxggg0xxgggxxgggxxgggxxggg0xxgggxxgggxxgggxxggg#77gggGGGgGgg0xxgggxxgggGGxxgggxxggg0xxGgggxxgggxxgggxxgggGG0xxgggxxgggxxgggGgGggg0xxgggxxgggxxgggxxggg0xxgggxxgggxxgggxxggg0xxgggxxgggxxgggGGgGGggg0xxgggxxgggxxgggxxggg0xxGgggxxgggxxggg0xxgggxxgggxxgggGGGGggg0xxgggxxgggxxgggxxggggggxxgggxxgggxxgggxxggg0xxgggxxgggGgGgggxxgggxxgggxxggggxxgggxxgggxxgggxxgggGGgggGGgggxxggg0xxgggggxxgggxxgggxxggg0xxGGgggxxgggxxggg0xxgggGGGgggxxgggxxgggxxgggxxgggxxgggGgGgggxxgggxxgggGGxgggxxggg0xxgggxxgggxxgggxxggg#870yxxxgGGgggxxggxxGGxxGGxyggxxGGGGxxx0xxxxgxxxxgxg0xx0xxxggxx0xx0xx0xxg0xGxgxxxGhyG0xxxxxxxx0xxxxxxxx0xxx0xxggxxgxxgxxgxGxgxxxGGGGxxxggxGGGGGxGGxGGGxxxxxxGGGgGxgxxgxgxgx0xxxxgxxxGxggggxxgxgxggxxxxggxGxgggxGxxGxgxxyyzzyzzhzzzzzizzzizziiiizziiiizziiiizzizzizzzzizzziizzzIzizzzzzIIz0zzzziizzzzIiziiizzizziz0zzzizizziiizzzzzgxxxxxgxxgxxgg0xxggggxxggGGggGGgyyyyyyyyhhhyh0yyyyhhyyhyyyHHy0yyHHyhyyhhhyyhhhyyhhhyyhhhyyyHyy0yyhyyyhhyy0xxxxggxxxxxxxxxgxxxxxxgxxxxgyyyyyyyyyyyyyhhhyyHHhhHHyyhhyyhhhhyyhHyyhhhhyyhhhyhyyyyyhyyhy0yyyyyyyhyyhHyhyyhHHyyhyyhHyyyhyHHyyHy0yyyyyyhhyyhhhyyhhyyyyhhyyhhhyyhhHyhHHh0yyhyyyyhyyhyyHyyhhHyyhhyyyyhhHHyyyyyyyhhyyHyHhyyyhyHyy0yyyyyy0yyyyhhy0y0yyyHhH0yyyyyyyhhhhyyyyhhyyhhy0yyy0y0y0yyy0yy0yyyyh0yyyyyyhyyyhyyhyyyyhyyhhyyhh0yyh0yyyyhhyyh0y0yyhyy0yyyy0yyy0y0yy0xxgxxxggxggg0xx0xxg0xx0x0xxxx0xx0xx0x0xx0xxxxxxgggxxggxxgxxgxxxgxxxxxgx0x0G0G0gxx0xxxxx0xxgxxxggg0x0xx0x0xxg0x0xxxxxxxgggxxgggggxxggxxggxxggggxxxxgxxgggggxxggxxgxxgxxgggxxxgxgxxxxxxgggxxgxxgxgxgxg0x0g0x0xxgxxxxxx0xxxgggxxxggxxggggxxx0xxxggxGGxgxggx0x0xxgggxgxxgGGxxxxxggxxggxg0xxgxgxxggx0xxxxxxgggxxgggxxggxxxgxggggxxggggxxg0xxxxxxggxxgxxxggxggxxxg0xxxx0xxxggxgxxxgggggxxgxxxx0xxgxxggxxxxxxgggxxgxxxxgxxgxxggxxxxxxxgxxxgg0xxggxxgggg0xxgGggggggGGg0xxgggxxgggxxgggxxggg0xxgggxxgggxxggggxxggg0xxgggxxgggxxgggGGxxggg0xxGgggxxgggxxggg#31ca0xx0xxGGGGGGGGGGggggggggGGGG0xxgggggggGGGGGGGGGGGGGggggggGGgg0xxgggxxgggxxgggxxggggggg0xxgggggxxgggxxgggxxgggG0xxgggxxgggxxgggxxgggxxgggggxxgggxxgggxxggg0xxgggxxgggxxgggxxggg0xxgggGGGgggxxgggxxgggxGGgggxxgggxxgggxxgggxxgggGGgggGGgggxxgggxxggg0xxGgggxxgggxxggg0xxgggxxgggxxgggxxgggxxgggxxgggxxggggxxggg0xxgggxxgggxxgggGgggggGxgggxxgggxxgggxxggggGgggxxggg0xxgggxxgggxxgggxxggggggggxxgggxxgggxxggggggxxggg0xxgggxxgggGGgggggGGgggxxggg0xxgggxxgggxxggggxxggg0xxgggGxxgggxxgggxxggg0xxggggxxgggxxgggxxggg0xxgggxxgggGGGGgggxxggg0xxggggxxgggxxgggxxggg0xxgggxxgggxxgggGGgGGggg0xxGgggggxxgggxxggg0xxgggxxgggxxgggxxgggxxgggggxxgggxxgggxxgggxxggg0xxgggxxgggxxgggGGggggGGgggxxxxgggGGggGxgggxxggg0xtA0xx0x0g0xxxx0x0x0x0xxxxxxxxxxgxxggxxgxxxgxggxxgggxxxx0xxxgx0xxxgx0xxxxggxx0x0x0x0xxx0x0gx0xxxxx0xxxG0xxx0xxggxGgxxgxxgggxx0xxggggxxxxgxxxgggggggxxxxxgggxxggxxxxgxxggggxx0xxgxxx0xxxg0x0xxx0xxxxgxxxggxxxxxxxgxgxxgxggggxxggggxxggGGxxgGGggggxxggGGxxGggggxx0x0gx0xxgx0xx0xxgxx0xxgxxgxxxggxxxxxgxxxgxxgxx0xxxxgxxgxxggggxxggxxgxxggxxggxxgggxxg0x0xxx0xxggxxxgx0xx0xxx0xxGxgggggxxgxxggxxggxxggxxgxxxg0x0xxxgx0xxggxxgxxxxx0x0xxxxx0xxxxx0xxxx0xxgxx0x0xx0x0xx0xxxxgxxggxxggxxgggxxgggxGGGxggxxgggxxxxg0xxgxxgg0xxggxgxgxxxxgxxggxxxgggg0xxxxxx0xxGxgggxxggggggxxggxxxxgxxx0xxxxgxggxxgxxxxxgggxxggggxxgggxxgxxxxgxxx0xxgxxxgx0xxxxxggxxxggxxggxxxxgggxxgxxxxgxxggx0xxxxg0x0xxxx0xxxxgggggxxgggggxxggggxxgggxxggggGxggggxxggggxxggggxxGGgGGgGGgGGgxxggGGgggGxgggGxgggxxggGGggGGgggGxgggGxgggGGGGgggGGggggxxggggGxggggGxgggGGgggGGgggGxgggGxgggGxggxGggggGGgggGxgggGGgggGgGggGGgggGxgggGxgggGGggGGggggggGGgggxxgggxxgggxxgGGggGGggGxggGGgxxggGGgGGgGGgGGgxxgGGgGGgGGgxxggGxggGxggGxggxxgggGGggxxggxxggxxgGGgGGgxxgxxgxxGGgGGgGGgGgGgggGGggGGggxxggGGxgGGgGGgGGgxxGggGGggGGggGGgxxggGGggGGggGGggxxGGggGGggGGggGGgxxgGGgggGGgggGGgggGGgxxggGGggGGggGGggGGxxgGGgggGGgggGGgggGGggxxgggggGGgggGxgggGxgggxxggGGggGGggGGggxxGggGGggGGggGGgxxggxGggxxggxxggxxggggxxggxGggxxggxGGGGggxxggxGggGGggx0xxxgxgggggggggxgxgxxxxggggxxgggggxxgggggxxggggxxggggxxxgxx0xxg0xxxxxxgxxgxxgxgg0xxxx0xxgxxggggxxggggxxggxxxgxxGgg0xxxx0xxxgggxxgggxxgggGGGGggggggxxgggggxxgggggxxgggggxxgxxxxGGxxggGgggGxggGGgxGgxxgxxGgggGxgxx0xxxxxxxgggxxggggxxg0xxxxgxxxx0xxxgxxgxgxggxxggg0xx0xxxxxxxggxxgggggxxggg0xxxxggxxggxxxxxxxGGxxgggxxxgxxggxxgggxxgggxxxggxxxgxgxxggggxxxxxxgxxxxgxxggxxxgxxgggggggxxggxxggxxgggxxgxxxxgggxxxxggxxgxxgxgxgxxggxgxxgxxxx0x0xxxxxggggxxggggxxgggxxgggggggxxghxxxx0xxxxx0xxg0x0xx0xxxxgxxgxxxxxxxxgxxxxx0xx0xxxxxxgggxxggggxxxxxxxgxxxgggxxggxgggxgx0xxxx0xxgggg0xxxxggxxxxxxgggxxggxxgxxxxggxgxxxgxx0x0gxx0x0xxx0x0xx0xxxxxgggggxxgggggggxxgggxxggxxggxxggx0xxxggGGGggxxggxxgxxx0x0xxxggxxxggxxgggxxgxxgggxxggggggxxgggxxgxxggxxgggxxxxxxxxggGxxxxgxxgxxggxxgxxggxxggggggxxgggxgxgxxggggxxggggggxxggggxxggxxgxxgggggxxggggggxxgggggggggxxggggxxx0xxxggGgGgxxxxgxxggxggxxgxgxxggggxxggxxggxxggxxggxxxxgxxxggxxxxx0xxxgxgx0xxxggggggxxgggxxgggxxgggxxggxxgggxxggxxxgxxgxgxgxgxxg0xxx0xxxxxgg0xxx#310xxxggg0xxxxxgx0xxxgxxxg0xxx0xxgggggGG0xxGGGGGGGGGGGGGGGggggggg0xxgggxxgggxGGgggxxggg0xxgggxxgggxxgggxxggg0xxgggxxgggxxgggxxggg0xxgggxxgggxxgggGgGggg0xxgggxxgggxxgggxxggg0xxgggxxgggGGgGGgggxxggg0xxgggGGgGGgggxxgggxxggg0xxgggxxgggGGgGGgggxxggg0xxgggxxgggxxgggGGGgggxxgggxxgggxxgggxxggg0xxgggGGGgggxxgggxxggg0xxgggGGgggggggGGgggGGgggggggGGgggGGggGGgggGGgg0xxgggxxgggxxgggxGGggg0xxgggxxgggxxggggxxggg0xxgggxxgggxxgggxxggg0xxgggxxgggGGxxgggxxggg0xxgggxxgggxxgggGGggGGggg0xxgggxxgggxxgggggxxggg0xxgggxxgggxxggggxxgggxxgggxxgggGGGgggxxggg0xxGgggxxgggxxggg0xxgggxxgggGgGgggxxggg0xxgggGGxgggxxgggxxggg0xxgggxxgggxxgggxxgggGG0xxgGgggxxgggxxgggxxgggGGGGgggxxgggxxgggxxGggg0xxgggxxgggxxgggxxgggxxgggxxgggxxgggGGGgggxxggg0xxGgggxxgggxxggg0xxgggxGGgggxxgggxxggg0xxgggxxgggxxgggxxggg0xxgggxvAFAdGHDaaaGCrA#77gg0xxgggggGgGggggggGG0xxgggGGgg0xxgggxxgggGGGGgggxxggg0xxgggGGgggGGgggxxgggxxggg0xxgggxxgggxxGgggxxggg0xxgggxxgggGgGgggxxggg0xxgggxxgggxxgggxxggg0xxGGgggxxgggxxgggxxgggGxxgggxxgggxxgggxxggg0xxgggxxgggxxgggxxGggg0xxgggxxgggxxgggxxgggggggggxxgggxxgggxxGGgggxxggg0xxgggxxgggxxgggxxgggxxgggGGGgggxxgggxxgggxxggggggxxgggxxgggxxggg0xxggggxxgggxxgggxxggg0xxgggxxgggggggggxxgggxxggggxxgggxxgggxxgggGGxggg0xxgggGGGgggxxgggxxggg0xxgggxxgggxxgggxxggg0xxgggxxgggggggxxgggxxgggxxgggggggggggxxgggxxgggxxggg0xxgggGGGgggxxgggxxggg0xxgggxxgggxxgggxxgggxxGgggxxgggxxggg0xxgggGGGGgggxxgggxxggg0xxgggxxgggxxgggxxgggGgGggg0xxgggxxgggxxgggxxggg#77ggggxxgg0xxGggGggGGGGg0xxggggGGgggxxgggxxggg0xxgggGGGGgggxxgggxxggg0xxgggxxgggggxxgggxxggg0xxgggxxgggxxgggxxggg0xxgggxxgggGGxgggxxggg0xxgGGgggxxgggxxgggxxgggggxxgggxxgggxxgggGGGggg0xxgggxxgggxxgggGGGGggg0xxgggxxgggGGGgggxxggg0xxGgggggxxgggxxggg0xxggggGGgggxxgggxxgggxxGgggxxgggxxgggxxggg0xxGGgggxxgggxxggg#77ggggGGG0xxggGGggGgg0xxgggggg0xxggggggggggxxgggxxgggxxggg0xxggggxxgggxxgggxxggg0xxgggxxgggxxgggxxggg0xxgggggxxgggxxgggxxgggGGggg0xxgggxxgggxxgggxxggg0xxgggxxgggxxgggxxgggg0xxgggxxgggxxgggxxggg0xxgggxxgggGGgGGgggxxggg0xxgggxxgggxxgggxxggggggg0xxgggxxggggggxxgggxxggg0xxgggGGGgggxxgggxxggg0xxgggGGGgggxxgggxxggg0xxggggGGgggxxgggxxggg0xxgggxxgggxxgggGGgGGggg0xxgggxxhggxxgggGGGxggg0xxggggggAAaaaaa0xxgggggAAaaaaa#310xx0xxg0xx0x0xxxx0xx0xx0x0xx0xxxxxxgggxxggxxgxxgxxxgxxxxxgx0x0G0G0gxx0xxxxx0xxgxxxggg0x0xx0x0xxg0x0xxxxxxxgggxxgggggxxggxxggxxggggxxxxgxxgggggxxggxxgxxgxxgggxxxgxgxxxxxxgggxxgxxgxgxgxg0x0g0x0xxgxxxxxx0xxxgggxxxggxxggggxxx0xxxggxGGxgxggx0x0xxgggxgxxgGGxxxxxggxxggxg0xxgxgxxggx0xxxxxxgggxxgggxxggxxxgxggggxxggggxxg0xxxxxxggxxgxxxggxggxxxg0xxxx0xxxggxgxxxgggggxxgxxxx0xxgxxggxxxxxxgggxxgxxxxgxxgxxggxxxxxxxgxxxgg0xxggxxgggg0xxgggGgggggGggggggGGGgGgg0xxggggGGgggxxgggxxggg0xxgggxxgggxxGgggxxgggxxgggxxgggGGxxgggxxggg0xxgggxxgggxxgggxxggg0xxgggxxgggxxgggxxggg0xxGgggxxgggxxgggxxgggGGxxgggxxgggxxgggxxgggxxgggxxgggxxgggxxggg0xxgggxxgggxxgggGgGgggxxgggxxgggxxgggxxggg0xxggggxxgggxxgggxxgggxxgggxxgggxxgggxxgggxxgggxxgggxxgggxxgggxxgggxxgggggxxgggxxggg0xxgggxxgggxxgggxxggg0xxgggxxgggxxgggxxGggg0xxgggGGgggGGgggxxgggxxggg0xxgggxxgggxxgggGGgGGggg0xxgggxxgggxxgggxxgggxxgggxxgggxxgggxxggg0xxgggxxgggxxgggxxggg0xxgggGGGgggxxgggxxggg0xxGgggxxgggxxgggxxggggxxgggxxgggxxgggxxgggxxgggxxgggGGGGggg0xxgggxxgggxxgggxxggggggxxgggxxgggxxgggxxggg0xxgggxxgggGgGgggxxgggxxgggxxggggxxgggxxgggxxgggxxgggGGgggGGgggxxggg0xxgggggxxgggxxgggxxggg0xxGGgggxxgggxxggg0xxgggxxgggGGGgggxxgggxxgggGGGgggxxgggxxgggxxgggxxgggxxgggGgGgggxxgggxxgggGGxgggxxgggxxgggGGGgggxxgggxxggg0xxgggxxgggxxgggxxggg0xxggggggxxgggxxgggxxggg0xxgggGGghGGgggxxgggxxggg0xxGgggxxgggxxgggxxggg0xxgggxxgggxxgggxxgggxxgggxxgggxxgggxGGggg0tra#77gggGGggGGgggxxgggxxggg0xxgggxxgggxxgggGGgGxggg0xxgggxxgggxxggggxxggg0xxgggxxgggxxgggxxggg0xxgggGGGgghxxgggxxggg0xxgggxxgggxxgggGGxggg0xxgggxxgggxxgggxxgggg0xxgggxxgggGGgGGgggxxggg0xxgggxxgggxxgggGGGggg0xxGGgggxxgggxxggg0xxggggxxgggxxgggxxggg0xxgggxxgggGxxgggxxggg0xxgggggxxgggxxgggxxggg0xxgggxxgggxxgggxxgggxxgggxxgggxxgggxxggg0xxgggxxgggGGxxgggxxgggxxgggggxxgggxxgggxxggg0xxgggGGggGGgggxxgggxxggg0xxGgggxxgggxxggg0xxgggxxgggxxgggxxgggG0xxgggxxgggxxggggxxggg0xxgggxxgggxxgggxxggg0xxgggxxgggxxgggxxggg0xxgggxxgggGGGgggxxggg0xxgggxxgggxxgggxxggg#77G0xxgxxxggGGgggxxggxxggGGggxxggGGggxxgggGxxggGGgGGggxxggxxgxgxxxgggxxgggGxxgGxxgxxxgxg0xxxgggxxxxx0xxx0xxxGxxxgxgxgxxgxxggxxxxgxxggxxxxxgxxxxxgxxxxxxxxxggxxxxx0xxxgGxggxxggxxgxxggxxxGxgxxxGGGGGGxxGGGGGGGGGGGGGGGxxGGGGGGxxGGGGGGxxGGGGGGxxgxxgxxgxxgxx0xxgxxggxxxxgxxggggggxxggxxggxgxgggggxxgxxggggxxgxxgggxGxgggxxxxggxxgggxxgyyyyyyhhyyyyyyhyyyhhhhyyhhhhhhyyhhhhhhhyyhhhhhyyhhyyhyyhhhyyhhhhhyyyyhhyyhyHyhhyyyyhyyHHy0yyyyyyhhhyyhyyyHyhyyhhhyyhyyhyy0yyyhyhhyyhhhyyyyyGxgxxgxxgxxggxxggxxxgggggxxggggggggGGgxxGgxxxxxxxggxxxgxxxgxxgggxxggxxxGGx0xxGGxxxxxggggxxxxggggggxxgggxxggggxxxxgxxgx0xxgxxgxggxxx0xxxxggxxxxxxxxxxxgxxxxggxxxxgxxgxxxxggxxxxxxxxxxxxxgggxxggGGggggGGgxxggggggxxggggggxxggggxxgggggxxgggxxxxxxxxgxxxgxx0xxxgxxxxgxxgGxgxxgGxgxxgxxgGGGxxGgxxgGxxGx0xxxxxxggxxgggxxggggxxxxgggxxgggxxggGxggGGgg0xxgxxxxxxxxgxxxxxxggxxxxggxxgxgxxggggGGgGxgGxgGxgxxgggGGxxGxGgxxxgxxgxxxgggxgxxx0xxgxxggxxx0xx0xxxxGgxxgg0xxxxxggxxgggggxxggxxgggxxggx0xxx0xxgg0xxx0x0gx0xxxxghgxxxxxgggxxxgggxxgxyxxggxxggxxggxgxgxgxxxggxxgg0xxggxxxx0xxxx0xxgx0x0xxtr0xxgggggxxg0xxgxxxggxggg0xxxxxgxg0xxGgggxxgggxxggg0xxgggxxgggxxgggGGGGggg0xxgggggxxgggxxgggxxggg0xxgggxxggggxxgggxxggg0xxgggxxgggxxgggxxgggxxGgggxxgggxxggg0xxgggGGGgggxxgggxxggg0xxgggxxgggxxgggGGgGGggg0xxgggGGgGGgggxxgggxxgggxxggggxxgggxxgggxxggg0xxgggxxgggxxgggxxggg0xxgggxxgggggxxgggxxggg0xxgggxxgggxxgggxxgggtr0xxgggGGGgggxxgggxxggg0xxgggxxgggGGgGGgggxxggg0xxgggxxgggxxgggxxgggggggxxgggxxgggxxgggGGggGGgggxxgggxxgggxxgggxxgggggggg0xxgggxxgggxxgggGGggGGggg0xxggggggggxxggggggggxxggggggggxxgggggggg0xxgggGGgGGgggxxgggxxggg0xxGgggxxgggxxggg0xxgggxxgggxxggggxxgggxxgggxxgggxxgggxxgggxxgggxxggg0xxgggggxxgggxxgggxxgggG0xxgggxxgggxxgggxxgggxxgggxxgggxxgggxxgggxxggg0xxgggxxgggxxgggxxgggxxgggxxgggxxgggxxgggGGGgggxxgggxxgggxxggg0zta#77gggggg0xxggggxGgggGggg0xxgggxxgggxxgggGGGggg0xxgggxxgggxxgggxxggg0xxgggGGGgggxxgggxxggg0xxgggGGGgggxxgggyxgggxxggggxxgggxxgggxxggg0xxgggxxgggxxgggxxgggxxgggxxgggxxgggxxggg0xxgggxxgggxxggggGgggxxggg0xxggggxxgggxxgggxxgggxxgggxxgggxygggxxggggxxgggxxgggxxgggGGgggGGgggxxgggxxgggGGGGgggxxgggxxgggxxggggggxxgggxxgggxxggggxxgggxxgggxxgggGGggxxgggxxgggxxgggxxggg0xxgggxxgggggxxgggxxggg0xxggggggxxgggxxgggxxgggxxgggGGggxxgggxxgggxxgggGGgggGGgggxxgggxxgggxxgggGGggxxgggxxgggxxgggggxxggg#310xxgggGGGggggggggg0xxggGggGGggg0xxgggGGgg0xxggggggggGggGggGGGGg0xxgGgggGggggGg0xxgggGGggGGgggxxgggxxggg0xxgGgggxxgggxxgggxxgggGGgg0xxgggxxgggxxgggxxggg0xxgggGGGgggxxgggxxggg0xxggggxxgggxxgggxxggg0xxgggxxgggxxggggxxggg0xxggggxxgggxxgggxxgggGGGgggxxgggxxggg0txgggg0xxgggxxgggxxgggGGxgggxxgggxxgggxxgggxxggg0xxgggGGgggggggGGgggGGgggggggGGgggGGggGGgggGGgg0xxgggxxgggxxgggxGGgggxxgggxxgggxxggggxxggg0xxgggxxgggGGggGGgggxxgggxxgggGGggggggGGgggxxhggxxggg0xxgggxxgggxxgggGGGggg0xxGGgggxxgggxxgggxxgggGGg0xxgggxxgggGGGGgggxxgggxxgggxxgggGGxxgggxxgggxxgggGxxgggxxgggxxggg0xxgggxxgggxxgggxxgggxxgggxxgggxxgggxxgggxxgggxxggggggxxgggxxggg0xxgggxxgggxxgggggggxxggg0xxgggxxgggxxgggxxGgggxxgggxxgggxxgggxxggg0xxgggggxxgggxxgggxxgggxxggg0xxgggGGgggxxgggxxgggxxgggGGgg0xxGgggxxgggxxggg0xxgggxxgggxxggggxxgggxxgggxxgggGGGgggxxggg0xxgggxxgggxxgggxxggg0xxgggxxgggxxgggxxgggxxgggxxgggxxgghxxggg0xxgggxxgggxxgggxxgggxxgggxxgggxxgggxxggg0uucA'
.(lp1
(F223.483947
F16.041322000000001
tp2
a(F8.9922869999999993
F2074274.618701
tp3
a(F241.07701599999999
F241.05861100000001
tp4
a(F9.0023859999999996
F2080027.530391
tp5
a(F5455.688725
F1833.0553910000001
tp6
a(F17.91216
F18.155593
tp7
a(F9.0023429999999998
F12827.790053999999
tp8
a(F244.101955
F244.03816
tp9
a(F8.9920390000000001
F1494797.067887
tp10
a(F21.923988000000001
F34.260567000000002
tp11
a(F8.9920729999999995
F1582013.9465369999
tp12
a(F241.141975
F241.10243700000001
tp13
a(F9.0021000000000004
F16476.720076000001
tp14
a(F241.02802500000001
F241.02372
tp15
a(F241.06255999999999
F241.06296
tp16
a(F16.041889000000001
F3617.965815
tp17
a(F8.9918700000000005
F4.196231
tp18
a(F9.0020030000000002
F1545597.687779
tp19
a(F16.522469000000001
F24.227819
tp20
a(F15.533110000000001
F16.032440999999999
tp21
a(F241.17384999999999
F241.11421899999999
tp22
a(F9.0009619999999995
F1589673.087698
tp23
a(F11.555564
F11.558725000000001
tp24
a(F223.613733
F16.042249999999999
tp25
a(F241.15008499999999
F241.09741700000001
tp26
a(F9.0018429999999992
F2099414.2954159998
tp27
a.cnumpy.core.multiarray
scalar
p1
(cnumpy
dtype
p2
(S'f8'
I0
I1
tRp3
(I3
S'<'
NNNI-1
I-1
I0
tbS'\xaa|\xcc\n\xa3\xefl?'
tRp4
.F0
.