ccopy_reg
_reconstructor
p1
(cpykov
Vector
p2
c__builtin__
dict
p3
(dp4
S'A'
F0.0010604453870625664
sS'v'
F0.0010604453870625664
sS'y'
F0.0031813361611876989
sS'x'
F0.0021208907741251328
sS'u'
F0.0010604453870625664
sS'a'
F0.010604453870625663
sS'd'
F0.010604453870625663
sS'g'
F0.05090137857900319
sS'f'
F0.0010604453870625664
sS'i'
F0.79639448568398719
sS'h'
F0.046659597030752925
sS'1'
F0.0010604453870625664
sS'0'
F0.012725344644750796
sS'5'
F0.0010604453870625664
sS'w'
F0.0010604453870625664
sS'6'
F0.0031813361611876994
sS'9'
F0.031813361611876992
sS'8'
F0.0010604453870625664
sS'z'
F0.023329798515376459
stRp5
.ccopy_reg
_reconstructor
p1
(cpykov
Chain
p2
c__builtin__
dict
p3
(dp4
(S'9'
S'i'
tp5
F0.46666666666666662
s(S'z'
S'y'
tp6
F0.13636363636363635
s(S'h'
S'i'
tp7
F0.84090909090909072
s(S'i'
S'a'
tp8
F0.010652463382157126
s(S'g'
S'a'
tp9
F0.041666666666666664
s(S'0'
S'u'
tp10
F0.083333333333333343
s(S'i'
S'h'
tp11
F0.053262316910785631
s(S'9'
S'9'
tp12
F0.43333333333333329
s(S'i'
S'0'
tp13
F0.0079893475366178447
s(S'a'
S'i'
tp14
F0.20000000000000001
s(S'i'
S'd'
tp15
F0.015978695073235689
s(S'9'
S'8'
tp16
F0.033333333333333333
s(S'h'
S'a'
tp17
F0.022727272727272724
s(S'z'
S'z'
tp18
F0.40909090909090912
s(S'h'
S'g'
tp19
F0.068181818181818177
s(S'a'
S'0'
tp20
F0.29999999999999999
s(S'a'
S'g'
tp21
F0.29999999999999999
s(S'1'
S'h'
tp22
F1
s(S'0'
S'v'
tp23
F0.083333333333333343
s(S'z'
S'i'
tp24
F0.31818181818181818
s(S'i'
S'g'
tp25
F0.041278295605858863
s(S'u'
S'z'
tp26
F1
s(S'v'
S'x'
tp27
F1
s(S'd'
S'h'
tp28
F0.10000000000000001
s(S'g'
S'h'
tp29
F0.062499999999999993
s(S'y'
S'i'
tp30
F1
s(S'6'
S'1'
tp31
F0.33333333333333331
s(S'g'
S'g'
tp32
F0.18749999999999997
s(S'9'
S'0'
tp33
F0.033333333333333333
s(S'd'
S'0'
tp34
F0.10000000000000001
s(S'd'
S'z'
tp35
F0.10000000000000001
s(S'f'
S'f'
tp36
F1
s(S'z'
S'g'
tp37
F0.13636363636363635
s(S'A'
S'0'
tp38
F1
s(S'9'
S'g'
tp39
F0.033333333333333333
s(S'i'
S'f'
tp40
F0.0013315579227696408
s(S'x'
S'i'
tp41
F1
s(S'0'
S'z'
tp42
F0.83333333333333337
s(S'6'
S'9'
tp43
F0.66666666666666663
s(S'd'
S'i'
tp44
F0.59999999999999998
s(S'g'
S'i'
tp45
F0.70833333333333326
s(S'w'
S'x'
tp46
F1
s(S'a'
S'A'
tp47
F0.20000000000000001
s(S'd'
S'd'
tp48
F0.10000000000000001
s(S'5'
S'9'
tp49
F1
s(S'i'
S'w'
tp50
F0.0013315579227696408
s(S'h'
S'h'
tp51
F0.068181818181818177
s(S'i'
S'i'
tp52
F0.86684420772303605
s(S'i'
S'z'
tp53
F0.0013315579227696408
s(S'8'
S'h'
tp54
F1
stRp55
(dp56
S'_guess'
p57
g1
(cpykov
Vector
p58
g3
(dp59
S'A'
F0.0010604453870625664
sS'v'
F0.0010604453870625664
sS'y'
F0.0031813361611876989
sS'x'
F0.0021208907741251328
sS'u'
F0.0010604453870625664
sS'a'
F0.010604453870625663
sS'd'
F0.010604453870625663
sS'g'
F0.05090137857900319
sS'f'
F0.0010604453870625664
sS'i'
F0.79639448568398719
sS'h'
F0.046659597030752925
sS'1'
F0.0010604453870625664
sS'0'
F0.012725344644750796
sS'5'
F0.0010604453870625664
sS'w'
F0.0010604453870625664
sS'6'
F0.0031813361611876994
sS'9'
F0.031813361611876992
sS'8'
F0.0010604453870625664
sS'z'
F0.023329798515376459
stRp60
sb.S'99iiiiiiiiaiiiiiiiiiiihiiiiiiiiiiiiiiihiiiid#99iiih#99iiiiih#69iiiiiiiiiiiiag#69iiwxihgaA0zyiidiiiiiiiiiiiiiiiiiiiiiiiiihiiiiidiiiiiiiiiiiiiiiiiiiiihiiiiiiiiiiiiiiiiiiiiiiiiiiiiiiiiiiiiiiaiiiiiihihiiiiiiih#99iiii0zziiiiiiiihihiihiddiiiiiiihiiiiiigag#99iiiiiiiiiiiid#99iiiiiiiiiiiiiiiiiiiiiiiigiiii#99i0zzgiiiiiiiiiiiiiiiiiiihiiiiiiii#98hhiihiiiiiiiiiiiiiiiiiigiigiihiih#59giiidiiigiiiiiiihgiiiiiiiiiiiiiiiiiiihiiiiiihiiiiiiiihiiiiiiiigiiiiiiiiiif#99iiiiiiiia#99iihi0zyiiiiiiiiiiiiiiiiiiiihiiiiiiiiiiiiiiiiiiiiiiiiiiiiizzia0zziiiiiiiiia0uziiiiiiiiiiiiiiiiiiihiiiiiiiiiid0zzgiiiiiiiiiiiiihiiiiiihiiiiiiiiiiiiiiiiiiiiiiiiiiiiiiiiiiidzzghiiiihihiiiiiiiiiiiiihiiiiigiiiiia0zyigiiiihhiiiiiiihaA#99igi#99i0vxiiiiiiiiiiiiiiiiiiiiiiiiiiiiiiiiiihhigiihiiii0zziiiiiiiiiiiiiiiiiiiigiiigiiiiigiiiiiiiiiiiiiigiiiiiiii0zziiidhiihiigiiiiihiiiiiiiiiiihigiigiiiiiighgggggghihigiiihiiigigiigiigiiiiih#99iiiii#990zziiiid#61hiiiidiiiggiiiigiiiiiiiiiiiigggiiiiigiagiiiiiiiiggiiiigigiiiiiiiiiidiiiigi'
p1
.(lp1
(F8.8427559999999996
F5.0371030000000001
tp2
a(F5.3753159999999998
F5.4021869999999996
tp3
a(F5.0225609999999996
F5.1266369999999997
tp4
a(F5.3437739999999998
F5.8676510000000004
tp5
a(F26.203565000000001
F33.798281000000003
tp6
a(F5.0492819999999998
F5.0051040000000002
tp7
a(F5.3444029999999998
F5.3156569999999999
tp8
a(F7.1791039999999997
F5.5098779999999996
tp9
a(F5.0351109999999997
F5.2974410000000001
tp10
a(F7.2866280000000003
F6.44109
tp11
a(F11.13438
F6.3593469999999996
tp12
a(F6.1604409999999996
F5.5479279999999997
tp13
a(F5.1606139999999998
F5.1274059999999997
tp14
a(F7.2464769999999996
F7.4347450000000004
tp15
a(F5.1398109999999999
F5.013547
tp16
a(F5.0800280000000004
F5.159503
tp17
a(F5.0005839999999999
F5612.1516689999999
tp18
a(F8.8068080000000002
F7.4678699999999996
tp19
a.cnumpy.core.multiarray
scalar
p1
(cnumpy
dtype
p2
(S'f8'
I0
I1
tRp3
(I3
S'<'
NNNI-1
I-1
I0
tbS'\xcb& \xc1\xe4\xbdc?'
tRp4
.F4.2744308006012887e-59
.