ccopy_reg
_reconstructor
p1
(cpykov
Vector
p2
c__builtin__
dict
p3
(dp4
S'A'
F0.15094339622641509
sS'C'
F0.14968553459119496
sS'D'
F0.0037735849056603774
sS'G'
F0.037735849056603772
sS'F'
F0.0012578616352201257
sS'I'
F0.010062893081761008
sS'H'
F0.0088050314465408803
sS'8'
F0.0012578616352201257
sS'a'
F0.070440251572327042
sS'c'
F0.081761006289308172
sS'g'
F0.010062893081761006
sS'f'
F0.0012578616352201257
sS'i'
F0.0050314465408805029
sS'h'
F0.067924528301886791
sS'7'
F0.0012578616352201257
sS'0'
F0.071698113207547168
sS'r'
F0.14968553459119499
sS'u'
F0.0025157232704402514
sS't'
F0.13584905660377358
sS'w'
F0.0025157232704402514
sS'y'
F0.010062893081761006
sS'x'
F0.017610062893081761
sS'z'
F0.0088050314465408803
stRp5
.ccopy_reg
_reconstructor
p1
(cpykov
Chain
p2
c__builtin__
dict
p3
(dp4
(S'r'
S'H'
tp5
F0.008403361344537813
s(S'A'
S't'
tp6
F0.35000000000000003
s(S'G'
S'G'
tp7
F0.63333333333333341
s(S'z'
S'y'
tp8
F0.14285714285714285
s(S'H'
S'h'
tp9
F0.4285714285714286
s(S'0'
S'x'
tp10
F0.087719298245614044
s(S'x'
S't'
tp11
F0.071428571428571425
s(S'I'
S'D'
tp12
F0.12499999999999997
s(S'a'
S'C'
tp13
F0.8035714285714286
s(S'y'
S'I'
tp14
F0.125
s(S'D'
S'D'
tp15
F0.33333333333333331
s(S'x'
S'g'
tp16
F0.071428571428571425
s(S'D'
S'y'
tp17
F0.33333333333333331
s(S'z'
S'G'
tp18
F0.14285714285714285
s(S'I'
S'0'
tp19
F0.12499999999999997
s(S'I'
S'G'
tp20
F0.625
s(S'h'
S'y'
tp21
F0.018518518518518517
s(S't'
S'r'
tp22
F1
s(S'y'
S'H'
tp23
F0.375
s(S'g'
S'h'
tp24
F0.375
s(S'r'
S'0'
tp25
F0.33613445378151258
s(S'i'
S'c'
tp26
F0.5
s(S'g'
S'g'
tp27
F0.375
s(S'A'
S'0'
tp28
F0.11666666666666667
s(S'z'
S'i'
tp29
F0.2857142857142857
s(S'G'
S'z'
tp30
F0.033333333333333333
s(S'a'
S't'
tp31
F0.14285714285714285
s(S'h'
S'g'
tp32
F0.055555555555555559
s(S'x'
S'I'
tp33
F0.14285714285714285
s(S'G'
S'D'
tp34
F0.033333333333333333
s(S'c'
S'r'
tp35
F0.16923076923076924
s(S'G'
S'g'
tp36
F0.033333333333333333
s(S'0'
S't'
tp37
F0.85964912280701755
s(S'f'
S'r'
tp38
F1
s(S'r'
S'C'
tp39
F0.40336134453781508
s(S'7'
S'f'
tp40
F1
s(S'A'
S'H'
tp41
F0.0083333333333333332
s(S'A'
S'C'
tp42
F0.21666666666666667
s(S'u'
S'G'
tp43
F0.5
s(S'H'
S'I'
tp44
F0.2857142857142857
s(S'A'
S'y'
tp45
F0.016666666666666666
s(S'x'
S'G'
tp46
F0.14285714285714285
s(S'x'
S'x'
tp47
F0.4285714285714286
s(S'I'
S'H'
tp48
F0.12499999999999997
s(S'G'
S'x'
tp49
F0.066666666666666666
s(S'G'
S'w'
tp50
F0.033333333333333333
s(S'u'
S'w'
tp51
F0.5
s(S'H'
S'A'
tp52
F0.14285714285714285
s(S'A'
S'a'
tp53
F0.0083333333333333332
s(S'C'
S'A'
tp54
F0.99159663865546221
s(S'x'
S'y'
tp55
F0.071428571428571425
s(S'a'
S'0'
tp56
F0.035714285714285712
s(S'c'
S'a'
tp57
F0.83076923076923082
s(S'w'
S'H'
tp58
F0.5
s(S'w'
S'G'
tp59
F0.5
s(S'a'
S'h'
tp60
F0.017857142857142856
s(S'x'
S'h'
tp61
F0.071428571428571425
s(S'r'
S't'
tp62
F0.058823529411764698
s(S'H'
S't'
tp63
F0.14285714285714285
s(S'C'
S'a'
tp64
F0.0084033613445378148
s(S'r'
S'c'
tp65
F0.16806722689075629
s(S'g'
S'c'
tp66
F0.25
s(S'D'
S'z'
tp67
F0.33333333333333331
s(S'r'
S'F'
tp68
F0.008403361344537813
s(S'0'
S'z'
tp69
F0.052631578947368425
s(S'A'
S'c'
tp70
F0.28333333333333333
s(S'z'
S'z'
tp71
F0.2857142857142857
s(S'y'
S'h'
tp72
F0.375
s(S'r'
S'y'
tp73
F0.016806722689075626
s(S'F'
S'A'
tp74
F1
s(S'G'
S'I'
tp75
F0.10000000000000001
s(S'G'
S'u'
tp76
F0.066666666666666666
s(S'h'
S'c'
tp77
F0.12962962962962962
s(S'y'
S'G'
tp78
F0.125
s(S'z'
S'x'
tp79
F0.14285714285714285
s(S'h'
S'h'
tp80
F0.79629629629629639
s(S'i'
S'i'
tp81
F0.5
s(S'8'
S'7'
tp82
F1
stRp83
(dp84
S'_guess'
p85
g1
(cpykov
Vector
p86
g3
(dp87
S'A'
F0.15094339622641509
sS'C'
F0.14968553459119496
sS'D'
F0.0037735849056603774
sS'G'
F0.037735849056603772
sS'F'
F0.0012578616352201257
sS'I'
F0.010062893081761008
sS'H'
F0.0088050314465408803
sS'8'
F0.0012578616352201257
sS'a'
F0.070440251572327042
sS'c'
F0.081761006289308172
sS'g'
F0.010062893081761006
sS'f'
F0.0012578616352201257
sS'i'
F0.0050314465408805029
sS'h'
F0.067924528301886791
sS'7'
F0.0012578616352201257
sS'0'
F0.071698113207547168
sS'r'
F0.14968553459119499
sS'u'
F0.0025157232704402514
sS't'
F0.13584905660377358
sS'w'
F0.0025157232704402514
sS'y'
F0.010062893081761006
sS'x'
F0.017610062893081761
sS'z'
F0.0088050314465408803
stRp88
sb.S'87frFAtrtr0trtrtrtrCACACA0trCACA0trCAtr0xxgggcr0tr0trcaCA0trcaCAtrcaCA0tr0trtr0trCAtrcaCAcaCAcaCAtrcaCAcaCAcaCAcaCAcaCAcaCAcaCAcatrcaCAcaCAcaCAcatrcaCAcaCAcaCAcatrcaCAcaCAcaCAcatrcaCAcaCAcaCAcatr0trCACACAtryHhcr0trCACA0zzicrCAtrtr0trcaCACA0tr0tr0zziiicr0trCACAtrCACAyHhhhhhhhhhcrcaCAca0trcaCA0tr0xtrtrCAHtr0tr0tr0trCACA0tryHhhhcr0trcaCA0trcaCAcaCAcaCAcaCACAtrCACACACAtrCACACACA0zyhhhhhhhhhcr0trCACAahyhhhhhhhhhhhhhhcrCAtrcaCAcaCAcatrcaCAcaCAcaCAcaCAcatrcaCA0trCAtrCAtrCAtrCAtrCAtrCAtrCAtrCAtrCAtrCAtrCAtrCAtrCAtrCAtrCAtrCAtrCAtrCAtrCAtrCAtrCAtrCAtrCA0trcaCAcaCAcatr0trHAyhhhhhcr0trCACACAtrCAtrcaCACAtrCAtrCAtrCAtr0trCAtr0xxxxGGGGGuGGGGGGGGGxxGGGGGGDyGghhhhhhhgcr0xxhhghgghhcr0tr0xyIGuwHIGGwGIDDzGzxIHIGGxIGIGI0tr0tr0tr0trCACA0tr0tr0trCAtrCAtr0tr0tr0tr0tr0tr0tr0tr0tr0trCaCACACACACAca0tr0trcaCA0tr'
p1
.(lp1
(F1800.950216
F1800.6783640000001
tp2
a.cnumpy.core.multiarray
scalar
p1
(cnumpy
dtype
p2
(S'f8'
I0
I1
tRp3
(I3
S'<'
NNNI-1
I-1
I0
tbS'7\xd8\xb46\xe0>\x8e?'
tRp4
.F2.2411680781037101e-257
.