ccopy_reg
_reconstructor
p1
(cpykov
Vector
p2
c__builtin__
dict
p3
(dp4
S'A'
F0.10068027210884353
sS'C'
F0.093877551020408151
sS'E'
F0.006802721088435373
sS'D'
F0.019047619047619049
sS'F'
F0.0095238095238095229
sS'I'
F0.014965986394557824
sS'H'
F0.0068027210884353739
sS'a'
F0.12653061224489792
sS'c'
F0.069387755102040816
sS'e'
F0.017687074829931974
sS'd'
F0.050340136054421766
sS'g'
F0.0027210884353741495
sS'f'
F0.024489795918367346
sS'i'
F0.024489795918367346
sS'h'
F0.014965986394557823
sS'7'
F0.0013605442176870747
sS'0'
F0.027210884353741496
sS'r'
F0.089795918367346933
sS'u'
F0.06666666666666668
sS'4'
F0.0013605442176870747
sS'w'
F0.024489795918367346
sS'v'
F0.020408163265306124
sS'y'
F0.036734693877551017
sS'x'
F0.0068027210884353739
sS'z'
F0.043537414965986398
sS't'
F0.099319727891156465
stRp5
.ccopy_reg
_reconstructor
p1
(cpykov
Chain
p2
c__builtin__
dict
p3
(dp4
(S'w'
S'v'
tp5
F0.055555555555555552
s(S'd'
S'A'
tp6
F0.05405405405405405
s(S'i'
S'v'
tp7
F0.1111111111111111
s(S'c'
S'u'
tp8
F0.019607843137254902
s(S'0'
S'x'
tp9
F0.049999999999999996
s(S'H'
S'E'
tp10
F0.39999999999999997
s(S'a'
S'H'
tp11
F0.032258064516129045
s(S'h'
S'D'
tp12
F0.090909090909090912
s(S'z'
S'h'
tp13
F0.031249999999999997
s(S'I'
S'D'
tp14
F0.27272727272727271
s(S'z'
S'a'
tp15
F0.09375
s(S'f'
S'e'
tp16
F0.1111111111111111
s(S'h'
S'a'
tp17
F0.18181818181818182
s(S'A'
S'I'
tp18
F0.013513513513513513
s(S'z'
S'z'
tp19
F0.031249999999999997
s(S't'
S'z'
tp20
F0.054794520547945202
s(S'u'
S't'
tp21
F0.18367346938775506
s(S'c'
S'I'
tp22
F0.019607843137254902
s(S'I'
S'a'
tp23
F0.090909090909090898
s(S'f'
S'F'
tp24
F0.055555555555555552
s(S'D'
S'y'
tp25
F0.21428571428571427
s(S'0'
S'y'
tp26
F0.049999999999999996
s(S'w'
S'f'
tp27
F0.055555555555555552
s(S'x'
S'u'
tp28
F0.39999999999999997
s(S'u'
S'e'
tp29
F0.020408163265306117
s(S'w'
S't'
tp30
F0.055555555555555552
s(S'F'
S'h'
tp31
F0.14285714285714285
s(S'D'
S'E'
tp32
F0.071428571428571411
s(S'u'
S'w'
tp33
F0.081632653061224469
s(S'E'
S'D'
tp34
F0.40000000000000002
s(S'd'
S'z'
tp35
F0.27027027027027029
s(S'I'
S'F'
tp36
F0.1818181818181818
s(S'u'
S'd'
tp37
F0.24489795918367344
s(S'g'
S'f'
tp38
F0.5
s(S'z'
S'c'
tp39
F0.031249999999999997
s(S'd'
S'v'
tp40
F0.027027027027027025
s(S'F'
S'i'
tp41
F0.14285714285714285
s(S'f'
S'c'
tp42
F0.1111111111111111
s(S't'
S'x'
tp43
F0.027397260273972601
s(S'u'
S'v'
tp44
F0.040816326530612235
s(S'z'
S'u'
tp45
F0.4375
s(S'd'
S'd'
tp46
F0.1081081081081081
s(S'x'
S'e'
tp47
F0.19999999999999998
s(S'e'
S'e'
tp48
F0.15384615384615383
s(S'e'
S'0'
tp49
F0.076923076923076913
s(S'w'
S'd'
tp50
F0.055555555555555552
s(S'f'
S'C'
tp51
F0.055555555555555552
s(S'h'
S'd'
tp52
F0.36363636363636365
s(S'i'
S'z'
tp53
F0.055555555555555552
s(S't'
S'y'
tp54
F0.054794520547945202
s(S'a'
S'a'
tp55
F0.22580645161290328
s(S'e'
S'd'
tp56
F0.076923076923076913
s(S'A'
S'y'
tp57
F0.013513513513513513
s(S'h'
S'w'
tp58
F0.090909090909090912
s(S'F'
S'F'
tp59
F0.14285714285714285
s(S'u'
S'f'
tp60
F0.040816326530612235
s(S'z'
S'e'
tp61
F0.062499999999999993
s(S'd'
S't'
tp62
F0.2162162162162162
s(S'h'
S'e'
tp63
F0.090909090909090912
s(S'H'
S'd'
tp64
F0.19999999999999998
s(S'I'
S'z'
tp65
F0.27272727272727271
s(S'e'
S'u'
tp66
F0.15384615384615383
s(S'v'
S'f'
tp67
F0.066666666666666652
s(S'z'
S'w'
tp68
F0.031249999999999997
s(S'D'
S'e'
tp69
F0.071428571428571411
s(S'w'
S'c'
tp70
F0.055555555555555552
s(S'e'
S'g'
tp71
F0.076923076923076913
s(S'C'
S'H'
tp72
F0.014492753623188406
s(S'0'
S't'
tp73
F0.45000000000000001
s(S'w'
S'z'
tp74
F0.055555555555555552
s(S'i'
S'A'
tp75
F0.055555555555555552
s(S'u'
S'a'
tp76
F0.040816326530612235
s(S'c'
S'a'
tp77
F0.84313725490196079
s(S'F'
S'd'
tp78
F0.14285714285714285
s(S'e'
S't'
tp79
F0.076923076923076913
s(S'A'
S'i'
tp80
F0.013513513513513513
s(S'a'
S'c'
tp81
F0.086021505376344107
s(S'7'
S'4'
tp82
F1
s(S'H'
S'F'
tp83
F0.19999999999999998
s(S'e'
S'f'
tp84
F0.076923076923076913
s(S'g'
S'F'
tp85
F0.5
s(S'd'
S'D'
tp86
F0.05405405405405405
s(S'h'
S'u'
tp87
F0.090909090909090912
s(S't'
S'v'
tp88
F0.013698630136986301
s(S'w'
S'w'
tp89
F0.22222222222222221
s(S'A'
S'D'
tp90
F0.013513513513513513
s(S'y'
S'a'
tp91
F0.07407407407407407
s(S'w'
S'a'
tp92
F0.055555555555555552
s(S'd'
S'i'
tp93
F0.027027027027027025
s(S'e'
S'a'
tp94
F0.23076923076923078
s(S'C'
S'F'
tp95
F0.014492753623188406
s(S'v'
S'r'
tp96
F0.20000000000000001
s(S'a'
S'A'
tp97
F0.032258064516129045
s(S'a'
S't'
tp98
F0.075268817204301106
s(S'c'
S'h'
tp99
F0.058823529411764712
s(S'E'
S'i'
tp100
F0.40000000000000002
s(S't'
S'w'
tp101
F0.027397260273972601
s(S'e'
S'I'
tp102
F0.076923076923076913
s(S'r'
S'd'
tp103
F0.045454545454545463
s(S'H'
S'D'
tp104
F0.19999999999999998
s(S'F'
S'u'
tp105
F0.14285714285714285
s(S'a'
S'w'
tp106
F0.010752688172043013
s(S'y'
S'r'
tp107
F0.11111111111111113
s(S'A'
S't'
tp108
F0.4324324324324324
s(S'i'
S'a'
tp109
F0.22222222222222221
s(S'z'
S'r'
tp110
F0.12499999999999999
s(S'd'
S'y'
tp111
F0.1081081081081081
s(S'c'
S'A'
tp112
F0.019607843137254902
s(S'w'
S'h'
tp113
F0.1111111111111111
s(S'D'
S'a'
tp114
F0.071428571428571411
s(S'C'
S'D'
tp115
F0.028985507246376812
s(S'a'
S'C'
tp116
F0.30107526881720442
s(S'y'
S'u'
tp117
F0.59259259259259256
s(S'w'
S'u'
tp118
F0.1111111111111111
s(S't'
S'u'
tp119
F0.054794520547945202
s(S'0'
S'v'
tp120
F0.19999999999999998
s(S'z'
S'i'
tp121
F0.062499999999999993
s(S'4'
S'f'
tp122
F1
s(S'f'
S'i'
tp123
F0.1111111111111111
s(S'd'
S'I'
tp124
F0.027027027027027025
s(S't'
S'r'
tp125
F0.76712328767123295
s(S'I'
S'A'
tp126
F0.090909090909090898
s(S'D'
S'f'
tp127
F0.071428571428571411
s(S'v'
S'u'
tp128
F0.33333333333333331
s(S'r'
S'A'
tp129
F0.015151515151515152
s(S'F'
S't'
tp130
F0.2857142857142857
s(S'0'
S'w'
tp131
F0.049999999999999996
s(S'y'
S'w'
tp132
F0.037037037037037035
s(S'c'
S'd'
tp133
F0.039215686274509803
s(S'u'
S'0'
tp134
F0.020408163265306117
s(S'r'
S'0'
tp135
F0.090909090909090925
s(S'u'
S'y'
tp136
F0.16326530612244894
s(S'i'
S'D'
tp137
F0.055555555555555552
s(S'a'
S'y'
tp138
F0.021505376344086027
s(S'f'
S'y'
tp139
F0.1111111111111111
s(S'C'
S'A'
tp140
F0.94202898550724656
s(S'r'
S'C'
tp141
F0.53030303030303028
s(S'a'
S'D'
tp142
F0.010752688172043013
s(S'y'
S'v'
tp143
F0.037037037037037035
s(S'z'
S'd'
tp144
F0.031249999999999997
s(S'D'
S'v'
tp145
F0.071428571428571411
s(S'A'
S'C'
tp146
F0.067567567567567571
s(S'f'
S'H'
tp147
F0.055555555555555552
s(S'z'
S'v'
tp148
F0.062499999999999993
s(S'd'
S'e'
tp149
F0.05405405405405405
s(S'u'
S'x'
tp150
F0.020408163265306117
s(S'D'
S'd'
tp151
F0.14285714285714282
s(S'a'
S'x'
tp152
F0.010752688172043013
s(S'f'
S'z'
tp153
F0.1111111111111111
s(S'v'
S'w'
tp154
F0.1333333333333333
s(S'E'
S'e'
tp155
F0.20000000000000001
s(S'f'
S'd'
tp156
F0.055555555555555552
s(S'u'
S'i'
tp157
F0.020408163265306117
s(S'r'
S'a'
tp158
F0.12121212121212122
s(S'a'
S'i'
tp159
F0.053763440860215068
s(S'f'
S'I'
tp160
F0.055555555555555552
s(S'A'
S'a'
tp161
F0.027027027027027025
s(S'y'
S'f'
tp162
F0.11111111111111113
s(S'i'
S'd'
tp163
F0.22222222222222221
s(S'i'
S'u'
tp164
F0.055555555555555552
s(S'a'
S'0'
tp165
F0.053763440860215068
s(S'D'
S't'
tp166
F0.21428571428571427
s(S'A'
S'E'
tp167
F0.027027027027027025
s(S'a'
S'h'
tp168
F0.021505376344086027
s(S'v'
S'g'
tp169
F0.066666666666666652
s(S'u'
S'z'
tp170
F0.12244897959183672
s(S'w'
S'y'
tp171
F0.1111111111111111
s(S'h'
S'f'
tp172
F0.090909090909090912
s(S'd'
S'0'
tp173
F0.05405405405405405
s(S'f'
S'f'
tp174
F0.16666666666666669
s(S'r'
S'c'
tp175
F0.19696969696969699
s(S'i'
S'f'
tp176
F0.16666666666666669
s(S'0'
S'z'
tp177
F0.19999999999999998
s(S'A'
S'c'
tp178
F0.35135135135135143
s(S'y'
S'h'
tp179
F0.037037037037037035
s(S'A'
S'0'
tp180
F0.040540540540540543
s(S'v'
S'0'
tp181
F0.1333333333333333
s(S'I'
S't'
tp182
F0.090909090909090898
s(S'v'
S'h'
tp183
F0.066666666666666652
s(S'x'
S'a'
tp184
F0.19999999999999998
s(S'i'
S'i'
tp185
F0.055555555555555552
s(S'w'
S'i'
tp186
F0.055555555555555552
s(S'a'
S'I'
tp187
F0.06451612903225809
s(S'x'
S'w'
tp188
F0.19999999999999998
s(S'D'
S'i'
tp189
F0.071428571428571411
stRp190
(dp191
S'_guess'
p192
g1
(cpykov
Vector
p193
g3
(dp194
S'A'
F0.10068027210884353
sS'C'
F0.093877551020408151
sS'E'
F0.006802721088435373
sS'D'
F0.019047619047619049
sS'F'
F0.0095238095238095229
sS'I'
F0.014965986394557824
sS'H'
F0.0068027210884353739
sS'a'
F0.12653061224489792
sS'c'
F0.069387755102040816
sS'e'
F0.017687074829931974
sS'd'
F0.050340136054421766
sS'g'
F0.0027210884353741495
sS'f'
F0.024489795918367346
sS'i'
F0.024489795918367346
sS'h'
F0.014965986394557823
sS'7'
F0.0013605442176870747
sS'0'
F0.027210884353741496
sS'r'
F0.089795918367346933
sS'u'
F0.06666666666666668
sS'4'
F0.0013605442176870747
sS'w'
F0.024489795918367346
sS'v'
F0.020408163265306124
sS'y'
F0.036734693877551017
sS'x'
F0.0068027210884353739
sS'z'
F0.043537414965986398
sS't'
F0.099319727891156465
stRp195
sb.S'74fdeediADaa0wyffiaaHFuwdDyudtrahdtxegFtraiDtufffzvhDvwvuyudzeutracddzuwwtzaa0tufefIDdzr0zuyudyuwwidtudvutwaacaAEDdzudtvfcaAIDtrcaaaIziiv0vudDyraivwzutyacIaaaDEeeIFifyvgfHEidIFhfFFtrcaCAcaCAcaCAcaCAcaCAcaCAcaCAcatrcaCAcaCAcaCAcatrcaCAcaCAcaCAcatrcaCAcaCAcaCAcatrcaCAcaCAcaCAca0trCAtrCAtr0vuiaa0trA0zrcAaaCDetrCFdywwwcaaHEidziudzudtzachddAyuvrd0yudzudyuayu0xutrachaaxutraiaaIzra0vrcddACAaizeuzracaaCHdyuzhuzv0zuzutxaahaayuxwyhwhddzuzwhdtyfzudzuvrdeaaIzudtyfifyr0zzuyuyutuacaAEDyuwuyuyuzutwfcaCAcaCAcaCAcaIDidtyacheaIAiaaaHDtzaaifCDfeaaItzdzcue0vuyutrCAtr0trcatrcatrcaCAcaCAcaCAcawuyrd0trCAtrCAtrCAtrCAtrCAtrCAtrCAtrCAtrCAtrCAtrCAtrCAtrCAtrCAtrCAtrCAtrCAtrCAtrCAtrCAtrCAtrCAtrCA0trcaCACACACA0trCAtrCAtrCACAcatrCAtrCAtrCAtrCAtr0trCAtr0trc'
.(lp1
(F6.019476
F0.035416000000000003
tp2
a.cnumpy.core.multiarray
scalar
p1
(cnumpy
dtype
p2
(S'f8'
I0
I1
tRp3
(I3
S'<'
NNNI-1
I-1
I0
tbS'89\x14\xbc\xcf\xaf\x8c?'
tRp4
.F0
.