ccopy_reg
_reconstructor
p1
(cpykov
Vector
p2
c__builtin__
dict
p3
(dp4
S'A'
F0.10236220472440945
sS'a'
F0.003937007874015748
sS'c'
F0.011811023622047244
sS'y'
F0.015748031496062992
sS'g'
F0.003937007874015748
sS'i'
F0.452755905511811
sS'h'
F0.05905511811023622
sS'C'
F0.1062992125984252
sS'0'
F0.003937007874015748
sS'r'
F0.10236220472440946
sS'u'
F0.01968503937007874
sS't'
F0.094488188976377951
sS'9'
F0.007874015748031496
sS'z'
F0.015748031496062992
stRp5
.ccopy_reg
_reconstructor
p1
(cpykov
Chain
p2
c__builtin__
dict
p3
(dp4
(S'9'
S'i'
tp5
F0.5
s(S'A'
S't'
tp6
F0.84615384615384615
s(S'i'
S'c'
tp7
F0.0086956521739130436
s(S'h'
S'u'
tp8
F0.066666666666666666
s(S'z'
S'y'
tp9
F0.25
s(S'i'
S'h'
tp10
F0.0086956521739130436
s(S'r'
S'c'
tp11
F0.038461538461538457
s(S'9'
S'9'
tp12
F0.5
s(S'i'
S'g'
tp13
F0.0086956521739130436
s(S'c'
S'r'
tp14
F0.66666666666666663
s(S'y'
S'i'
tp15
F0.25
s(S'y'
S'u'
tp16
F0.5
s(S'y'
S'h'
tp17
F0.25
s(S'A'
S'0'
tp18
F0.038461538461538464
s(S'A'
S'z'
tp19
F0.038461538461538464
s(S'a'
S't'
tp20
F1
s(S'z'
S'z'
tp21
F0.25
s(S'g'
S'u'
tp22
F1
s(S'h'
S'c'
tp23
F0.066666666666666666
s(S'u'
S'y'
tp24
F0.59999999999999998
s(S'h'
S'h'
tp25
F0.8666666666666667
s(S'i'
S'u'
tp26
F0.0086956521739130436
s(S'0'
S't'
tp27
F1
s(S'r'
S'C'
tp28
F0.96153846153846145
s(S'i'
S'i'
tp29
F0.96521739130434792
s(S'z'
S'i'
tp30
F0.5
s(S'c'
S'a'
tp31
F0.33333333333333331
s(S't'
S'r'
tp32
F1
s(S'A'
S'C'
tp33
F0.076923076923076927
s(S'u'
S'z'
tp34
F0.40000000000000002
s(S'C'
S'A'
tp35
F1
stRp36
(dp37
S'_guess'
p38
g1
(cpykov
Vector
p39
g3
(dp40
S'A'
F0.10236220472440945
sS'a'
F0.003937007874015748
sS'c'
F0.011811023622047244
sS'y'
F0.015748031496062992
sS'g'
F0.003937007874015748
sS'i'
F0.452755905511811
sS'h'
F0.05905511811023622
sS'C'
F0.1062992125984252
sS'0'
F0.003937007874015748
sS'r'
F0.10236220472440946
sS'u'
F0.01968503937007874
sS't'
F0.094488188976377951
sS'9'
F0.007874015748031496
sS'z'
F0.015748031496062992
stRp41
sb.S'99iiiiiiiiiiiiiiiiiiiiiiiiiiiiiuyuyuziiiiiiiiiiiiiiiiiiiiiiiiiiiiiiiiiiiiiiiiiiiguziiiiiiiiiiiiiiiiiiiiiiiiiiiiiiiiiiiiiiiiiicrCAtrCAtrCAtrCAtrCAtrCAtrCAtrCAtrCAtrCAtrCAtrCAtrCAtrCAtrCAtrCAtrCAtrCAtrCAtrCAtrCAtrCAtrCAzzyhuyihhhhhhhhhhhhhhcrcatrCACACA0trCA'
p1
.(lp1
(F1802.064341
F1802.1805790000001
tp2
a.cnumpy.core.multiarray
scalar
p1
(cnumpy
dtype
p2
(S'f8'
I0
I1
tRp3
(I3
S'<'
NNNI-1
I-1
I0
tbS'\x18|}[O\x8d\x88?'
tRp4
.F7.7730025865610074e-29
.