ccopy_reg
_reconstructor
p1
(cpykov
Vector
p2
c__builtin__
dict
p3
(dp4
S'a'
F0.4250010259777568
sS'A'
F0.47010300816678297
sS'c'
F0.00065662576435342884
sS'B'
F0.0011080559773464112
sS'e'
F4.1039110272089302e-05
sS'F'
F4.1039110272089302e-05
sS'C'
F0.00041039110272089307
sS'1'
F4.1039110272089302e-05
sS's'
F8.2078220544178605e-05
sS'r'
F0.10165387614396519
sS'w'
F4.1039110272089302e-05
sS'6'
F4.1039110272089302e-05
sS'b'
F0.00077974309516969673
stRp5
.ccopy_reg
_reconstructor
p1
(cpykov
Chain
p2
c__builtin__
dict
p3
(dp4
(S'a'
S'a'
tp5
F0.6208960988798764
s(S'r'
S'r'
tp6
F0.84457004440855876
s(S'B'
S'A'
tp7
F0.77777777777777768
s(S'a'
S's'
tp8
F9.6562379297025877e-05
s(S'A'
S'F'
tp9
F8.729812309035356e-05
s(S'c'
S'A'
tp10
F0.1875
s(S'r'
S'w'
tp11
F0.00040371417036737993
s(S'A'
S'e'
tp12
F8.729812309035356e-05
s(S'r'
S'a'
tp13
F0.049656842955187727
s(S'A'
S'B'
tp14
F0.0014840680925360104
s(S'a'
S'C'
tp15
F0.00028968713789107769
s(S'r'
S's'
tp16
F0.00040371417036737993
s(S'A'
S'a'
tp17
F0.32893932780445218
s(S'b'
S'A'
tp18
F0.4210526315789474
s(S'a'
S'r'
tp19
F0.025202780996523757
s(S'w'
S'a'
tp20
F1
s(S'c'
S'a'
tp21
F0.8125
s(S'1'
S'A'
tp22
F1
s(S'r'
S'A'
tp23
F0.10496568429551878
s(S'a'
S'B'
tp24
F0.00096562379297025877
s(S'a'
S'c'
tp25
F0.0008690614136732329
s(S's'
S'a'
tp26
F0.5
s(S'A'
S'A'
tp27
F0.65700567437800084
s(S'6'
S'1'
tp28
F1
s(S'b'
S'a'
tp29
F0.52631578947368418
s(S'A'
S'r'
tp30
F0.010737669140113487
s(S'C'
S'a'
tp31
F0.39999999999999997
s(S's'
S'r'
tp32
F0.5
s(S'a'
S'b'
tp33
F0.0012553109308613365
s(S'A'
S'c'
tp34
F0.00061108686163247495
s(S'e'
S'a'
tp35
F1
s(S'a'
S'A'
tp36
F0.35042487446890691
s(S'F'
S'A'
tp37
F1
s(S'b'
S'b'
tp38
F0.052631578947368425
s(S'B'
S'a'
tp39
F0.22222222222222224
s(S'C'
S'A'
tp40
F0.59999999999999998
s(S'A'
S'b'
tp41
F0.00043649061545176777
s(S'A'
S'C'
tp42
F0.00061108686163247495
stRp43
(dp44
S'_guess'
p45
g1
(cpykov
Vector
p46
g3
(dp47
S'a'
F0.4250010259777568
sS'A'
F0.47010300816678297
sS'c'
F0.00065662576435342884
sS'B'
F0.0011080559773464112
sS'e'
F4.1039110272089302e-05
sS'F'
F4.1039110272089302e-05
sS'C'
F0.00041039110272089307
sS'1'
F4.1039110272089302e-05
sS's'
F8.2078220544178605e-05
sS'r'
F0.10165387614396519
sS'w'
F4.1039110272089302e-05
sS'6'
F4.1039110272089302e-05
sS'b'
F0.00077974309516969673
stRp48
sb.S'61AAarrrrAAaaaaaaaaarrrrrrrrrrrraarrrrrAaarrrrrrrrrrrrrrrrAarArrrrrrrrrrrrrrrrrrrrrrrrrrrrrrAarrAArrArArrrrAArraaaaaaaaaaaAAArrrrrrrrrrrrrrrrrrrrrrrrrrrrrrrrrrAAAArrAAArrAaaAAAaaAAaarraarraarrAAAAAArrarrrrraAaaaaaaaaaaaaaraaAAAArAAAArrrrrrrrAAAAaAAArrrrrArAAAaAAraaaaaaaaaaaaaaarrrrrrrrrrAaAAArrrAArAAArArArrrrrrrrArrAAaaaaaaaaaaaaaaarrrrrrrrrrrrAArrArrrrrrrrrrrrrrrrrrAAArAaaaaaaaaaaaaaaaaraarrrArrrrrrrrrrrrAaaaaaaaaaaaaaaaarrrrrrrrAAArAArrrrrrArrrrAaaaaaaaaaaaaaaaarAAArrrrrrrrrrrrAaaarrrrrrrrrrrrrrrrAaaaaaaaaaaaaaaarrrrrrrrrAArAAAAAAArrrrrraaaaaaaaaaaaaararrrArAAArrrrrrrrrrrrrrrrrAarrrrrrrrrrrrAAaaArrarrAarAAAAAAAAAAAAAAAaraaaaaaaaaaaaaaaaarAArrrrrrrrrAArrrrrrrrrrrrrrrrrrrrrAAAAAaaAAraaaaaaaaaaaaaaaarAAarraaaAArrrrrrrrrAArrrrrrrrrrrrrAaaaaaaaaarAaaAAAArrrrrrrrrrrrrrrrrrrrrrrArrrrrrrAaaarrrrrrrrrAaaaaaaaaaaaaaaaarAAArrrrrrrrrrrrrrrrAaaarrrrraaaaaAAaaaaaarrrrrrrrrrrrrrrrrrrrrrrrrrrrrrrrrAAAAAAaAAAAArraaaaaaaaaaaaaaarrrrrrrrrrrrrrAAAAAaaAAAArrrrrrrrrrrrrrrrrrrrrrrrrrrrrrrAaarrrrrrrrrrrrrrrrwaaAaaaAAAAaaaaaaAAAAAeaAaaaaaaaaaaaaaaAAaaaAAaaaAAaaaAAaaaaaaaaaaaaaaaaAAaaaAAaaaAAaaaAaaaaaaaaaaaaaaaaaAAaaaAAaaaAAaaaAAaaaaaaaaaaaaaaaaAAaaaAAaaaAAaaaAaaaaaaaaaaaaaaaaaArrArAAAaaaaaaaaaaaaraAAArrrrrrrrrrrAArrrrrrrrrrrrrAAAaaaaaAAaArrrAArrrrrrrrrrrrrrrrrrrrrrrrrrrrrrAAAAAAAArrrrrrrrrrrrrrrrrrrrrrrrrrrrrAraaaaaaaaaaaaaaarAAAArAAAAArrAAAAAAAAAAArrrrrrrrrAArrrrrrrrrrrrrrrrrrrrrrrrrrrrrrrrrrrrrrrrrAAAAAAAaAAAAAAArrrrrrrraaaaaaaaaaaaaaarrrrrrAAaaaarrrrrrrrrrrrrrrrrrrrrrAAraaaaaaaaaaaaaaArrrArrrrrrrrrrrrrrrrrrrrrrrrrrrrrrrrAAAAAAAaAAAAAArrrrrrrrrrrrrrrrrrrrrrrrrrrrrrrrrrrrrrrrrAaaarrrrrrrrrAaaaaaaaaaaaaaaraaAArrrrrrrrrrrrrAArrrrrrrrrrrrrrAaaaarrrrrrrrrrrrrrrrrrrrrrrrrrrAaaaaaaaaaaaaaarrrrrrrrrrrrrrrrrrrrrAAaArAaaAAAAAAAaArrAAAaaarrarrrrrrrrrrrrrrrrrrrrrrrrrrrrrrrrrrrrrAAAAAAAAAAAAAAAAAaAAAAAAAAAAAAArrrrrrrrrrrrrrrrrrrrrrrrrrrrrrrrrrrrrAaarrrrrrrrrrrrrrrrrrrrrrrrrrrrrraaaaaaaaaaaaaarrrrrrrrrrrrrrrrrrrrAAaAarrrrrrrrrAAAAArrAAAAAAArrAAArAAaAAAAAAAAAAaAAAAArrrrrrrrrrrrrrrrrrrrrrrrrrrrrrrrrrrrrrrrrrrrrrrrrraAaaaaaaaaaarrrrrrrAAAAAaaAAAAAAArrrrrrrrrrrrrrrrrrrrrrrrrrrrrrrrrrrrrAaarrrrrrrrrrrrrrrrrrrrrrrrrAAAArrrrrrrrAaaaAaaaaaaaarrrrrrrrrrrrrrAAAAaAAAAArrrrrrrrrrrrrrrrrrrrAaaarrrrrrrrrrrrrrrrrrrrrrrrrrrrrrrrrrrrrrrrrrrAAAAAAAAAaaAAAAAAAAArrrrrrrrrrrrrrrrrrrrrrrrrrrrrrrrrrrrrrAAraaaaaaaaaaaaaaaarAAAaaAaAAAAAArrrrrrrrrrrrrrrrrrrrrrrrrrrrrrrrrrAaaarrrrrrrrrrrrrrrrrrrrrrrrrrrrrrrrrrrrrrrraaaaaaaaaaaaaaarrrrrrrrrrAaarrrrrrrrrrrrrrrrrrrrrrrrrrrrrrrrrrrrrrrrrrrrAAAAAAFAAAAAaaAAAAAAAAAAAArrrrrrrrrrrrrrrrrrrrrrrrrrrrrrrrrrrrrrrrrrrrrAAarrrrrrrAAaaaaaaaaaaaaaaarAAAArrrrrrrrrrrrrrrrrrrAaaaarrrrrrrrrrrrrrrrrrrrrraaaaaaaaaaaarrrrrrrrrrrrrrrrrrrrrrrrrrrrrrrrrrrrrrAAaarrrArrrrrrrrrrAaaaAAaaaaaaraAArrAAArrrrrrrrrrrrrrrrrrrrrrrrrrrrrrrrrrraaaaaaaaaaaaaaaarrrrrrrrrrAAAAAAaAAAAAAAArrrrrrrrrrrrrrrrrrrrrrrraaaaaaaaaaarrrrrrrrAArrrrrrrrrrrrrAaaaaaaaaaaaaaaaArrrAArrrrrrrAAaaaaaaaaaaaarrrrrrrrrrrrrrrrrrrrrrrrAraaaaaaaaaaaaaaarAAAAAAAABArrrrrrrrrrrrrrrrrrrAArrrrrrrrrrrrrrrrrrrrrrrrrrAaaaaaarAArrrrrrrrrrrrrrrrrrrrrrrrrAraaaaaaaaaaaaaarAAAAAAAaaaaAAAAAArrrrrrrrrrrrrrrrrrrrAArrrarrAAArrrrrrrrrrrrrrrrrrrrrrrrrrrrAAAAAAAAAAaaAAAAAAraaaaaaaaaaaaaarrrrrrrrrrrrrrrrrrrrrrrrrrAAAAAAAAaAAAAAAAAArrrrrrrrrrrrrrrrrrrrrrrrrrrrrrrrrrAaaaarrrrrrrrrrrrrrrrrrrrrrrrrrrrrrrrrrrrrrrrrrrrrrrrrrrrrrrrrAAAAAAAAAAAAaaaaaaAAAAAAraabaaaaaaArrrrrAArrrrrrrrrrrrrrrrrrrrrrrrrrrrrrrrrrrrrrrrAAAAAAAaAAAAAAAraAaArraaaaaaaArAAAAAAAAAAAAAAAAArrrrrrrrrrrrrrrrrrrrrrrrrrrrrrrrrrrrrraaaaaaaaaaaaarrrrrrrrrAAAaAAAArrrrrrrrrrrrrrrrrrAaaaaaaarrrrrrrrrrrAAAAAAAAaaaAAAAAAAAAAAArrrrrrrrrraaaaaaaaaaAAaarrrrrrrrrrrrrrrrrrrrrrrrrrAAAAAAaaaAaAAaAAAAAArrrrrrrrrrrrrrrrrrrrrrrrrrraaaAaaaaaaarrrrrrrrrrrrrrAAAAAAaAAAAAAAAArrrrrrrAaaaaaaaaaaaaarrrrrrrrrrrrrrrAAAAaaAAAAArrrrrrrrrrrrrrrrrrrrrrrrrrrrAraaaaarrrAaaaaaaaaaaaaaaarAAAAaAAAAAAAArrrrrrraaaaaaaaaaaaaarrrrrrrrrrrrrrAAAAAAaAAAAArrrrrrrAAaaaAaAaaaaAAAAAaAAAAarAaaaAaAAAAaAAAaaaAAAAAAaaAAaaAaaaAAAAAaaAaaaaaaAAaaaaaAAaaaaaAAaAAaaAAaaaAAAAaAAAaaaaaAAaaaAAAAAAAAAAAAAAAAAAAAAaAAAAAAaAAAAAaaaaAAAAAAAAAAAAAAAAAAAAAAAAAaAAAAAAAAAaaAaaaaAAaAAaaaaAaaaaaaaaaaaaAAAaaaaaAAAaaAAAAAaaaaaAAAAAaAAAAAaaAAAAAaaaAAAAAaaaAaaaAAAaaaAAAAAAAAAAAAAAAAAAAAAAAAAAAAaaaaAAAAAaaaAAAAaaaAAAaAAAaaAAaaaaaAAAaaaaAAaaaaaAAAAaaAaAAAAaaaaaaaAAaaaaaAAaaaAaaaaaaaAaaaaaaAAAAAAAaaAAAaaaAAAaaaAAAAAAaAaaaAAaaaaAAAAAAaaaaaaAaAAaaaAAAAAAAAaaaaaaAAaAAaaAAaAAAaAAAaAAAAAAAaaAAaaaAAAAaaAAAAAAaAaAAAaAaAAaaAaAaAaAAAaaaaaAaAAAAAAAAaaaaAAaAAaAAAaaaAAaAaAAAAaAAaAAaAAaAAaAAAAAAaAAAaaAaaaAAAAaaAaaaAAAAAaaaAaaAAAaAAaAAAaAAAaAAAaAAAAAAAaaAAAaaAAaaAAaAAAAaAAAAAAaAAaAAaaaAAaAAAaaAAAAAaaAAAAAAaaAaAAAaAAAaaAaaaAAAaaAAaaAAAaaaaaAAAAaaAAAaaAAAAAAaaAAAaAAaAAAaaAAAAaaaAAAaaAaAAAAaaAAAAAAAAAAaaAAAAAaaAAaAAAaAAAaAAAaaAAaaAAaaAAAAAAAAaaAAAaaAAaAAaaaAAAAAaaaAAAAaaaaAAAAAaaAAAaaaaaaAAaaAAaAAaAAAaaAAaaAaaaAAAaaAaaaAAaaAAAAAAaaAAaAAAAAaaAAaaaaaAAAaaaaAAAAaaaaAAAAAaaAAAAAaaaaaaAAAAAaaAAAaaAaaaAAaAaaaaAAAAaaaaaAaAAaaaaaAAAaaAAaAAAaAAAaaAAAaAAAaaAAAAAaAAAaaAAaAAaAAAaAAaaAAAaaAAAAaaaAAaaaaAaAAaAaaAAAAAaaAAaAAaAAaaAAAAAaaAAAaaAaAAAAaaAAaaAAAAAAAaAaAAAaaAAaaAaaAAaaAAaAAAAAAaaaaAAAaAaAAAAAAAaaAaaAAaaaaaaAAaaAAAAAaaAaaaAAAAaaaaaAAAAaaaaaAaAaaaaaAAaAAAAAaAAAaAAAaAAAAAAAaaAAAAAAAAAaaAAaAAaaAAAAAAaaAAAaAAAaaAAAaAAaaAAAAAaAaAaAAAAaAAAAAaAaAAaAAAaaAAAAaAaaAAaAAAAaAAaaAAAAAAaaAAaaaaAAAAaAaAaAAAaAAAAAAAaAAAaaAAaAAaAaAaAAAaaaAaAAAaaAAaaAaaAAAAAAaaAAAAaAAAAAAAaaaAaAaAAaaAAAaaAAaAaAAAAaaAAAAaaAAaAaAAaaaAAAaaaAAAAAaaAAaAAAAAAaaAAaaaaaAAAaaaaAAAAAaAAAaAAAAaAAaAAaaaaaaaAAAaaAAaaAAAaaAAAAAAaAaAAaAAAAaAAaAaAAaAAAaAAAaaAAAaAaaAAaAAAAaaAAaaAAAAAAaAAAAAAaAAaaAAaAAaaAAAaaAaAAAAaaAaaaAAAAAAAAAAAAAaaAAaaAaaAAaaAAaaAaaAAAaaAAAAaaaAAAaAAaaaAaAAAaAaaaaAAaAAAAAAaAAaaAAAAaAAAAAaaaaAAAAAAAAAaaAAAaAAAaaaAAaaaaAAaAAaaAAAaAAAaaaAAaAaAAaAAAAAAAAAAaaaaAaAaAAAAAAAAaaaaaAaAaaAaaAAAaaAaAAAAaaAAaaaaAAAAaAAAAAAaAAAAaaAAAAAaaAAaAAaaAAaaAaAAAAaaAaaaAaAaaaAaAaaAaAAAaaAAAaaaaAAaaaaaAAAaAAAaaaaaaAAAaaaaAAAAaaAAAAAaAAaaaaAAAAAaaaAaAAaaAaaaAAaAaaaaAAAAAaaaAAAaAaaaaAAaaaaaAAAAAaaAAAAaAaaAaAAAAAaaaAAAAAAAAAaaAaaAAAAaAAAAAAAAAAaaAaAaaaAaAAAAaaAAaaAaaaAaAAaaAaaaAAAAaaaAAaAAaaaAaAaAAAAAaaAAaAAaAAAaAAAAaaaAAaaaaaAAAaaAAAAAaaAAaAAaaaAAaaAAaaaaaaaAAaaaaAAAAaaaAAAAAAaaaaaAAAaaaaaAAaaaaaAaAAaaaaAAAAaAaaAaAAAAAaaaaAAAAAAaaAAAaaAAaAAaaaAAaAAAAAAAaaAAAAAAaAAAaAAaAAaaAAaAAAAAAAaaAAAAaaaAAAAAAAaAaAAAAAaaaaaaAAaAAaaAAaaAaaAAAaAaAAAAAaaAAAAaaaAAAaaAAAaAAAAAAaaaaaAAaaaaAaAAaAAAaaAAAAAAaaaaAAAAaaAAAAAAAAAAaAaaAAAaaaaaAAaaAAAaAAAaaAAAAAAAAAaaaAAaAaaAAAAAAAAaaaAAAAAAAAaAAaAAaAAaAAAaAAAaaAAAaAaaaAAaaaaaaAAaAAAAAaaaAaaAAAaaaAAaaaaAAAAaAaaaaaAAaaaAaaaaAAAAaaaAAAAAAAAaaAaAaAAaAAaAAaaAAAaAAAAAaaAAAAAAAAAaaaaAAAAAAaaAAaAAaaaAAaAAAaaAAAaAAAAAAAAaaaaAAAAAAaAAaaaaaaAAaAAAaaAAAaBAaaAAAAAaaAAAAAAAaAAaaAAaAAAaAAAaaAAAAaAAAAcaaaaAAAaaAAAAAAaaAAaAAaAAAaaAAaaaAAAAAaaaaAAAAaaAaAAAaaAAaAAAAAaAAAAaaaaaaAAaaaaAAAAAAAAAAAAaaAAaAAAaAAaAAAaaAaAaAAaaAAAAAAaaAAAAAaaAAaAAaaAAAaAAaaaAAAaaAAaaAAaaAAAAAAaAAaAAAaaAAAAaaaAAaaAaaAAAAAaaaaaaAAAAaAaaAAAAAAAaAAAAaAAaaAAaAAaAAAAaaAAAAAAAAAaaAaaAAAaaaaAAAAaAaAAAAAAaAAaaAAaAAaaaAAaaaaAAAAAaAaAaAAaaAaaaAAAAAAaaaAAAAAAAAAAAAaaaaaaAAaaaaaaAAAaAaAAAAAaAAAAAAAaaaAAAaaAAAaAAaAAaaAaaAaAAAaaAaaAAAaAAAAAAAAAaAAAaAaAAAAAAAAaAAAAaaAaaAAaaaaAaAaaaAaAaAAAAAAaAaAAAaaAAAAaaaAAAaaaaArraaAAaaAAAAAAAAAAAAaaAAaAAAaAAaAAAAaAAAAAAAaAAAAAAAAAaAAAAAAAAAAaaAAaAAAaaAAaAAAAAAAAaaaAAaAaaaaAAAAAAAAaAaAAAaaAAaAAaaAAaAAAaaAAAAaAAAAAAAAaaAAAAaaAAaAAaaAAaaAAaAAAAAaaaAAAaAAAaaaAAaaAaAaAAaaaAAAAAAAaaaAAAAAAaaAAaaaaaAAAaAAAAaAaaaaaaAAAAaaaaAAaAaaaaAAAaaAAaAAAAAAAAaAAAAaaaaAAAAaaaAAAaaaaAaAAaaAAaAAAAAAAAaaAAAAAAAaaAAAAAAaaAAaAaAaAAAAaaAAaAAaaaAAaAAAAAAAAAAAaAAAAAAAaaaAAAAAaAAaaaaAAAAAaaAAaAAaAAAaaAaAAAAaAAaaaAAAAaaaAAAAAAAaaAaaAaAAAAaaaaAaAAAaaAAaAAaaAAAAAaAAAaaAAAaAAAAAAAaaAAaaaAaaaAAAaAaaaAAAaAAAaAAAAaaaAAAaaaAAAaAaAAAaaAAAaaaaAaAaaaaAAAAAAAAaaaAAAaaaAAAaAAAAAAaaaAaAAAAAAAAaAaaAAaAaaaAaAAAaAAAaaaAaAAaaaaAaaAAAaAaAaAaaaarAAaAAaaaaaaAAAaaAaAAAaaaaAAAAAaAaaAAAaaaaAraaAaAAAaaaAAAaaaAAAaAaAaAAAAAAaaarraAAAAAAAaaAAraaAAAAaaAAAaAAAaAAAAaAaAAAAAaaAAaAaaAAaAAAAAaaAAAAaaaaaaaAAaaaAaaAAAAAaAAaaaAAaAAAAaaaAAaAAaaaaarAaAAAAaAaAAAAaAaAaAAaAAaaaaaaAAAaaAAAAAaaAAAaaaAAAAAaaAAAaaAAABAAAAAAaaAAaAAaaaAAAAAaaAAAAAaaaAAAAAAAAAAaaaAAAAAAaAAAAAaaAAaAAaaaAAAAaAaaaaaAAAaaaaAAAAAAaaAAAAAAaaarAaAAAaAAaaaaAAAAAAAAAaAaaarAAaaAAAAAAaaaAAAaAAaaAAAAAAaaaaAAaAaaAAAAAAAAaaaAAAAaAaAAAAAaaaAAAaAAAAAAaAAAaaAAAAAaaaaAAAAAAaaAAaAaaaarraAAAAaAaaaAaaAAaaAAAaAaaAAAAaaaaAAAAAAAAAaAaACaaAAAbaAAAaaaAAAAaaaaAaAAAaaAAAAAAAAAaAAAAAAaaaAaAAAaaaAAaAAaAAaAaAAAAaaaAaAAaAaaaAAaaAaaarraAaaAaAaaAAAaAaAAAAaaAAAAaaaAAAAAAAAAaaaAaAAAAAAAaAAAAAaaaAAAaaaaAAAaaAAAAaAaAAAaAAaAaAAaAaAaAAaAaaAaaaAaAAAaaAAAAaaaAAAAaaaAAAAAAAaaAAAAaAAaaaAAAAaAaAAaAAAAAraAaAAaAaaaAaaAAaaAaAAAaaAAaAaaAAAaAaAaaAAaaaAaAAAaaaAAaAaAAAAAaaaAAAAArArAAAAAAAaAAAAAaaAAaAAAAAaAAaaaaaaAAaaaaAAAAaAaaaAAAAAaaaaAAAAaAaaaaAAAAAaaaaaAAAAAaaaAAAAAaaaAAAAaaaAAAAAAAaaaAAAAaaaaAAAaAaAaAAAAaaaaaaAAaaaaaAAAAAaaaAaAAAaaaaaAAAAaaaaAAAAaaaAAaAAAaAAaAAAAAaaaAAAAaAaaaaaAAaaaaAAAaAAAAAaAAAaaaaAAAaAaaaAArAaaaaAAAAAaaaaaAaaAAaaaaaaAAAaaaAAAAAaaaaaaAAAaaaaaAAAaaaaAAAAaAAaaaAAAAAAaAAAAAaaaAAAAAaaaaAAAaaaaAAAaAAAAAaAAaaaaAAaAAAaaaAAAAAaaaaAAaAAaaaaaaaaaAAAaaaaaaAAAaaaaaAAAaaaAaAAAaaaaaaaAAaaaaAAAAaaaAAAAAAAaAAAAAaaaAAAAAAaaaaAAAaaaaAAAaAAAAAaaAAaaaaAAAaAaaaAAAAAaaaaaaaaAAAaaAAaAaaaAaAAaaaaAAAAaaaaaAAAAaaaAAAAAaaaAAAaAaaaaAAAaaaaAAAAAaAaaaAAaaaaAAaaaaAAAAaaaaaaAAAaaaaAAAaaaaAAAAAaAaAAAaaaaAAaaaaaAAAAaaaAAaAAaaaaAAAAaaaAAaAAAAAAAAAaaaaAAAAaaaaAAAaAaaaaaAaaaaaaaAaaaaAAAaaaAAAaaaAAAAaaAAaAaaaaAAAAaAAAAaaaAAAAaaaarAaaaaAAAAaaaAAAAaaaaAAAAAaAAaaaaAAAAAaAaAAAAAaaaAAAAaaaAAAAaAaAaAAaaaAAAAaaaAAAAAAaAAAAAAaaaaAAAaAAaAAaAAaaaaAAAaAaaaAAaaAaaaaAAAAAaAaAAAAAAaaaaAAAaaaaAAAAAaaaaAAaaaaAAAAaaaaaAAaAAaaaaaAAAaaAAaAAaAAAAAAaaaaAAAAaaaaarraaaaaAAAaaAAAAAAaaAaAAAAaaaaAAAAaaAAAAAaaaaaaAAAaaaaAAAAAAaaaAaAAAaaaaaAaAAAaAAAAaaAAAaAAaaaaaaAAaaaaAAAaAaAAAAAAaaaAAAaAaaaaAAAAaAaaaaAAAAaAaAAAAaaaaaaAAAaaaaAAaaAaaaAAAAaaAAAAAaaaaaAAaAaaaAAAAAaaaAAAAAAaaaAAAAAaaaaAAAaaaaAAAaAaaaAAAAAaaaaAAAaAAaaaAAAAAaaaaAAAaaaAAAAAaAAaaaaAaaaAaaAaAAAAaaaaaaAAAaaaaAAAAaaaAAAAaaAAAAAAAaaaaaAAAAaaaAAAAAaaabAAAaaaaaAAAAAAaaaaaAAaaaaAAAaAaaaAAAAAAaaaaAAAaAAaaaaaAAAAAaaaAAAAAaaaaAAAAaaaAaAAAaaaaAAAAaaaaAAAAAaaaAAaAaaaaaAAaaaaAAAAAaaaaaAaAAaaaaaAAAaaAAaAAAacaaaAaAAaaaAAAAaAaaaaAAAAaaaaaAAAaAaaAAAAAaaaaAAAAAaaaaAAAaaaAAaAAaaaAAAAAAAaaAAAAaaaAAAaAAAAaaaAAaaaarAAaaaaAAAAaaaaaAaAaaaaAAAAaaaaAaAAAaaaaaaAAAaaAAAaAAaaarraaarraaaaAAaaAAAAAaaaAAaaaaaAAAAaaaAaAAAAAaAAaAAAaaaAAAaaaaAAAAaAaAAAaaaaAAAaAAaaaAAaAAAAAaAAAAaAAAaaaAAAAAaaaAaAAAaAaaAAAAaaaaAAAAaaAAAAAAaAAAAAaaaAAaAAAaaaaAAAaaaaAAaAAAaaaAAaAAaaaaAAAAaaAaaaAaAAaaaAAAAaaAAAAaAAAAAaaaAAAAAAaAaAAAAaaaaAAAaAaAAAaAAaaaaAAAAAaaaaAAAAaaaaAAAAAaaaaaAaAAaaaaaaaAAAaaaAAaAAaaAaaAAAaaaaAAAAaaaaAAAAaaAAAAAAaAAaaAAAaaaAAAAAaaaAAAAaAAaAAaAAAAAaAaAaaaaAAAaAaaaAAAAAaaaaAAAAAaaaaaaaaaaaaaaAAaaaaaaAAAAAaAAAAAaAaaAAAaaaAAAAaaaaAAAAaaaaAAAAAAaAAAAaAaaaAAAAaAaaAAAaaaaAAAaAAaaaaAAaAAaaaaAAAAAaaaAAAAAaaaaAAAAAaaaaaAAAaaaAAAAAaaaAAAAaaaAAAAaaaaaAAAAaaaaAAAAAaaaAAAAAaAaAAAAaAAAAAaaaaAAAAaaaaaAAAaAAAAAaAAAaaaAAAaAaaaaaAAAaaaAAAAaaaAAaAaaaAaAAAaaaAaAAAaaaAAAaAaAaAAAAaaaaAAAaaaAAAAAaaaarraaaaAAaAaaaAAAaaaarraaaAAAAaaaAAAAaaaAAAAAaaaAAAaaaaAAAAaacAAaAAaaaAAAAaaaAAAAAaaaaaAAAaaaaAAaaaaAAAAaAaAAACAaABAAAAaaaAAAAaaaAAAAAaaaaAAAaaaaAAAAAaaaAAAAAaaaAaAAaaaaAAAAaaaAAaaaaaAaAaAAAAAAaaaAAAaaaAAAaaaarraaaarAaAaAAAAaaAAAAAAAAaaaaAAAaaaAAAAAaAaAAAAaaaAaAAaaaAAaAAaaaAAaAaaaAAAAaAAaAAaAAaaaAAAaaAAaaaAAAaaaaAaAaAaaaAAaAAaaaaaaAAAaaAAaAAAAaAAaaaaaaAAAaaaAAAaAAABAaAAAaAAAAaaaAAaAAAAAAAAaaaAAAAaAaaaAAAaAAaaAAAaaaaAAAaAAAAAAAAaaaAAAAAaAaAAaAAaaaaaaAAAaaaaAAAAAAAaAAaaaaaAAAAAaaaaaAAaaaaaaaaaaAAAAAaaaAAAAAAaaaAAaaAAAAaaaaaaAAaaaaAAAaAaAaAAAAaaaaaAAAAaaaaaaAAaaaaaAaAaAaaaAAAAAAaaaAaAAAaaaaAAAaAAaaAAAAAaaaAAAAAAaAAAAAAaaaAAAAaaaaaAAAaAAAAaAAAAAaAAaaaaAAaAAAAaAAaAAaaaaaAAAAAAaAAAaaaaaaAAAaaaAAAAAaaaaaAAAAaaAAAAAAAaAABaaaAAAAAaAaAAAAAaaaAAAaAaaaaAAAAaaaAAAaAaaaAAAAAAaaaaAAAAAaaaaAAAAaaaaAAAAaAaAAAAaaaAaAAAaaaAAAaAaaaAAAAAAAAAaaaAAaAaaaAaaaaAaaaAAAAaaaAAAAaAAAAAAaaaAAAAaaaAAaAAAaaaAaAAaaaAAAAaaAAAAaaaaAAAaaaAAAAAaaaAAAAaaaAAAAaaaaaaAAaaaaAAAAaAaAaAAaaaaaaAAaaaaAAAaaaAaAAAaaaAaAAaaaAAAAAaaaaAAAaaaaaaAAAaarAAaaAAAAAAAAAAAAaaaarAAaaaAAAAAAAAaAAaaaarraaaaAAaAAaaaAAAaaAAAaaaAAAaaaAaAaaaAaAAaaAAaaaAAAaaaarrAAaAAAAaaaAAAaAaAaAaAAaaaaAAAAaAaAAAAAAaAAaaaaAaAaAAaaaaAAAaaaAaAAAAarAAAAAaAaaaaaaAAaaaaAAaAaaAAaAaaaaaaAAaaAAAAaaaAaaAaaaaaaaaAAaaaarAAaaaaAAAaaaaaAAaaaaAAAAAAaAaAaAAaaaAaAAAaaaAAAAaaaAaAAaaaAAAAAaaaaaAAAaaaAAAAaaAAAAAAaaaaaAAAAAaaaAAAAAaAaaaAAaaaaaaaaabaAAAaAaaaaAAAaaaaAAAAAAaaaAAAAAaaaaAAAAAAaaaaAAAAaaaarAaAaaAAaAaaaAAAAAAAAAAAAaAAAAAaaaAAaAaAaaaAAAAaaaaAAAaAaaaaaaAAaaaaAAAaAaAAAaAAAaAAAAAaaaAAAAAaaaaaAAAAaaaAAAAAAaaaAAAAAaaaaAAAAaaaaaAAAaaAAAAAAAAAAAaAaaaAAaAAAaaaAAAAaaaaAAAAAAaaaaaaAAaaaaaAAAaAaaaAAAAAaaaaAAAAAaaaaaAAAaaaaaaaAAaaaaaaAAAAaAaaaAaAAAaaaaAAAaaaaaAAaaaaAAAAAAaaaaAAAaaaAaaAAaaaarAAaaaaAAAAaaaaAAaaaaAaaaAaaaaAAAaaaaaAAaaaarAaaaaaaaAAAaaaaaAAaaaaAAAAaaaaAAAaaaAaAAaaaaaarAAaaaaaAAAaaaaAAaaaarAAaaAAAAAaaaaaAAaaaaAAAAaaAAaAAAAaAAAaAaAAAAaaaAAaAaaaAaAAaaaAAAAaaaAAaAaaaAAaAAAAaaAAAAaaaAaAAaAaaaAaaaAaaaaaAAaAaAAaAAaAAAaAAAaAAAaarAaaaaAAAaaaAAAAAaaAAAaaaAAAaaaAaAaaaAAAAaAaAAaAaaaAAAAAaaaAAAAaaaAaAAaaaaAAAAaaBAAaAaAAAaAAaaaaaAAAaaaAAaAaaaAaAAaaaAAAAAaaaAAAAaaaAAAAaAAAaaaaAAAAaAaAAAAaaaaAAaaaaAAAAaAaAAAaaaaAAaaaaAaaAaAaaaAaAAAAaaaAAAAaAaaaaAAAAAaaaaAAAaaaAAaAaAaaaaaAAAaaaAAAAaaaAAAAAaaaaAAAAaaaaaAAAAAaAaAAAAaaaAAAAaaaAAAAAaaAAAaAAAaaaaAAAAAaAaAAAAAaaAaAaaaaaAAaaaAAAAaAAAAAAAAaaaAAAAaaaAAAAAaaaaAAaAAaaaAAaAaAaaAAAAaAAaAAAAAaAaaaaAAAAaaaaAAAAaAaAaaAAAaaaAAAAAAaaaaaAAAaaaaAAAAAaAAAaAaaaaAAAAAaAaAAAAAaaaaAAAaaaAAAAAaaaaaAAAAaaaaAAAAAaAaAAAAAaaaAAAAaaaAAAaAaaaaaaaAAaaaaAAAAAaAaAAAAaaaAAAAAaaaAAaaAAaaaaaaAaAAaaaaAAAAAaaAaAAAAaaaAAAaaAaAAAAAaaaaAAAaaaaaaAAaaaaaAAAaaaAAAAaaaaaaAAAaaaaAAaaaaAaaaAaaAAaAaaaAaAAaaAAAaaaaAAAAaaaaAAAaaaaaAAaaaaaAAAaaaaAAAaAaAAAaaaAAAAAaaaarAAaaaAAAAAaaaaAAAaaaaaAAaaaAaAAAaaAAaAaaaAAaAAaaaAaAAaaaaAAAAaaBAAAaaaAAAAaaaaaaAAaaaaaAAAAaaaaAAAaaaaAAAaaaAAAaaaaAaAAaAAAAaaaAAAaaAAaAaaaAAAaAAAAaaaaAaAaaaAaAaaaAAAaaaAAAAaAaAAaaaaAAAaaaaaAAaAaaaaAAAAaaAaAaAaaaaAAAAaaaaaAAaAAAAaAAaaaAAAaaaaAAAAaaaAAAAAaaaaAAAAAaaaaAAAAAaAAAAAaAaAAAaaaAAAaAaAAaaaaArAaaaaAAAaAaaaaAAAAaaaaaaAAaaAaAAaAaaaAAAAAaaaaAAAAAaaaaAAAAaaaaaAAAaaaaaAAAAAaaAAAaaaaaAAaaaaaaAAAaaaAAAaAaaaaaAAAAaaaaaaAAaaaaaAAaAaaaAAAAAaaaaAAaaAaAaaaaaAAAAaAAAAAaaaaAAAAAaAAaAAAaAaaaaaaAAAaaaaAAAAAAAAAaaaaAAAAAaaaaAAAAAAaaaaaaAAAaaaaaAaaaAaAAAAaaaaAAAAAAAaAAAAAaaaaaaAAAAaaaaaAAAAaAAAAAaaaAAAAaAaaaaAAAAAaaaaaaAAAaAaAAAAAaAAAaAaaaAAaaaAAaaaaAaAAAaaaAAAaAAaAaAABAaaaAAAaAaaaAAAAAaaaaAaAAAaaaaaAAAAaaaAAAAAaaaAAaAAaAAaaaAAAAAaaaaaaAAaaaaaAAAAAaaaAAAAaaaAAAaaaarAAaaAAaaaaaaaaaaaAAAAaaaaAAAaaaAAAaaaaAaAAAAAAAAaaarAAaaaAAAAAaaaAaAAaaaaaAAaaaaAAAaAAaAaaaAaAaAaaaaAAAAaaaaAAAAaaaaAaAAaAaACaaaAAAAAAcaaaaAAAAaaaaAAAaaaaaAAaaaaaAAAaAaAAAaAaaaAAABAaaaAaAAaaaaaAAAaaaAAAaaaAAAAaaaaaAAAaaaAAAAaaAAaAAAAaAAAaaAAAaaaAAAaaaarAAaarraaaaAAAaaaAAaAaaaAAAaaaAaAaaAAAaaaAAAaaaAAAAAAaaaaAaAAacaarAAaAAAaaaaAAAaaAAaAAAaaaarAAaaaAAAAAAaAAaaaaAAaaaaaAAAAAAaAaAAAAaaaAAAAaaAAAAAaaaaaAAAaaaarAAaaAAAAAaaaAaaaaAaaaarAAaaaAAAaAAAAAAAAAaaaaaaAAAaaaaaAAAaaaaaAAAaaaaaaAAAAaAAAAAaaaAaAAAaaAAAAAaaaAAAaAaaaaaAAAAAaaaaAAAAaaaaaaAaaAaaAAAAAaaaAAAAAAaaaaAAAaAaaaaAAAAaaaaaaAAAaaAAAaaAaaaAAAAaaaaAAAaAaaaaAAAAAaaaaaaAAAaaAAAAAAaAaAAAAAaaaAAAaAaaaaAAAAaaAaaAAAaaAAaAAAAaaaAAAAAaaaaAAAaAaAaAAAAAaaaaaAaaAaaAAAAAaaaAAAAaaaaAAAAAAaaaaAAAAaaaaaaAAAaAaaaAAAaAaaaaAAAAaaaaAAAAAaaaaAAAAAaaaaaaaAAAaaAAAaAAaaaAAAAAaaaAAAAAaaAAAAaaAAaaaaaaaAAAaaAAAAAaaaAAAAaaaaAAAAAaAAaAaAaaaAAAaaaaAAAAaAaAAAaaaAaAAaAAaAAAaAaaaaAAAAaaaaaAaAaaaaAAAAaaaaAAAAAAaAAaaaaaAAAaaaAAAAaAaAAAAaAAAAaaaAAAAAaaAAaAaaaAaAAAaaaAAAaaaaAAAAAAAaAAAaaaaaAAaaaaaAAaAaaaAAAAaaaAaAAAaaAAAAaaaaAAAAaaAAaAAAAaAAaaaAAAAAaaaaAAAAaaAAaAAaaAAAaAAaaAaaaaaaaAAaaaAAAAAaaaAAAaAAAAaaAAAaaaAaAaaaAAAAaaaAAAAaAAAaaAAAAaaaAAAaaaaAAAAAAAAAAaaaAAaAaaaaAaAAaaaaaAAAaaaAAAAAAAAAAaaaAAAAaaaAAaAaaaaArAaaaaaAAaAaAaAAAAaaaAAAAaaAAAAAAAAAAaAAaaaaAAAAAaaaAAAAaaaAaAaAaaaarAAaaaAAAAaAAAAAaAAaaaaaaAAAaaaaaAAAAaAAAAAaaaAAaAaAaaaaAAAAaaaarraaaaAaAaaaaAAAaaaAAAAAaaAAAaaaAAAaaaAaAAAAAaAaaaAAAAaAaAaaAaaaAaAAAaaaAAAAaAaAaaAAAaaAAAAaAaaaAAAaAAAaaaAAAaaaAAaAaAAAaaaaAAaaaaaAaAAaaaAAAaaaAAAaaAAAaAAAAAaaaAaaaAAaaaaaaaaaacaaAAaaaAAAaaaAaAAaAaAAAaaaAAAaaaAAAaAaaAAaaaarraaaaAaaAAAaaAAAaaaAAAaaaaaAAaAaaaAAAaaaAAAAaaarraaaarraaaarAAAAAAAaaaAAaaaaaAAaAaAaAAAaaaAAAAaAAAaaaAAAaaaaAAAAaaarraaaaAAAaaaAAaAAAAAaaaAAaaaaAAAAAaaaAAaAAaaaaAAaAaaaAAAaaaAAAAaaaaaaAAaAaaaAAAAaAAAAaaaAAAaaaaaaaAAAaaaaAAAaaaAaAAAAaAaaaaAAAAaaaAaaAaaaAAAAaaaarraaaarAAaaaAAAaaaAAAaaaaAAAaaaaaAAAaaaAaAAAAAAAaaaAAAaaaAaAAAaaaAAAaaaaAAAAaaaAAAaaaAAAaaaAaaAaaaAAAaaaAaAAAAaAAaAAAaaaAaAaAaAAaAaaaAAAAaaaAAAaaaarraaaaAaAaaaaAAAaaaaaAAAaaaAAAcaAAAaaaAAAaAAAAAaaaAaAAaaaAaAaaaaAAaaAAAAaAAAaaaaAAAaaaaAAraaaaAAAaaaaAAAaaAAAArAAaaaAAAaAAAAAAaAaAAAAaaaAAAAaAAAaAaaaAAAaaarAAaaaAAaAaAaAAAAaAaAAAAaAAAAAaaaAAaAaaarrAaAAAAAaAAAAaAAAAaaaarAAaaaAAaAaaAAaAAAAAAAAAaAaaAAAAaarAAAAAAaaAAAAAaaaAAaAaaAAaAaaAaAaaarrAaaAAaAAaaAAAaaaarraaaaAAAaaaAAaAAAAaaAAAAAAAAaAAaaAAaaaAAAAAAAAaaaAaAAaAAAAAAAAaAAaAaAAAaaAAAaAAaAAAAaaarAaaaaAAaAAAaAaAAAAaAAAAAaAAaaAAAaaarAAaaAAaAaAAaAAAAAAAAAAAaAAAaaaAAAaaaAAAaaaAaAAaaAACAaAAAaarAAaaaAAaAaaAABAaAaABAaAAAaaaAaAAaAAAaAAAAAAAAaaaAAaAaAAAAAAAAaAaaAAAAAaaAABaarAAAAAaaaAAAaaaaAAAaaaaaAAAaaaAaAaaaAABaaaAAAAaaaaAAaAaaaAAAaaaAAAAAAAAAaAAAaaarAabbaaaAAAaaaAaAaaaAaAacaAAAaaasraaaaAAAAaaaAAAaaAAAABAAAAAaAAAaAaaaAaAaaaaAAAaaaAaAAabaAAAaacAaAaaaAAAaaaaAAAaaaaAAAaaaaAAAaaaAAAaaAAAAaAAAAAaaarraaarAAaaAAAaaaAAAaaaaAAAaaaaAAAaaaaBaAaaaAAAaaaAAaAaaaAAaAAaAAAaaaarAAaaAAaaaaaaaaaaAAAAAAAAaaaAAAAaaAAaaaabAAAaaaAAAaaaAAAaaaAAAAAaaaAAAaaaaAAAaaaAAAaArraaaAAAaaaAAAaaarrAaaaAAAaaaAAAaAAAAAaabAAAaaaAaAaaaaAAAaaaCAAaAAAAaaaAAAAaaaAAAAaaarAAaaaAAAAAAAAAaAaAAAaaaaAAaaAaAAaaaarAaaaaAAAAaaaAAAaaaaBAAAaaarraaaaAAAAaaaABAaaaAAAAAAAaAAaaAaAAAaaaaAAaaaaAAAaaAAAAaaaAAAAaaaAAAaaaAAAabaarAAaaaAACAaAAAaaaAAaaaaaaaAAaAaaAaaarraaaaAAAAaAAaAaaaAAaAAaaaarAAaaaAAAcaaAAAAAAAAAaAaAAaaaaAAAaaaAAaAAAaaaAAAaaaAaAaaaaAAAaaaaaAAAaaAaAABAAAAaAaAaAaaaAAaAaaaAAAaaaAaAAAAAAAaaaAAAaaarraaaaaAAAAaaaAAAaaaAAAaaaBAAaaaAAAaaaaBAaAAaaaAAAAAAAAaAAAaaaaAAaAaBAAaaaaaAACaaAAAAaaaAAAaaarraaaaAaAAAaaaAAAaaaAAAAAAAAAaaaAAAaaaAAAAaabAAAAAaaaAAaAaaaAAAAaaaAAAAarraAAAAAaarAAaaAAabAaaAAAaAAAAaAAAAAAaaaAAAaaaAAAaaaaAAaAaaaAAAaaaAAAaaaAAAAAaAAAaaaarraaaaAAAaaaAaaAaaaAAaAAAAAAAAAAAaaaaAAAaaaaAAAaaAAAAaAAaAaaarAAaaAAAAAaaaAAAAaaaAaAAAAAAAaaAAAAaAAAAaaAAAAaaAAaAAAaAAAAAAAAAaaaAAaAaaaAAAaAaAAaAAAAAAaAaAaAAAaaaarAaaaaAaAAaaaAAAAaAAAAAaaAaAAaaaarAAaaaAAAaaaAAAAaaaAAAaaaAaAaaaaAAaarraaaaAAaaaaAaAaaaAAAAAaaaAAAaaarraaarraaaaAAAaaaAAaaaAaAAaaarAAaaaAAAaaaAAAaaaAaAAaaAAAAAAaAAAAAaaaAAAaaaAAAAaaaAAAAAaaarAaAAAAAaaaAAAaaaAAAAaaaAAAAaAAAAaaaarAAaaaAAAaaaAAAaaAaAaaaAAAaaaAAAaaaaAAAaaAAAAaaAAaaaAAaaaAAAAabaAAAaaaAAAaaaarAaaaaAAAaaAAAAAaAaaaAaAAaaaarAAaaaAaAaAAaAraaAAAAAAAAAAaaAaAaaaAaAAaaaAAAaaaAAAAAaaaarAaaaaaAAAaaaAAaAaaaAAAaaaAAAAaaaAaAaaaaAAAaaaAAAaAAAAaAAAaAaaaaAAAaaaAAAaaaaAAAaaaAAAaaaAaAaaaAAAAaaaAAaaaaarAAaaaAAAaAAAAaaaAaAAaAAaAAAAAAarAaaaaAAAaaaAaaAaaaAAAAaaaaAAAaaarraaaaAAAaaAAAaaAAAAAAAAAAaaaAAAAaaaAAaAaaaAAAaaaAAAaaaAAaAAAAAAAaaaAAAaaaAAAaaaaAAaaaaaaAaAAaaaAAAaaAAaaaaaaaaaaaAaAAAAaAaaaaAaAaaAAAAaaaaAAAaaaaAAAaaaAAAaAAAAaaaAAAAAAAAaAaAAAaaaAAAaaaarAaaaaAAAaaaaaAAAaaAAAaaaAAAaaaaAAAAAaAaAAAaaAaAAaaaarAaaaaAAAaaaAAAaAAAAaaaAAAAAaAAAAaaaAAAaaarAAaaAAAaaaAAAAaaAAAaaaAAAaaaAaAaaaAAAaaaAAAAaaaarraaAAAAaaaAAAaaAAAaAaAAAaAAAAAAaaaAAAAaaaAAAaaaarAaaaaAAAaaaAAAAAaaaAAAaaaAaAaaaAAAAaAAAaaaAAAaaaaarAaaaaAAAaaAAAaAAAAaaAAaaaaaAaaaaAAAaaaAAAaaaaAAAaaaaAAAaaaAAAaaaaAAAaaaAaAaaaAAAaaAAaaarraaaaAAAaaaaaAAaaaaaAAAaaaAAAaaaAAAaaaAAAaaaaAAAaaaaaaaarraaaarAAaaaAAAaaAAAAaAAAAAAAAAAaaaAAAaaaAAAaAAAaaaaAAAAAaaaAAAAaAAAaaaAaAAAAAAAAaAaAAAaaaAAAAAarAaaaaAAAaaaAAAaAAAaaaAaAaaaAAAAaAAAaaarraaaaAAAaaaaaAAAAaaaAAAAaaaAAAaaaAaAaaAaAaaaaaAAaaaaaaaaaaaarAAaaarraaaarAAaaAaAAaaaAaAAaaaaAaAaAAAAaaaAaAaaaAAAaaaaAAAaaaaAAAaaaaAAAaaaarAaaaaAAAaaAAAaaaAaAaaaAAAaAAAAAaaaAAAaaaaAAAAaaaAAAaaaaaAAAaaAAAaaaAAAaaaAAAAaaAAaAAAaaaAaAaaaAaAAAAAAaaarraaaaAAAaaaAAAAAaaaAAAaaaAAAaaaAaAaaaAAAaaaAAAAaaaarAaaaaAAaAAAAaaaAaAaaaAAAAAaaAAAaaAAAaaaaAAAaaaarAAaaaAAAAaaAAAAAaAAAAAAAAaAAaAAAaaaAAAaaaaAAAAaaaaAAAaaaAAAaaaAAAaaaAaAAaaaAaAaAAaAAAaaarraaaaAABaaaAAAaaAAAaaaAaAAaaaAaAaaaAAAaaaAAAaaaarraaaaaAAAAaaaAAAAaaaAAAaAAaAAAAAAAaaaAAAAAaaaAAAaaaarAaaaaAAAaaaAAaAaaaAaaAaaaAaAAAaAAAaaaAAAaaaAAAAaaaAAAaaaAAaaaaaAaaAaaaAAAaaaAAAAAAAAAaaAAAAaaaAAAaaaaarraaaAAAaaaarraaaaAAAaaaAAaAaaAAAaaaAAAaaAAAAaaaAAAAaaaAAAaaaaAAaaaaAAaaarAAaaaAAAaaAAAaaAaAAAAAAAAaaarraaaAAAaaarraaaAAaaAaaaAAAaaaaAAaaaAaaaAAAAaAAAAaaAAAaaaarAaaaaAAAaaaAAaAaaaAAAAaaaAaAAaaaAAAaaaAAAaaarraaaaAAAAaaaAAAAaaaaAAAaaaAAAaaaAAAAAAAAAaaaAAAAAaaaAAAaaaAAAaaaarAaaaaAAAaaaAAaAaaaAAAaaaAaAAaAAaAAAAAAAaaaAAAaaaAAAaaaAAAaaaAAAaaaAAaaaaaAAAaAAAAAAAAAAaaaAAAaaaAAAaaaaAAaaaaaAaAAaaaAAaaaaaAAAaAAAAAAAAAAaAaAAaaaAAAaaaaAAAaaaaAAAaaaAAaaaaAAAaaaAAAaaaAAAAaaaaAAAaaaAAAAAAAAaaaAAAaaaaaAAAaaAAaAaaaAAAaaaAAAaaaaAAAAaaaAaAaaaAAAaaarAaaaaAAAAaAaaaaaaaaaaAAAAaaaaAAAaaaAAAAAaAaaarraaaaAAaAAaaaAAAaaaAAAAaAAAaaaaAAAaaAAaAaaaAaAaaaAAAaaaaAAaaaaAAAaaAAaAaaaAAaAcaaaAAAAaaaAAAAAAAAaaarraaaaAAAaAaaaAAAaaaaAAAaaaAAaaaaaAAaAaaaAAAAAaaaAAAaaaAAaaaaAAAAAAAaaaaAAAAaaaaAAAaaaAaaAaaaAAAAaAAAaAAAAaaaaaAAaAaaaAAaaAaAAAaaaaAAAaaAAAaaaAAaAAaaaAAAaaaaAAAaaaAAAAAAAAaaaAAAaaaaaAAaaaaaaAaaaaaaaaaaaAAAaaarAaaaaAAAaaAaAaaaAAAAaaaaAAAAaaaAAAaaAaAaaaAAAAaaaaAAaaaaaAAAAAAAAAaAAAaaaaAAAaaAAAaaaAAAaaaAAAaaaaAAAaaaAAAAAAAaaarraaaaAAAAaAaAAAAAaAAaaaaAAAaaaAAAaAAaAaaaAAAaaarAaaaaAAAAaaaAaAAAAAAacaAAAAaaAAAaaaAAAAaaaAAAAaaaAAAaaaaAAAaaaAaaAAAAAaaaaAAAaaaaAAAaaaAAAaaaAAAaAarraaaaAAAaAaaAAAAaaAAAaaaAAAaaaaAAAAaaaaAaAaaaaAAAaaaaAAAaaaaAAAaaaAAAaaaAAAAAarraaaaAAAAaaaAaAaaaAAAaarraaaaAAAaAaAAAAaaaaAAAaaaaAAAaaaAAAAaaaAAaAaAaAAAaaaAAAaaAAAaaaAAaaaAAAAAaaaAAAaaaarraaaarraaaarAAAAAAaaaaaAAAaaAAaaaaaAaAaaAAAaAAAAaaaAaAAAAaAAaaaAAAAaAAAaAAAaaaaAAAaaaarAAAarAaaaaAAAaaaAAAaaaAAAaaaaAAAaaaAAAAaaaAAAAAAaAaaAAAAaAAAaaaAAAaaaAAAaaaarraaaaAAAaaaaAaAAaaaAAAAaaaAAAaaaAAAaaaAAAaAAAaAaaaAAAaaaaAaAaaaarraaaAAAaaaAAAAaaaaAAAaaarraaaAAaAaaaAAAaaaAAAaaaAAAaaaAAAAaaaAAAaaAaAaaaAAAaaaAAAAaaaAAAaaaaaAAAaaaarsaaaarraaaaAAAaaaaaAAaAaaaAAAaaaAAAAaaaAAAAaaaAAAaAAAAaaaAaAAaaaAAaAaaaaAAAaaaAAAaaarraaaaAAAAaaaarraAAAAAaaaAAAaaaAAAaaaAaaAaaAAAAaaaAaAaaaAaAaaaAAAAAAAAaAaaaAAAaaaAaAaAaaaarraaaarraaaaAAAaaaaAAAAaaaaAAAaaaAAAaaaAAAaaaAAAaaaAaAAaaaaAAAaaaAaAaAAAAaaaAaAAAAAaAaaaAAAAaAAAAaaaAAAaaarraaaaAAAaaaaAAAAaaaaAAAaaaAAAaaaAAAaaaAaAaaaAAaAaaaaAaAaaaAAAAaaaABAaaaAAAaaaaAAAAaaaAAAaaaaAAAaaaarraaaarAAaaaAAAaaaaAAAAaaAAaaaaaAAaAaaaAaAaaaAAAAAAAAaaaaaaaaaaaAAAaaAAAaaaAAAAaAAAaaaaAAAaaaaaAAAaaaAAAaaaAAAaaAAAaaaAAAAaAAAAaaaAAAaaaAAAaaaAAAaAAAAaaAAAAaaaAAAAarAaaaaAAAaaaAAAAAaaaAAaAAaaaAaAaaaAAAaaaAAAaaaarAAaaaAAaAaaAAAaAAAaaaAAAAAaaaAAAaaaAAAaaaarAAaaaAAAaaAAAaaaAaAaaaAaAaAaaAAaAAaaaarAaaaaAAaaAaaaAAAaaaAAAaaaAaAAaaaaaAAAaaaAAAAaaaarAbaaaAAAaaaAAaAaaaAAAaaaAaAaaaAABaaaAAAaaaaAAaaaAAAAAAaaaAAAaaaAAAaaaaAaAaaaBAAAaAAaaaaaaaaaaAAaaAAaaaaAAAAaaAAAaAAAAAAAAAaaarraAAAAaaaAAAaaAAaAacAaAAAAAAAAaAAAAaaaAraaaarAAaaaAAAaaaaaAAaAAaaaAaAaaaAAAaaaAAAaaaarAaaAAAaaaaaAAAaaaAAaAaaAaAaaaAAAaaaAAAAaaaarAaaaaAAAaaAaaAaAAAAaaaAAAbAaaAAAaaaAAAaaaAAAAAaarAaaaaAAAaaaAAaAaaaAAAaAAAAAAAaAAaaaAAAaaaAaAAAaarraaaaAAAaaaAAaAaaAAAaaaAaAAAaAaaAAaAAaaaaAAaAAaaaaAAAaaaaAAAaaaAAAAaaaAAAAaaaAaAaaAAAaaaAAAaaaarAAAAAAaaaaaAAAaaaAAaAaaAaAaaaAAAaaaAaAAaaaarAaaaaAAAaaaAAAAaaaAAAaaaAaAaAAAaaaAAAaaaarAAAAAaaAAAaAAAaaAAAAAAAaAAAaaaAAAaaaarAAaaaAaAAaaaaAAAaAAaAAAAAAAAaaaaaaaAaaaAaAAaaaaarAAaaaAAAaaAAAaaAAaAaaaAAAAAaaaarAaaaaAAAAAAaaaAAAaaaAAaAaaaAAAaaaAAAaaaaAAAaaaaAAAaaaAAAAaaaAAAaaaAaAaaaAAAaaaaAAAaaaarraaaaAAAaAaaaAAAaaaAAAaaaAAAAaaaaAAaAAAaaaAAAaaAAAaaaaAAAaaAAaAaAAAAAAAAAAAAAaAAAaaarraaaarAAaaaAAAaaAAAAaaaAAAAaaaAAAAaAAAaaarraaaaAAbAaaaAAAaAaaaAAAaaaAaAAAAAaaaAaAAAAAAAaaaAAAaaaaAAAaaAAAaAAAAAAAAAAAaaAaAAaaaaAAaaaaAAAAaaaAAAaaaAAAaaaAAAaaarAcaaaAAbAaAAAaAAaAaaaAAAAAaaarraaaarAAaaaCAAAAaAAAaaaAaAAabaaAaAAaaarraaaaAAaaaaAAAaAaAAAAAAAAAAAaAAAaaaAAAaaaaAAaaaaaAAAaaAAaAAaAAAAAAAAAAaAAAaAarAaaaaAAAaaaaaAAAAaaaAaAaaaAAAaarraaaaAAaAaaaAAAaAAAAaaaAAAaaaAaAAaaaarAaaaaAAAAAaaaAAAaaaAAAAAAaAAAaAAAaaaaAAaaaaaaAAaAAaaAAAaAAaAaaAAAaaaAAAAaaaarAAaaaAAAaaaAAAaaaAaaAAaAAAAaaaarAaaaaAAAaaAAAaaaAAaAAAAAAaaaAAAAaaaaAAAaaaAAAaaaAaAAaAAAaaaAAAAaaaAAaAaaAAaaaaaaaaaaCAAAAAAAaaaAAAAAaAAaaaaAAAaaaAAAAaaaAAAaaaAAAAaaAAAaaarAAaaaAAAaAAAAaAAAAAaaaAaAAAaaAAAaaaaAAAaaaAAaAaAaaaAAAaaaaaAAAcaaAAAaaaAAAaAAAAAAAAAAAaaaAAAaarraaaaAAAaaaAAAabaAAAaaaAAAaaaAAAaaaaAAAaaaAAAaAAaAaaaAAAAaaaaAAaAaaAAAAaaaAAAaaaAAaAaaAAAaaAAAaaaAaAaaaaAAAaaAAAaaaAAAaaaaAAAaaarraaaaAAAaaaAAAacaAAAaaaAAAAaaaAAACaaaarAAaaaAAAaaAAAaaaAaAAaAAaAAAaaaaAAAaaaaAAAaaAAAAaaaAAAAAAaAAAaaAAAaaaaAAAaaaAAAaaBAAAaaaAAAAAaAAAAaaaarAaaaaAAAaarAAaAAAaAAaaaAAAAaaAAAAaaaarAAaaaAAaAaaaAAaAAaaaaAaAaAAAAaAAAAaaaarAA'
.(lp1
(F288.951031
F164.13686200000001
tp2
a.cnumpy.core.multiarray
scalar
p1
(cnumpy
dtype
p2
(S'f8'
I0
I1
tRp3
(I3
S'<'
NNNI-1
I-1
I0
tbS'\x19\x86a\x18\x86a\x98?'
tRp4
.F0
.