ccopy_reg
_reconstructor
p1
(cpykov
Vector
p2
c__builtin__
dict
p3
(dp4
S'1'
F0.0001026658909688238
sS'0'
F0.019746073029670443
sS'5'
F0.00079851248531307404
sS'4'
F0.018742228762419714
sS'7'
F0.0023385008498454313
sS'6'
F0.0001368878546250984
sS'9'
F2.2814642437516398e-05
sS'8'
F0.00035362695778150418
sS'A'
F0.0021673910315640576
sS'C'
F3.4221963656274599e-05
sS'B'
F1.1407321218758199e-05
sS'E'
F0.0086239348413811989
sS'D'
F0.23751183509576446
sS'G'
F0.0098787401754446003
sS'F'
F0.0016312469342824223
sS'I'
F0.001756727467688763
sS'H'
F0.00041066356387529517
sS'a'
F0.0041636722448467438
sS'c'
F1.1407321218758199e-05
sS'b'
F2.2814642437516398e-05
sS'e'
F0.022369756909984828
sS'd'
F0.55105346611455208
sS'g'
F0.019289780180920115
sS'f'
F0.0036161208263463494
sS'i'
F0.0039925624265653697
sS'h'
F0.0011293248006570618
sS'r'
F0.00063880998825045917
sS'u'
F0.070428801204613117
sS'w'
F0.00021673910315640578
sS'v'
F0.0028176083410332751
sS'y'
F0.0018365787162200697
sS'x'
F0.01406522706272886
sS'z'
F7.9851248531307396e-05
stRp5
.ccopy_reg
_reconstructor
p1
(cpykov
Chain
p2
c__builtin__
dict
p3
(dp4
(S'v'
S'D'
tp5
F0.060728744939271259
s(S'4'
S'4'
tp6
F0.46500304321363378
s(S'G'
S'G'
tp7
F0.28521939953810621
s(S'E'
S'0'
tp8
F0.0013227513227513227
s(S'w'
S'D'
tp9
F0.052631578947368425
s(S'i'
S'h'
tp10
F0.0057142857142857143
s(S'0'
S'x'
tp11
F0.40034662045060659
s(S'r'
S'w'
tp12
F0.017857142857142856
s(S'A'
S'e'
tp13
F0.021052631578947371
s(S'h'
S'D'
tp14
F0.0101010101010101
s(S'7'
S'y'
tp15
F0.004878048780487804
s(S'7'
S'x'
tp16
F0.087804878048780469
s(S'G'
S'F'
tp17
F0.0011547344110854503
s(S'e'
S'I'
tp18
F0.0010198878123406426
s(S'd'
S'f'
tp19
F0.0037882708510153826
s(S'x'
S'g'
tp20
F0.16139497161394969
s(S'G'
S'a'
tp21
F0.0023094688221709007
s(S'x'
S'u'
tp22
F0.063260340632603398
s(S'I'
S'0'
tp23
F0.03896103896103896
s(S'u'
S'e'
tp24
F0.0012957563977972141
s(S'v'
S'F'
tp25
F0.0080971659919028341
s(S'G'
S'E'
tp26
F0.0011547344110854503
s(S'6'
S'D'
tp27
F0.16666666666666666
s(S'e'
S'H'
tp28
F0.0020397756246812852
s(S'u'
S'w'
tp29
F0.0012957563977972141
s(S'7'
S'u'
tp30
F0.029268292682926824
s(S'E'
S'D'
tp31
F0.10714285714285714
s(S'7'
S'0'
tp32
F0.27317073170731704
s(S'5'
S'u'
tp33
F0.042857142857142851
s(S'4'
S'u'
tp34
F0.12416311625076085
s(S'u'
S'A'
tp35
F0.0034013605442176874
s(S'6'
S'5'
tp36
F0.16666666666666666
s(S'F'
S'D'
tp37
F0.097902097902097918
s(S'g'
S'y'
tp38
F0.026020106445890007
s(S'u'
S'd'
tp39
F0.15970197602850664
s(S'H'
S'y'
tp40
F0.02777777777777778
s(S'G'
S'D'
tp41
F0.060046189376443425
s(S'I'
S'x'
tp42
F0.01948051948051948
s(S'u'
S'v'
tp43
F0.0069646906381600265
s(S'v'
S'd'
tp44
F0.04048582995951417
s(S'z'
S'u'
tp45
F0.4285714285714286
s(S'd'
S'd'
tp46
F0.73796758233796367
s(S'G'
S'g'
tp47
F0.33371824480369516
s(S'e'
S'0'
tp48
F0.0050994390617032127
s(S'w'
S'd'
tp49
F0.2105263157894737
s(S'f'
S'r'
tp50
F0.0031545741324921135
s(S'7'
S'4'
tp51
F0.18536585365853656
s(S'1'
S'u'
tp52
F0.33333333333333331
s(S'4'
S'0'
tp53
F0.0060864272671941593
s(S'w'
S'A'
tp54
F0.052631578947368425
s(S'C'
S'0'
tp55
F1
s(S'E'
S'F'
tp56
F0.0066137566137566134
s(S'd'
S'F'
tp57
F0.0011385513486658252
s(S'x'
S'G'
tp58
F0.050283860502838604
s(S'x'
S'x'
tp59
F0.34630981346309814
s(S'g'
S'A'
tp60
F0.0011827321111768185
s(S'g'
S'v'
tp61
F0.00059136605558840927
s(S'd'
S'H'
tp62
F0.0001242056016726355
s(S'h'
S'e'
tp63
F0.090909090909090898
s(S'e'
S'u'
tp64
F0.0025497195308516064
s(S'd'
S'b'
tp65
F2.0700933612105914e-05
s(S'8'
S'0'
tp66
F0.096774193548387108
s(S'5'
S'4'
tp67
F0.19999999999999998
s(S'I'
S'D'
tp68
F0.045454545454545449
s(S'x'
S'y'
tp69
F0.028386050283860501
s(S'u'
S'a'
tp70
F0.0022675736961451248
s(S'F'
S'd'
tp71
F0.069930069930069935
s(S'G'
S'd'
tp72
F0.12817551963048501
s(S'G'
S'y'
tp73
F0.02540415704387991
s(S'e'
S'f'
tp74
F0.014788373278939317
s(S'0'
S'r'
tp75
F0.0075101097631426923
s(S'6'
S'1'
tp76
F0.083333333333333329
s(S'd'
S'D'
tp77
F0.20779597159831917
s(S'a'
S'u'
tp78
F0.046575342465753414
s(S'8'
S'x'
tp79
F0.032258064516129031
s(S'I'
S'u'
tp80
F0.85064935064935054
s(S'D'
S'u'
tp81
F0.01724220738677297
s(S'u'
S'r'
tp82
F0.004859086491739553
s(S'a'
S'b'
tp83
F0.0027397260273972594
s(S'v'
S'y'
tp84
F0.004048582995951417
s(S'w'
S'a'
tp85
F0.052631578947368425
s(S'c'
S'0'
tp86
F1
s(S'5'
S'6'
tp87
F0.028571428571428567
s(S'h'
S'z'
tp88
F0.0101010101010101
s(S'E'
S'i'
tp89
F0.0013227513227513227
s(S'D'
S'F'
tp90
F0.0024974785072763078
s(S'h'
S'h'
tp91
F0.38383838383838381
s(S'w'
S'E'
tp92
F0.052631578947368425
s(S'A'
S'D'
tp93
F0.27368421052631581
s(S'7'
S'8'
tp94
F0.009756097560975608
s(S'F'
S'u'
tp95
F0.60839160839160844
s(S'e'
S'G'
tp96
F0.0010198878123406426
s(S'h'
S'i'
tp97
F0.0202020202020202
s(S'4'
S'v'
tp98
F0.003651856360316496
s(S'd'
S'y'
tp99
F2.0700933612105914e-05
s(S'7'
S'G'
tp100
F0.024390243902439018
s(S'a'
S'd'
tp101
F0.56164383561643827
s(S'4'
S'D'
tp102
F0.30493000608642734
s(S'8'
S'4'
tp103
F0.54838709677419351
s(S'F'
S'v'
tp104
F0.0069930069930069939
s(S'y'
S'u'
tp105
F0.56521739130434789
s(S'e'
S'F'
tp106
F0.0035696073431922492
s(S'0'
S'g'
tp107
F0.015020219526285385
s(S'D'
S'D'
tp108
F0.40483166034292301
s(S'4'
S'w'
tp109
F0.0012172854534388319
s(S'E'
S'e'
tp110
F0.46560846560846564
s(S'u'
S'F'
tp111
F0.00097181729834791076
s(S'4'
S'E'
tp112
F0.0054777845404747434
s(S'r'
S'x'
tp113
F0.035714285714285712
s(S'0'
S'v'
tp114
F0.0098209127671865966
s(S'H'
S'x'
tp115
F0.02777777777777778
s(S'g'
S'h'
tp116
F0.0059136605558840916
s(S'5'
S'5'
tp117
F0.25714285714285712
s(S'7'
S'v'
tp118
F0.004878048780487804
s(S'h'
S'E'
tp119
F0.0101010101010101
s(S'v'
S'r'
tp120
F0.004048582995951417
s(S'd'
S'g'
tp121
F0.0044714016602148774
s(S'0'
S'A'
tp122
F0.00057770075101097628
s(S'D'
S'f'
tp123
F0.0028336775371019642
s(S'E'
S'f'
tp124
F0.0092592592592592587
s(S'a'
S'f'
tp125
F0.010958904109589038
s(S'A'
S'0'
tp126
F0.12105263157894738
s(S'D'
S'B'
tp127
F4.8028432832236688e-05
s(S'6'
S'E'
tp128
F0.083333333333333329
s(S'4'
S'8'
tp129
F0.00060864272671941593
s(S'r'
S'A'
tp130
F0.017857142857142856
s(S'y'
S'd'
tp131
F0.0062111801242236038
s(S'G'
S'x'
tp132
F0.019630484988452657
s(S'A'
S'f'
tp133
F0.0052631578947368429
s(S'a'
S'D'
tp134
F0.1342465753424657
s(S'h'
S'0'
tp135
F0.1313131313131313
s(S'4'
S'r'
tp136
F0.0012172854534388319
s(S'z'
S'v'
tp137
F0.4285714285714286
s(S'd'
S'e'
tp138
F0.0042022895232575012
s(S'0'
S'G'
tp139
F0.013287117273252456
s(S'D'
S'd'
tp140
F0.52802459055761009
s(S'v'
S'w'
tp141
F0.004048582995951417
s(S'8'
S'8'
tp142
F0.064516129032258063
s(S'i'
S'r'
tp143
F0.0057142857142857143
s(S'y'
S'y'
tp144
F0.099378881987577661
s(S'u'
S'i'
tp145
F0.00064787819889860706
s(S'E'
S'd'
tp146
F0.092592592592592587
s(S'g'
S'H'
tp147
F0.0017740981667652277
s(S'E'
S'H'
tp148
F0.0013227513227513227
s(S'4'
S'A'
tp149
F0.001825928180158248
s(S'd'
S'G'
tp150
F0.0030223363073674635
s(S'f'
S'e'
tp151
F0.047318611987381701
s(S'g'
S'u'
tp152
F0.0035481963335304554
s(S'I'
S'r'
tp153
F0.012987012987012984
s(S'H'
S'e'
tp154
F0.055555555555555559
s(S'F'
S'G'
tp155
F0.0069930069930069939
s(S'E'
S'u'
tp156
F0.0052910052910052907
s(S'd'
S'c'
tp157
F2.0700933612105914e-05
s(S'u'
S'z'
tp158
F0.00016196954972465177
s(S'6'
S'e'
tp159
F0.083333333333333329
s(S'd'
S'h'
tp160
F0.0001449065352847414
s(S'4'
S'5'
tp161
F0.007912355447352408
s(S'1'
S'D'
tp162
F0.33333333333333331
s(S'w'
S'y'
tp163
F0.052631578947368425
s(S'f'
S'0'
tp164
F0.044164037854889586
s(S'f'
S'f'
tp165
F0.066246056782334375
s(S'5'
S'v'
tp166
F0.057142857142857134
s(S'7'
S'I'
tp167
F0.004878048780487804
s(S'H'
S'D'
tp168
F0.055555555555555559
s(S'r'
S'u'
tp169
F0.39285714285714285
s(S'y'
S'h'
tp170
F0.031055900621118016
s(S'd'
S'E'
tp171
F0.0015732709545200495
s(S'A'
S'u'
tp172
F0.05789473684210527
s(S'4'
S'7'
tp173
F0.010955569080949487
s(S'A'
S'G'
tp174
F0.0052631578947368429
s(S'x'
S'a'
tp175
F0.0008110300081103001
s(S'd'
S'a'
tp176
F0.0056513548761049151
s(S'h'
S'G'
tp177
F0.070707070707070704
s(S'w'
S'v'
tp178
F0.052631578947368425
s(S'i'
S'v'
tp179
F0.017142857142857144
s(S'D'
S'G'
tp180
F0.006147639402526296
s(S'u'
S'u'
tp181
F0.51619695497246521
s(S'G'
S'H'
tp182
F0.0034642032332563512
s(S'f'
S'E'
tp183
F0.025236593059936908
s(S'z'
S'0'
tp184
F0.14285714285714285
s(S'u'
S'G'
tp185
F0.00032393909944930353
s(S'i'
S'0'
tp186
F0.0057142857142857143
s(S'5'
S'E'
tp187
F0.21428571428571427
s(S'd'
S'C'
tp188
F4.1401867224211827e-05
s(S'a'
S'0'
tp189
F0.16438356164383558
s(S'f'
S'a'
tp190
F0.0031545741324921135
s(S'I'
S'v'
tp191
F0.01948051948051948
s(S'4'
S'd'
tp192
F0.060864272671941597
s(S'f'
S'F'
tp193
F0.025236593059936908
s(S'0'
S'y'
tp194
F0.021952628538417101
s(S'7'
S'i'
tp195
F0.004878048780487804
s(S'i'
S'x'
tp196
F0.0057142857142857143
s(S'D'
S'E'
tp197
F0.0028336775371019642
s(S'0'
S'H'
tp198
F0.00057770075101097628
s(S'x'
S'd'
tp199
F0.023519870235198703
s(S'H'
S'h'
tp200
F0.19444444444444445
s(S'A'
S'g'
tp201
F0.0052631578947368429
s(S'b'
S'0'
tp202
F0.5
s(S'd'
S'A'
tp203
F0.0016974765561926851
s(S'd'
S'v'
tp204
F0.00010350466806052958
s(S'h'
S'g'
tp205
F0.070707070707070704
s(S'b'
S'C'
tp206
F0.5
s(S'D'
S'g'
tp207
F0.0034580471639210414
s(S'I'
S'd'
tp208
F0.012987012987012984
s(S'7'
S'7'
tp209
F0.34146341463414626
s(S'v'
S'v'
tp210
F0.4291497975708502
s(S'F'
S'E'
tp211
F0.041958041958041967
s(S'u'
S'g'
tp212
F0.00048590864917395538
s(S'5'
S'e'
tp213
F0.042857142857142851
s(S'6'
S'F'
tp214
F0.083333333333333329
s(S'D'
S'H'
tp215
F0.00028817059699342011
s(S'e'
S'e'
tp216
F0.62927078021417648
s(S'f'
S'A'
tp217
F0.0031545741324921135
s(S'r'
S'r'
tp218
F0.053571428571428575
s(S'e'
S'd'
tp219
F0.1172870984191739
s(S'w'
S'0'
tp220
F0.15789473684210528
s(S'F'
S'F'
tp221
F0.034965034965034968
s(S'r'
S'D'
tp222
F0.17857142857142858
s(S'u'
S'f'
tp223
F0.0011337868480725624
s(S'F'
S'0'
tp224
F0.041958041958041967
s(S'H'
S'd'
tp225
F0.11111111111111112
s(S'g'
S'd'
tp226
F0.12714370195150798
s(S'9'
S'5'
tp227
F1
s(S'D'
S'e'
tp228
F0.0045146726862302479
s(S'B'
S'B'
tp229
F1
s(S'x'
S'D'
tp230
F0.024330900243309004
s(S'h'
S'x'
tp231
F0.0202020202020202
s(S'D'
S'A'
tp232
F0.0047548148503914313
s(S'x'
S'h'
tp233
F0.0032441200324412004
s(S'4'
S'6'
tp234
F0.001825928180158248
s(S'h'
S'u'
tp235
F0.0303030303030303
s(S'A'
S'r'
tp236
F0.010526315789473686
s(S'e'
S'E'
tp237
F0.15553289138194798
s(S'd'
S'r'
tp238
F0.0001242056016726355
s(S'F'
S'e'
tp239
F0.027972027972027975
s(S'G'
S'u'
tp240
F0.0092378752886836026
s(S'1'
S'4'
tp241
F0.33333333333333331
s(S'e'
S'w'
tp242
F0.0005099439061703213
s(S'h'
S'd'
tp243
F0.040404040404040401
s(S'x'
S'i'
tp244
F0.0024330900243309003
s(S'4'
S'F'
tp245
F0.0012172854534388319
s(S'd'
S'i'
tp246
F0.005113130602190161
s(S'e'
S'a'
tp247
F0.0035696073431922492
s(S'D'
S'h'
tp248
F9.6056865664473375e-05
s(S'a'
S'A'
tp249
F0.0082191780821917783
s(S'x'
S'0'
tp250
F0.29521492295214918
s(S'e'
S'D'
tp251
F0.035696073431922486
s(S'8'
S'y'
tp252
F0.032258064516129031
s(S'F'
S'f'
tp253
F0.062937062937062943
s(S'r'
S'd'
tp254
F0.035714285714285712
s(S'e'
S'v'
tp255
F0.015298317185109638
s(S'a'
S'e'
tp256
F0.016438356164383557
s(S'r'
S'v'
tp257
F0.017857142857142856
s(S'8'
S'7'
tp258
F0.22580645161290322
s(S'g'
S'D'
tp259
F0.030159668835008868
s(S'y'
S'r'
tp260
F0.0062111801242236038
s(S'g'
S'a'
tp261
F0.0023654642223536371
s(S'E'
S'v'
tp262
F0.0092592592592592587
s(S'a'
S'a'
tp263
F0.041095890410958895
s(S'D'
S'a'
tp264
F0.0059555256711973491
s(S'x'
S'H'
tp265
F0.0008110300081103001
s(S'v'
S'E'
tp266
F0.20647773279352227
s(S'w'
S'u'
tp267
F0.26315789473684209
s(S'u'
S'E'
tp268
F0.0016196954972465178
s(S'E'
S'E'
tp269
F0.2764550264550264
s(S'a'
S'g'
tp270
F0.0082191780821917783
s(S'6'
S'4'
tp271
F0.33333333333333331
s(S'A'
S'd'
tp272
F0.37894736842105264
s(S'g'
S'z'
tp273
F0.00059136605558840927
s(S'G'
S'0'
tp274
F0.12240184757505773
s(S'4'
S'f'
tp275
F0.00060864272671941593
s(S'd'
S'I'
tp276
F0.0019044858923137444
s(S'e'
S'A'
tp277
F0.0025497195308516064
s(S'A'
S'A'
tp278
F0.04736842105263158
s(S'g'
S'g'
tp279
F0.51034890597279714
s(S'u'
S'I'
tp280
F0.00080984774862325891
s(S'7'
S'D'
tp281
F0.024390243902439018
s(S'h'
S'H'
tp282
F0.060606060606060601
s(S'5'
S'D'
tp283
F0.099999999999999992
s(S'0'
S'w'
tp284
F0.0034662045060658581
s(S'a'
S'E'
tp285
F0.0027397260273972594
s(S'u'
S'0'
tp286
F0.033203757693553618
s(S'h'
S'y'
tp287
F0.040404040404040401
s(S'G'
S'h'
tp288
F0.0080831408775981529
s(S'u'
S'y'
tp289
F0.00016196954972465177
s(S'D'
S'0'
tp290
F0.0091734306709572062
s(S'H'
S'H'
tp291
F0.1388888888888889
s(S'g'
S'x'
tp292
F0.030159668835008868
s(S'y'
S'v'
tp293
F0.062111801242236031
s(S'd'
S'w'
tp294
F2.0700933612105914e-05
s(S'D'
S'v'
tp295
F9.6056865664473375e-05
s(S'H'
S'g'
tp296
F0.1388888888888889
s(S'v'
S'e'
tp297
F0.11336032388663969
s(S'u'
S'x'
tp298
F0.00923226433430515
s(S'4'
S'1'
tp299
F0.0024345709068776637
s(S'E'
S'r'
tp300
F0.0013227513227513227
s(S'y'
S'0'
tp301
F0.09316770186335406
s(S'y'
S'g'
tp302
F0.031055900621118016
s(S'r'
S'0'
tp303
F0.25
s(S'0'
S'u'
tp304
F0.52512998266897748
s(S'v'
S'u'
tp305
F0.12955465587044535
s(S'a'
S'G'
tp306
F0.0027397260273972594
s(S'f'
S'd'
tp307
F0.14511041009463721
s(S'H'
S'0'
tp308
F0.16666666666666669
s(S'5'
S'd'
tp309
F0.042857142857142851
s(S'g'
S'0'
tp310
F0.11827321111768185
s(S'D'
S'I'
tp311
F0.0025935353729407812
s(S'E'
S'A'
tp312
F0.0052910052910052907
s(S'0'
S'D'
tp313
F0.00057770075101097628
s(S'A'
S'a'
tp314
F0.052631578947368425
s(S'g'
S'G'
tp315
F0.14133648728562981
s(S'7'
S'd'
tp316
F0.004878048780487804
s(S'i'
S'u'
tp317
F0.95999999999999996
s(S'y'
S'x'
tp318
F0.09316770186335406
s(S'd'
S'u'
tp319
F0.012399859233651443
s(S'A'
S'E'
tp320
F0.021052631578947371
s(S'h'
S'A'
tp321
F0.0101010101010101
s(S'E'
S'g'
tp322
F0.0013227513227513227
s(S'e'
S'i'
tp323
F0.0025497195308516064
s(S'd'
S'0'
tp324
F0.0086322893162481661
s(S'E'
S'h'
tp325
F0.0066137566137566134
s(S'w'
S'F'
tp326
F0.052631578947368425
s(S'0'
S'z'
tp327
F0.0017331022530329291
s(S'H'
S'G'
tp328
F0.055555555555555559
s(S'e'
S'g'
tp329
F0.001529831718510964
s(S'f'
S'u'
tp330
F0.58990536277602523
s(S'g'
S'E'
tp331
F0.00059136605558840927
s(S'e'
S'h'
tp332
F0.006119326874043856
s(S'H'
S'u'
tp333
F0.02777777777777778
s(S'y'
S'G'
tp334
F0.0062111801242236038
s(S'y'
S'z'
tp335
F0.0062111801242236038
s(S'D'
S'r'
tp336
F0.00024014216416118342
s(S'd'
S'x'
tp337
F2.0700933612105914e-05
s(S'f'
S'D'
tp338
F0.044164037854889586
s(S'u'
S'D'
tp339
F0.25526401036605123
s(S'E'
S'a'
tp340
F0.0092592592592592587
s(S'f'
S'v'
tp341
F0.0031545741324921135
s(S'D'
S'i'
tp342
F0.0043705873877335384
s(S'5'
S'1'
tp343
F0.014285714285714284
stRp344
(dp345
S'_guess'
p346
g1
(cpykov
Vector
p347
g3
(dp348
S'1'
F0.0001026658909688238
sS'0'
F0.019746073029670443
sS'5'
F0.00079851248531307404
sS'4'
F0.018742228762419714
sS'7'
F0.0023385008498454313
sS'6'
F0.0001368878546250984
sS'9'
F2.2814642437516398e-05
sS'8'
F0.00035362695778150418
sS'A'
F0.0021673910315640576
sS'C'
F3.4221963656274599e-05
sS'B'
F1.1407321218758199e-05
sS'E'
F0.0086239348413811989
sS'D'
F0.23751183509576446
sS'G'
F0.0098787401754446003
sS'F'
F0.0016312469342824223
sS'I'
F0.001756727467688763
sS'H'
F0.00041066356387529517
sS'a'
F0.0041636722448467438
sS'c'
F1.1407321218758199e-05
sS'b'
F2.2814642437516398e-05
sS'e'
F0.022369756909984828
sS'd'
F0.55105346611455208
sS'g'
F0.019289780180920115
sS'f'
F0.0036161208263463494
sS'i'
F0.0039925624265653697
sS'h'
F0.0011293248006570618
sS'r'
F0.00063880998825045917
sS'u'
F0.070428801204613117
sS'w'
F0.00021673910315640578
sS'v'
F0.0028176083410332751
sS'y'
F0.0018365787162200697
sS'x'
F0.01406522706272886
sS'z'
F7.9851248531307396e-05
stRp349
sb.S'44DDDddddddddad#44uDdDdddDDDdddddddDeAd#87GgDdDdddDdddddddGgg0xxggggdDduuudDDDddDdDDd#44uda#74DDGDDddDdDGgGggddDddddddddddddddddddddDDGggg0xxxxgddDdddddddddddGggg0xxgggdDduuudDDDddDdDDdd0xxGyuuDDDdDDDgGGgggdDu0uuDDGggggGgxxxGgGG0xxggxuuDddDDDddDdDDdDdDIuuDDDGGGGGgxuudDD0xxgggGgGggg0xxggGggggggggGuuddDDdDDDdddddddddDDdux0uuDdDddDddddduuuDDdddddddddddddDDDddddddDuuuDdDDDddDDdddddDdddddddddddddddDddddDDuuuddDdDddddDDdddddddDDdddDDddDdDddddddDuDddDuDuuudDdDDDDDD0uudiuuddDdddDDdDgDddDdDDDDDddDdDddDddddddduuudGGdDDdDdDddDDdddddDdddddDDdddDDdddddddDiuudDDddDDddddDIuudDDDDddDDDDdDdddDDdDDddDDddddDdDdddddddddddDdddddddFuuDdDDDDDEDDdddD0uuddDddddddddddddDduuvddDDddDdggdgdgdddddddddddddddddddDDddDdddDdddddddDdDddddddddDDdddDDddddddddddddDddddDuuuDdDdddddDDddddDDdddDGDdddDdDDDdddddddddddDddddDDdddddIuuDdDddddddddddDddDdddddddddddDddddddddddddgdddduuuDdDddDDDDdDDdDDdDdddDddddDDddDDddddddddddddddddddddddddddddDddddDDdddDddDduufuuDdddDdDddDDddddddddDdDdDddddddddDDdddddddddDiuudddddddddDDdddDDdDDdDdddDdDdddddddddddddddddDdddddddddddddddddDDdDddduuuDDdDDDDddDdddDdddddDDdddiuuDddddddddddddddddDddddddddduvuDDDdddddDdddDdddddiuuDDdDdddDdEdDDDDDdddddduuudDDDDDDDuuuD0uuDuuuDDDddddDDDiuuDDddDDDDDdDdDddddddDDDddDdduuuddDdDDddddddiuudddDDDddDDDddDDdDddDDddddDdDdddDDddddddddDDiuuDDdDddDDDddDdDDDDddDDdddddDDdDdddddddDdddddddddddddddddddDDddddddddddddDdddddddddiuuDDDDDddDDDdddddDdddddDddDdddDdDDddDdddddddddDdddDddDddDdddIuuDdDDDdDDDDdDDdIuuDDdddDddddDdddddddduuuDdDdDddDdddddddgdddddddddddddddDdiuuDDdddddd0uuDddddDdDfuuDDDddddddDDdDDdDddDDdddDDddDDdddDdddddddddDdddDddfuuDdddDdDdDDdDDddDddDDdDdDdddddddddDddddddddddddDddddddDddddddddDDdIuudddDdDDdDddddddddddDDdddddddddDdddddddDdddDdddddddgddddDddddddddddddddDDdddDDdDu0uuudDDdDDddDddddd0u0uuuDDdddddddddddddddddddddDDdddddduuudDDDFuuDDdDDddDdddddddddDddddDDdddDdddDdDddddDDuuDDddddddddDdDdddddddDdddddddddddduuuDDdDDDDdDDdDDddddDddDdDddddddddddddddddDDdddddddDdDddddddDdDddddddDuuuDdDddDDDDddddgdddddDddDDddddddDddddddddDuuuddDDDDdDddddddddddddDdDDDdDddddDdDDDDDdddddduuudDdddDDddddddddddddddddDDddddddDDdddDddddddeddIxuDddDddDdDddDDDdDDdddddddddddEddddddDDddDDdddddDDdddDddDddddiuuddDDDDDDDDDddddDDDDDddDDDDDdddddDdddddddduuDDDDDdddDDdDDiuuDDDDddDddddddDDDddDddiuuDDDdDdDdDddddDDddddddDdDDdddddggggg0xxgGGGgggGggggggg0xxggdd0u0u#44uuDdddDdDddDDdddddddd0uudDddddddddDDDddddddddDiuudddddddddDDdddDDddddDddddDDdddddddddDdddDddDddddddddddddddddddDDdDddduuuDDdDDDDddddDdddddddDDdDdfuuDdddDddddddddDdddDdDDDdDDeduvuDDDddDDDDdddddddddfuudddDdddDeAddDdDdddddaduuudDDDDDdDu0uuudDdddddDDDiuuDDadDDDDddDdDddddddDDDddDdduuuddDdDDDDddddiuudddDDdddDDDddDAdddDDDdDDdaDDDddDDdddddddDddiuuDDddddDDDdDDdDDDDddDddddddDDdddddddddDdddddddddddddddddddddddddddddddddDdddddddddiuuDDDDDddddDdddddDdddddDddDdddDdddddDdddddddddDddddad0u0uuuDADddAddddddddddddIuuDddDDddddddddddGdDddddddddaddDDDDduuuDAdddddDdDdddddduuuDDDaDdDdDddDdDDdddddddddDdDDuuudddddDDauuuDDdddddddDDDddDDddDDaddDAddDDdddDdddddddddDdddDddiuuDdddDdADdddDAddDDdDdDDdDddddddddddddddddddddddddddddddddddddddDDdIuuddDdddDdddddddddddaDDddddddDddDdd0uuuDDDDDdDdDdduruaddDDDdaddddDDDdfuuDDdddddDddddaDddDDDdddddDdddddddFuuDDddDddDDaddddddddDDdddDDdddDdduuuddDDIuuDDdDDddDdddddddddDddddDDdddDddaddDdDdddduuDDdDddddddddDdddddddDdddddddddddD0u0u0u#44DddDdD0u0uuDdDDDDdd0u0uuuDDd#44DDAA#44DDddd#44dDDDdDdD#44DDdduuDDDd#44vDDdDDddddDDD0uudDdDdddddddddddDDdddddddddddddddddiuuDdddDdDDddddddDddddDdDdddddddddddDddddDDdedddddddddddDddddddddDDdiuudDdDdDDdddddddddddDdDdddddddddDeddddddDdddDdDdddddgddddddddDDdddddddddDDdddDDdDuuuDDEDddDdDAduuudDDdDDddDddddDDdiuudDddddddddddDDddDDDDDdddDddDDdDdDu0uuDDdddDddddddddddddddddddDdddddddDDddDddDuuDdddDddddddddddddddddddedddddddddduuuDDdDDDDdDddDDddddDddd0u0u0u#44udddA#44udDDddDDdDDDddddddDuuuDGg0x0gxxxx0xx0xxgggxuuDddDDDddDA0uuDdDDdGGGggg0x0GxGg0xxg0x0gxgggGgxuuDDDDdDdddddddddddDDDuxxDdDDdddDddddduuuDDdddddddddddddDDDDdddddDuuuDdDDDddDDdddddDddddddddddddddddDddDdduuuddDdDddddDDdddddddDDdddDDddddDddddddDuDddDuuDuuDDDDDdDdDDddddfuuddDdddDDdDgddDDdDdDADDdDdDddddDddddDuuudG0uudDDDdddDDddddDDdddddDeddddddddddddDiuudDDddDDddddDFuudDDDDddDDDDdDdddDDdDDdddddDDdDdDdddddddddddDdddddDdIuuDddDDDDDDDdddDDdDddDdddddddddddddduuudDDDddDddgdddgdddddddddddddddddddDDddDdddddddDDddddDdddddddDDD0uuDDddddddDdddddDddddDuuuDdDdddddddddddDDdddGGDdddDddDDDddddddddddDdddddddddddfuudDDddddddddddDddDdddddddddddDddddddddddddgdddduuuDddddDDDDdDDdDddDdDDDddddDDddddddddddddddd0uudDddddddddddddDddddDDdddDddDduufuuDdddDdDddDDdddDddddDdDdDddddddddDDDddddddddDfuudddddddddDDdddDDddddDdddDdDdddddddddddddDDdDDddddd0uuddddddddddddDddduuuDDdDDDDddddddddddddDDdddfuuDddddddddddddDdddDddddddddduuuDDDdddddDdddDdddddiuudddDdddDdDddDDDD#770x0x0x0x0xx0x0x0x0x0xx#44DddddDdddDddDDdiuudddddDddddDdddddddduuuDdDdDddDdddddddgddddddddddddddDddiuuDDdddddDdDdddddduuuDDDDDDDddddddDDDddddDdddDDdDuuudddddD0uuuDdddDdD0uuddddDddddDdDdDdddddddddDddddDDdddddddddddddDddddddddDDdfuudDdDdDDddddddddddddDDdddddddddDdddddddDdddddDdddddgddddddd0uudddddddddDDdddDDdDuuuDDDDDDDdDDDuuudDDdDDddDddddDDdiuudDddddDDdddddDddDDDDDdDdDddDDdddduuuDDDDddddDdddddddddDddddDDdddDddu0u0uuuDDdDddDdDdddDdddddddDdDddddddddddddddddDDdddddddDddddddadDdDddddddDuuuDdDddDDDDdddD0uudddDddDDddddddDdddddDddDuuuddDDDDd#44Ddd#44DdDddddDDddgdDDDdDdDdDDdDdDddddDDdddduuudGGdDdDDddddDDddddDDdDddddeeededdDDDDdddduuuDDDddDDddddDIruDDDDDddDDDDdDdddDDdDDdddddDDdDdDdddddddddddDdddddDdIuuDdDDDDDDdDdddDDdDdddddddddddddddDduuuddDDddDddgdgdgdddddddddddddddddddDDddDdddDdddddddDdDdddddddadddddDDddaa0uuDDDDdddDDdddddaddd0u#44DDdddddDDDd#44dDGDDd#44DdDDdddDdDDddGgghuuDDDdDDDgG0xxggGyuudDdDdDdddDDddddDDduuuDGgg0xxgyxx0xxg0xxggyuuDddDDDddDdDDdDdDIuuDDDGG0x0GyuuDDDDGGHg0x0xy0xxggggggggg0x0GyuuddDDdDdDdddddddddDDDuxxDdDDdddDddddduuuDDddddddddddddddDDddddddduuuDddDDddDDdddddddDdddDDddddddddDdddDdduuuddDdDddddDDdddddddDDdddDdddddDdddddduDdadDuFDudDdDdDDDdddddfuuddDdddDDddGDad#74DD0uuddddDGgGggdDDddddddddddddddddddddDDGgdd0xxxx0uuDdddddddddddGgggggggg0uuDuuudDDdaddDDDedH0yyyuu0uuuDDDDdDdddddddddddDDDuxxDdDDdddDddddduuuDDdddddddddddddDDDDdddddduuuDdDDDddDDdddddDdddddddddddddddDdedDaDu#44dDddda#44uddddDE0uuudddd#44DddddddddDdDdddDdddddDddDdDdDdddddddddddddddiuuDDdDddDDDddDddddDdDdddddddDDdddddddddddddddddddddddddddddddDdddddddddddDdddddddddiuuDDDDdDdddDdddddddddddDDdddddDdddddDdddddddddddddDdddddddddFuuDdDDDdDDDDdDDdIuuDDdddd0uudddddddddIuuDddDDdddDddddddGdddddddddddddddDDiuuDDdddddDdDdddddduuuDddDDDDddddddDDDddddDdddDDdDuuudddddDDiuuDDDddddddDDdDDDDdddddddDdDddDdddDddddddddDDdddDddI0uuuD0uuddDdddddddddddDdddddddddDdddddddddDdddDddddddd0uudDDdddddddddddddddDdDddDdduuuDDDDDdDDDDDuuudDDdDDddDdddddddiuudDdddad#44DdDDddddDdDDdDDdddddddDuuudDDDDDDDuu0uuDDDuuuDDDddddDDDfuuddDdDDDDddDdDddddddDDDddDdduuuddDdDDDDddddiuuddddddddDdDdDDDdDDddDddDdDDDddddddddddddDdDiuuDDddddDDDddddDdDDddDDdddddDDdddddddddDdddd0uuddddddddddddDDddddddddddddDdddddddddiuuDDDDDddDDDdddddDdddddDDdDdddDdddddDdddddddddddddDdddddddddIuuDdDDDdddDaa0u0uuDddddDdDiuuDDDddddddDDdD#44DddddDddDdddddddduuuDdDDDD0uuDdDDDdddddDddddddfuuuDDddDdddDdddddDDdDddddddddddddDdddddddDFuuuDdDDDddDGGg0xxggGDd0uuDDDddddDDD0uuDddddDddddd#44dDDd#44DDddduuudd0uuD0uuuDDddddDD#470uuDDdddDdddddu0u0u0u#44AdDDddddddddddDddDddddDDdddddDDddddddDddddGdddduuuDddddDd#77xixuuDGDdDdDddgGGGGddDddddddddddddddddddddDDGgggggu0uuDdddgggGGhuudDDDGGGgggGggggGgGgggGgggggggGgyuuddDDdDdDdddddddddDDDuxxDdDDdddDddddduuuDDddddaddddddeddDDDdddddduuuDdDDDddDDdddddddddddDDddddedddDddDDdduuuddDdDddddDDdddddddDDdddDDddddDdddddduDdddDuIDudDDdDDDDdddddfuudDDdddDDdDgDDdadDDddADDDdDddddDdDDdduuudGGdDdDDDDddDDddddDDdddddDeeeddddddddddDduuudDDddDDddddDIuudDDDDd0uuDDdDdddDDdDDdddddDDdDdDdddddddddddDdddddDdf0uuDDdDDddddgddddgdddddddddddddddddddddddDdddDdddddddDdDddddddddddddddDdddddddddDdddddddduuuDdDddddddDdddDDDdedDDDdddDdDDDddddddddddddddddDDdddddfuuDdDddddddddddDddDddddDDdddddDDddddddDddddGdDDDuuuDdDddDdDDdDDdDdadDddDddddDDddddddddddddddddddddddddddddddddDdddddddddddddddiuuDdddDdDddDDdddDddddddDdDddddddddDDdddddddddDfuudddddddddDDddddDdDDdDdddDdDdddddddddddddddddDdddddddddddddddddDDdDddduuudDdDDAD0uuDddddddddDdDddDDdDDddDddDdDDD#44DDDDdddddddddddddDAd#44DDDDDdDdDdddddiuuddDdddDDddGDDdddDDDDDddDDdddd0uuudDDDDddDdDDdddddDddDdddDDddddddDdddddddddddddddddDDIuuDddDDDDDdDddddDDdddDddd0uuddddddDduuuddDDddDddgd0uxdddddddddddddddddddddddDdddDdddddddDdDddddddddddddddDdddddddddddddddddd#44DDdDdddddddddddddddDdddddddddadDdddddddDdddDddddaddgdddddddduudddddddddDdddDddaDdu#44DDdDddddDDdDDddddDdDDDddddDDdddddddddddaddddddddddddddddddddDddddDDdddDddDduufuuDdddDddddDDdddDddddddDdDddddddddDdddddddddddiuudddddddddDDdddDDddddddddDDDdddddddddddddDdddDddddddddddddddddddddDddduuuDDdDDDDddDdddDdddddDDdddiuuDddddddddddddDDddDddddddddduuuDDDddDDdDdddddddddiuudddDdddDeEdDDdDddddddDuuudDDDDDdDuuuDDDDDuuuDDDddddDDDiuudddDDDDDDdDdDddddddDDDddDdduuuddDdDDDDddddfuuddddddddDDDddDDdDdddDddDdDDDdddddddddddddddfuuDDdDddDDDddDdDDDDddDDdddddDDdDdDDddddDdddddddddddddddddddDDddddddddddddDdddddd0uuiuuDDDDDddDDDdddddDdddddDddDdddDdddddDdddddddddDdddDdddddddddIuuDdDDDdDDDDdDDdIuuDDdddddddddddaddddiuuDddDDddDdddddddgDDddddddddddddDddfuuDDdddddDD0uuDaddddDDduuuDDDddddddDDdDdDDddDDdddDdDddDdddDdddddddddDdddDddIuuDdddDdDdDDdDDddDddDDdDdDdddddddddddddddddddddddddddddddddDDdddADdIuudddDdDDddddd0uuddddDDddddddDdDDdddddddDdddddDddddd0uuddddddDDdddddddddDDddddddduuuDDDDDdDDDDDuuudDDdDDddddddDDDdFuudDdDDdDDddddDdddDDDdddd0uuDDDddDddddddddddddDdddddDdddDdddDdddDddDDuudddDdddddddddddddddddddddddddddadu0uuDDdddddDdddddddddddddddddDdddddddddddDdddddddddduxuDDdDddDdddddDDddDddddddddddDDddddddDDddDDddddddddddDdddddddiuudDDDDDDDDdddDddDDDDDDdDDDDDdddddDdddddddduuDdDDDddddddDDiuuDDDDad#44DddDddDD#440u0u0u0u#44uDdDdddDDd#44uDGFdDDa0uuDDDDddddfdddddfdddhda#870x0x0xxg0x#44DdddddddDdddDddddddDdddddddDDdddddddddddddddddddddddddddddddDdddddddddad#44DDDDdddddddDdddddddddddDdddddDDddddddd#44DdddDddDDDddDddddDddDddddddDDdddddddda#44uDddDDdDA#44DAD#44Ddddddddddd0uuddDDDdddddedDddddDDdddduuudGGdDdDDDdddDDdddDdDdDddddde0uudddddddddduuuDd0uvDdddddeeddDDddEDdDdddEeEDdDdDdddDDdddddddddDfuuDDddddDDDddDdDDDDddDddddddDDdddddddddDdddddddddddddddddddDdDdddddddddddDdddddddddiuuDDDDdDdddDdddddDddeddDDdDddddedeeeDeddddddddDdddDdddddddedIvuDdDDEddddddDDdiuudeedeDddddddddddddiuuDddDDdeedddddddheeeeedddddddddDddiuuDDdedddDDDdddddduuvDDDdDDDddddddDDDdddeDdddDEeeu#44DDDdD#44DDEEedEehh0yyggHyvudEDDDEddeDDdddddDduuuDGgggg0xyxxGgGGgggGGyuuDddDDDddDDdDdDdDIuuDDDGGg0xxyuudDDDGGGggg0xxgg0xx0xxGggggggg0xyuuDDDDdDdddddddddddDDDuxxDdDDdddDddddduuuDDddddddddddddddDDddddddduuuDddDDddDDdddddDdddddddddddddddDdedddDuuuDdddDddddDDdddddddDDdddDdddddDddddddDrAddDu0u#44DddddddDDddDdDDdddDDDDdddddddddddddFuuuDDdDddddDDdddddddddddd#44uddDddddDDgdddddddddDddddddddd0u#44udGGddDdDDDddedddead#44udDDDddDaD0yvveEeEEEeedd0uuDDddAddDdDdDdDDdDD#44DDdDdDDddDDdddDdDIuuDDDGGGGGgyuudDDDGGGg0xxgggg0x0Gxg0xx0xxg0xyuuddDDdDdDdddddddddDDDuxxDdDDdddDddddduuuDDdddddddddddddDDDDdddddduuuDdDDDddDDdddddDdddddddddd0uuddDdddDdduuuddDdDddddDDdddddddDDdddd0r0u0u#74uda#54udDDD0uxDda0uuuDdddd0uuDDDddDDDDddD0uuEddDddDDddddad#44uDdDddaa0uuudddDddf0uuDa#44DDDdddddddddddddDddddddddduuuDdDDdddDDdddddDdddddddddddddddDddddd#44uddDDdDddddddddddddDDuxxDdDDdddDdDddduuuDDdddddddddddddDddddddddduuuDddDDddDdddddddd0uuDDDDDdDdDdDdadiuuddDdddDDdDGDDdddDDDDDddDdDddddDdDDdduuudGGdDDdDDDddDDdddddDddddddDeedEDddddddddDuuuDDDddDDDdddDFuudDDDDddDDDDdDdddDDdDDddDDaDDdDdDddDddddddddDdddddddIuuDddDDDDDdDdddDDDDdddDDdddddddddddf#84udDDDGGGgg0xxgggdd0uuDdGGddDda0uuudDDDdddDDDDddddde0uuDDdddDDDDddddDdDDdddDddddddddddddDduuuddDDdddd0xu0uxdddddddddddddddddddddddDdddDdddddddDdDddddddddddddddDddddDdddd0uudddddduuuDdDdddddddddddddDEDddddDddDDDDDddab0uuuDdDdddddddddddddDddddDDdddddDDddddddDddddGdddduuuDddddDdDDdDDdDDdDdDDDddddDDddddddddddddadddddad0uudddddddddDddddDDdddDdddddiuuDdddDdDddDDdddd0u0uuudDDDddddDddddDddDDdDDdddiuuDdddddddddd0uudddddddddddedvruDDDddDDdDddDDdddddfuuaddDdd0u0u0uuDddDdDDdDDdDdDDddddddDDddDdduuuddDdDDDDadddfuuudddDDDddAdDddDDDDddDDdDDdDdDdddddddddddddddiuuAe0u0uuDdDDDDdDdddddDdIuuDDdddDdddddddddddafuuuDddDDddDdDdddddgddddddddddddddAd0uuDdDdddddAddddddddu0uuuddddDdDfuuDDDddddddDDdDdDDDdDddddDddddDdddDdddddddddDdddDddeu0uuuDdAeDDDdDDDuuudDDdDDddDdddaDDdau0u0u0uuuDddDDDdDddDdddddddddDdDDDdDddd0uxDdDDDddDdddddDddDDddddddddddDdddddddDDddDDddddddddddDddDddddFuuuddDDDDDDDdddDdaDDDDDdDddDDDdddddddddddddduuAD0uuudDDdDdDDdddDDDDadEDdddDDdgggGGg0uuIuuDdDddddddDDdddddddddd0uuDddDdadDddddddddDDDuuDdDdduuudDddddddiuuDDDDddddDDddDDdddDDDDdddddddddddddfuuuDDdDddddDDdddddddddddDDddDuuuDDAdddddddddddad0u0u#44ddDDDdddddDDddddddddDdddDDddddddDddd#44DdDDdddddda#44DDdDDddddGgdgdgdddddddddddddddddddddddDdddDdddddddDdDddddddddddddddDdddddd#44DdddddDDddddDdddeDdDdddddddd#44DDdddDddddddddddddddddddDdddddddDDddDddDuuDdddDddeedeeddddeeedeeddedeeededdduuuDDdDddDDDDdDDddddDddDdDddddddddddddddddDDdddddddDddddddddddDddddddDuuuDdDdddddddDddgdDdddDdddddDDdddDdddddDddDuuuddDDDDdDDDddddddddddDdDDDdDddDdDdDDdDDdddddduuudDDdddDdddddddddddddddddDdddddddddddDdddddddddduxudddDddDdDdddDDddDdddddddddddDdddddddDddDDddddddd0uuDdddddddiuudDDDDDDDDdDDdddDDDDDDdDDDDDdddddDdddddddDuuDdDDDddddddDDiuuDDDDddDddddDdDDDddDddiuuDDDddDDdDddddDDddddddDdDDdddDdG0xxg0xxGGGGggg0xxggggg0xxgg0x0DuddddddddddDdDDDuuuDDddDDDDdddDddDfuuuddDdDdddDddDDDDDdddddddddgggGG0xuDIuuDdDddddddDDddddddddddddDDDDdddddduuuDDDdddddddddddddDduuDDDdduuuddddddDdIuudDddDD0u0u#44DdDdDdDDDdDdddad#770x0x0x0xx#44DddDddddddddDd#44DDddDDDDDddddDdA#44udDDddDddeDDdddDDDduuuDGggggGgxxgG0xx0xxgyuu0yuDdDDDd#44DddddDdDiuuDDDddddddDDdDdDDddDDdddDdDddDdddDdddddddddddddDddi#770y0xx#44dDAd#44udddDddDDdddDddDDDddd#44Dddddddd#44uddDddDdddddddddDDDuuDDDdduuudDddd#74DD0uuDdDddgGGGGdddddddddddddddddDDDD0u0u0u0u0u0u0u#74uDgDdD0uud0xx0xuddddddddddddddddDDDdDddDggggggxxxgdDDdddddddddddG0xxggggggddDuuudDEeddDdDFffFGggy0uuDDdDddDdddddddDdDFuuDDDGGgG0xyuudDDDGG0xx0xxggG0xx0xxg0x0GxGgxuuDDDDdDddddddddddddDDuxxDdDDdddDddddduuuDDdddddddddddddDDDddddddduuuDddDDddDDdddddDdddddDDdddddddDdddDDdduuuddDdDddddDDdddddddDDdddDDddDdDddddddDuDddDuuIDEDDDDdDDDdddddiuuddDDddDDdd0uudddDDDDDddDdDddddddDDdduuudGGdDdDDDdddDDddddDDdDdddddeddddddddddddduuuDDDddDDddddDI0uudDdddDDDDDdddDdDDdddDddddddddddddDduuuddDDddDdggdddgdddddddddddddddddddDDddDdddDdddDDddDdDddddddddDDddddDddddedddddddDddddEvuuDdDdddddddddddDDdgdDGDdddDdDDDdddddddddddDddddDDdddddiuuDdDdddddddddddddDddddDDdddddDDdddddddddddgdddduuuDddddDDDDdDDdDDdDdDDDddddDDdddDddddddddddddddddddddddddddedDdddddedddddddddfuuDdddDdDddDDddddddddDdDdDddddddddDdddddddddddiuuddddDddddDDdddDDdddddddddDDdddddddddddddddddDddddddddddddddddddddDddduuuDDdDDDDddDdddDdddddDDdddiuuDdddDddd0uuddDdDdddddddDDdduuuDDDdddddDdddDdddddfuudddDdddDdDdDDDdddddddDuuudDDDDDDDuuuDDD0uuuuDEDddddDDDfuuddddDDDDDdDdDddddddDDDddDdduuuddDdDDddddddiuudddDDDddDdDddDDdDdddDdDDdDdDdddDDddddddddDDiuuDDddddDDDddddDdDDdddddddDdDDdddDDddddDdddddddddddddddddddDDddddddddddddDdddddddddiuuDDDDDddddDdddddddddddDDdDdddDdddddDdddddddddDdddDdddddddddIuuDdDDDdDDDddDDdiuudddddDddddDdddddddduuuDdDdDddDdddddddgDDdddddddddddddDDiuuDDdddddDDDdddddduuuDdEDDDDddddddDDDddddDdddDDdduuuddddDDDfuuDDDddddddDDdDDdDdeDDdddDDdddDdddDddddddddDDdddDddF0uuudddDddddddddddddddDdDdddddddddddddddddDdddDdddddddgdddDDdddddddddddddDddDdddDdduuuDDDDDdDDDDDuuudDDdDDddDddddDDdfuudDddddDDdddddDddDDDDDdddDddAddDdIuuDDDDddddDdddddddddDDdddDDddeDdduuudDDDFuuDdDDDddDdddddddddddddddDdddDdddDdddDddDuDudddDddddddddddddddddddddddddddddduuuDDdDdDDDDdddDddddDddDdDddddddddddddddddDDdddddddDdddddddddddddddddDuuuDdDdddddddDdd0uudddDDDDedDDddddDDdDdDDDDuuuddDDDDdDddddddddddddDdDDDdDddddDdDDdDDdDdddduuuDDddddDddddddd0uudddddddDdddddddddddDdddddddddduxuDDDDddDdDddDDddDDddddddddddDDddddddDDddddDddddDDdddDdddddddiuudDDDDDDDDdddDddDDDDDDdDDDDDdddddddddddddduuDdDDDddddddDDiuuDDDDddDddddDdDDdddDddiuuDDDddDDdDddddDdddddddDdDDddddDHgg0xxgG0x0xxgG0x0gx0x0wy0x0GuddddddddddddDdDDuuuDDddDDDDddDDddDiuuddDdDdddDddDDDDDddddddddd0xxGGggDDIuuDdDddddddDDddddddDdddddDDdddddddduuuDDDddDDddddddddddDuuDDDdduuuddddddddFuuDDddddddDDdDDDDdddDDDdddddddddddddfuuDDdDdDddDDdddddddddddddddDuuuDDddddddd0uuddDdDDdDdDddddddDdDddddddddddddDdddddddDDuuuDdDDDddDGGggg0xxGggz0uuDdDddddDDgdddddddddDddddDdddddddddiuuDdDdDddddddDDddDdDdDDdddDDd#44dDDDDDDAD#770x0x#44udDdddddDDDiuuDdDdDDDDDdDdDdD#44uDDDddd#44DDdDdDddDdddddddgd0uuddddddddddDddfuu#44uDdDddDdDDdDDddddDdDDDddddDDddddddddddddddd0uudDddddddddddddDdddddDdddDddd0u#440ux0rudDDDDddDDdddDdDdDdddDeeededdddDDdddduur#44DDD#54DdDddduuudDdd#470xxddDdddddddddddGgg0xxggggddDuuudDDdddDDDDedAG0xyuuDDDdDDDgGGg0xxyuudDdDdDdddDDddddDDduuuDGggggGgxxxgGGGgg0xxxuuDddDDDddDdDdDDddduuuDDDGG0uxxuudDdDGGGg0xxgGgggG0xxggg0xx0xxuuddDDdDdDdddddddddDDDux0uuDdDddDddddduuuDDdddddddddddddDDDddddddDuuuDdDDDddDDdddddDddddddddddddddddDddDaduuuDdddDddddDDdddddddDDdddDDddDdDddddddDrDddDuuIDuD#44dDDDdDdddDd#84DdDDDd#44DdDDdddddDddddDdDDddDDdddiuuDddddddddddddddddDdddddddDDuuuDDDddDDdDdddddddddiuudddDdddDeDdDDdDddddddDuuudDDDDDDDuuuDDDDDuuuDDDddd0uuD0uuddddDDDDDdDdDdddddddDDddDdduuuddDdDDDDddddfuudddDDDddDDEddDDDDddDDdDDdDdDdddDDdddddddddDiuuDDddddDDDddddDdDDddDDdddddDDdDdDDddddDdddddddddddddddddddddddddddddddddDdddddddddiuuDDDDDddddDdddddDdddddDDdddddDdddddDdddddddddddddDdddddddddFuuDdDDDdDDdddDDdiuuDdDdDdddddDdddddddiuuDdDdDddddDdd0uuDddddDdDiuuDDDddddddDDdDDdDddDDdddDdDddDdddDdddddddddDdddDddI0uuDDdDDddddddddddddddDdDdddddddddddddddddDdddDdddddddgddddDdddddddddddddddDdDa0u#44DDDDDDdDDddda0uuDd0uuDdddDDDDDDDDDdDDddddDDdda0uuDDDddddddddddda0uuDDD0uuuDd#44DDAD#44DdDDdddDdDDdd#44DdDDDDddDdDDdddddDddDDddDDdddad#44uDd0uuDdDDdDdDDddddda#44DddddddddddDddddDDddDDdDDdAd#770x0x0x0x0x0x0x#44ddDDDdddAD#64DDdddddddddddDddDdDDddddDDDd#44uddDDdddddgddd0uudadddd#44uDDdDDddddDDAa#44ddDddd0uuDddDdDDDDdD0uuDd#44DDdDDd#44fdDDDfdedfFDddauvddduud#84DDGddDDDDd#44Ddddddddddd#44DDddddDddddddddddddduuuDdDdDddDdDddddd0vudDddddddddddDddduuuDDdddddDDDddddddr#44ddddDDDDDDDDDdDDdddddDddDddDdddddddddddddduuDDDDDddddddDDiuuDd#44DDDddD#44DddDDd#44DddDDdDddddddd#44DdEDDddd#44DDddDdDddddDdddddddddDdDDDdddDdDDDDd#44vDDddDddddd#41udDDDdd#47GddDDdaa#44DdDDddDDdDddddddddddddDDDDddddD0xxggGg0uu#44DdG0uuDdDDDdddddddddDddddddEeedEDdddddddDiuudDDddddddddDiuudDDDDddDDDDddddddddDdddDDddddda#44DDdDDddddGddddgdddddddddddddddddddddddDdddDdddddddDdDdddddd0uudddddDdddddddddddddddddduuuDdDdddddddDddDDDaedDDddDddDDDDDddddddddddDddddDDdddddiuuDdDdddddddddddddddddddDdddddDDddddddDddddGdDDDuuuDddddddDDdDDdddddEdeEedddDDdddd0uuddddddddddddDddddddddddddDddddDDdddd#44DddDddDdddddddddDDduuDDDdduuuddddddDdIuuDDDDdddddD#74DddDdDDDDddddddduuudDDDddDDDduuuDDddddfuuDDdDDdDDGdddddDDdDDddddDddddddd#44DdDDdDDDdDduuudDddddiuuDDdDDdDDgdDddDdD0uuddddDdddddddddIuuDdddDddddDDDDdddd#44dDDd#74DDGDdDDdad0uuDdGgggdd#44DddddDDddddddddddddDDuxxDdDDdddDddddduuuDDdddddddddddddDDDddddddduuuDddDDddDDdddddDdddddddddddddddDdddDdduuuddDdDddddDDdddddddDDdddDdddddDdddddduDdddDuauuudDdDdDDDa#44DddDddDdddddddddDDd#74uDgDdDDdddg0x0uudddddddddddddddDDDdDddDD0xxggxxxgdDDdddddddddddda#45ddDa#44udDDddd0uuDgDDddDDD#740u0u0u#44DDDdddddD#54vEaD#77x0x0x0x0x#44DdD#55veEEeeEeeEEEeeddddDuuuDGggggGgyxxGgGGgggdD#54Dedd#44uDDdadDDdDDDu#44EDDeDDdd#770x0x0x0x0x0x#44DddddDDddddddddddddDDuxxDdDDdddDddddduuuDDdddddddddddddDDDDdddddduuuDddDDddDDdddddDdddddddddddddddDdddDdduuuddEdDddddDDdddddddDDdddDDddDdDddddddudddduDIDu0uuDdDdDdddddfuuddDDddDDddGDDdddDDDDDddA#44DdDddddddddgDDddDDDddddduwFddddddad#44DdDDDddDdDDddGgdD#44dDddDdddd#47Dddddad#44uDdDdDdddDdddddddfuudDdddddddddddDddDDdDDddDDddddddDIuuDDddddddddddddddddDDdddDDdddDdduuudDDDFuuDDDDDddDdddddddddddddddDdddddddDDddDddDuDrdDddddddddDdDdddddddDdddddddddddduuuDDdDDDDdDDdDdddddDddDdDddddddddddddddddDDdddddddDdDdddddddddddddddDuuuDdDdddDdddDdd0uudddDddddddDddddDDdDdDDDDuuuddDDDDdDddddddddddddDdDDDdDdDddDdDDddDddDddduuudDDdddDddddddddddddddDdDDddddddDDdddDdddddddddDuxudddDddDdDdddDDdDDdddddddddddDdddddddDddddddddddddddddddddddiuuddDDDDDDDDDdDddddDDDDdDDDDDdddddddddddddduuDdDDDdddDDdDDiuuDDDDddDddddDdDDdddDddiuuDDDdDdDdDddddDDddddddDdDDdddDd0xxggg0xx0uxggGG0xx0xxdgGG0xuddddddddddddDDDDuurDDDdDDDdddDDddDfuuddDdDdddDddDDDDdddddddddd0xx0xxDDFuuDdDddddddDDddddddDdddddDDDDdddddDuuuDDDddDDddddddddddDuuDDDdduuuddddddDdIuuDDddddddDDddDDDDDdDdddddddddddddddfuuDDdDdDddDDdddddddddddddddDuuuDDdddddDdddddddduuuDddDDDdDDDddDddddddDddddddfuuuDDddDdDdDdddddDDdDddddddddddddddddddddDFuuuDdDDDddDGGg0x0xxggyuudDDDDdDDdDDdddduuudDDDddDDdduuuDDddddfuuDDdDDdDd0uuddDdDddDddddDdddddddddfuuDdDdDdddddddDddDdDDdddddDDd#770x0x0x0x0x#44DDDDddDdg0xxg0xxyuudDdDDDdddDDdddddDduuuDG0xxGgxxxGgG0xxggguuDddDDDddDdDDdDdDFuuDDDGGGGGguudDDDG0xxgG0xxdd0uuDDDddDddddDDdddddddDDdddddddDa#55Dad0u0u0uuDDdDeDDddddddfuuueddDDDddDDDddDDddd#44Dda#74DDDDdDDdddgGGGGdddddDDDdaA0xxGddDDddddDDddddDGgGg0x0xuddDuuud#44DDDDdddddddddddddDGDgGdddddDDDDDda#47uDDDdddDdddddDDDdDddddDdddDdddddddDddDddddddddddddddddddddddduuudDDDDDDDDdDDdddDDDDDDdDDDDDdddddddddddddduuDDDAA#54DeeEdD#44DdDDddddddDDdDDdddddddduuuD#770x0x#44DDdDddDddd0uuua0u0uuDDDdddddddddaD0uuDddDDDdd0u#44DdDDddddddDDdDDdddddddd0uudDdDDddddDddddddGdddd#44DddDddddddddddddddd#44DDDddddDDDDdddDD#44dDDD#44DDdDdDdddDddDDDDDddddddDDd0uuD#44DDdddddddddDdDDdddDDDDdddddddddddddiuuDDdDddddDDdddddddddddDDdDduuuDDDddddddddddddduuuDddDDDddDDdDDDdddddDdddddDfuuDDddddDdDdddddDDdDddddddddddddDddddddddfuuDdDDDddDGG0xxgggGGgx0uuDDDddddfuuDDdDDdDdgdDdeEdDddD0uudDdddDDdDDdIuuDddddDdddDDDDddddDdDDdddDDd#44udDDdddddDdddddddiuudDdddddddddddDddDDdDDdDdDdddDddDIuuDDAdddd#44DdddddddDdddDddddDdDdddddddDDdddddddddddddddddddddddddddddddDddddddddddddddddddddd0uuDDDDdDdddDddddddddddddddddddDdddddDdddddddddddddDdddddddddIuuDdDDDdDDDddDDdiuuDDddddddddddddddddiuuDdDdDd0uuddddddGdddDDddddddddDDdDiuuDDdddddDDDdddddduuuDdDDDDDdDddDdDDd0u#44DdDDDDDDA#44DDddddad#44dDdDDdDdA#44DDdddd0u#74uDgDdDdDddG0xxddDddddddddddddddddddddDDHeH0uxxxxgdDDddddddddddd0xxgggggGddDuuudDDddD#44DEDdddvuvdDdddddDAD#55EAA#44Ddd#44DdDDDdddddDddiuuDdDDdddddddddDDdddDddiuuDDDdDdddDddddDDddddddDdDDdddddGg0rxG0xx0xxgggGg0x0gxgggggg0xudddddddddddDdDDDu#64DDDA#74DDGDDd0uuDd0ur0u0uuDdddDdDdDDDdddDD0uuD0uvDdD0uuDdddddDDDD0uuDdDDdDda0uuudd0uuDDD0uudDA#44udDDDDDDDddDDdDdddddd#44ddDDDDDD0uudADdDDDDDD#44udDDDD#44uDDDGGgGGgyuudDdDGGGg0xxggggGgGgggGgggggggGgyuuDDDDdDddddddddddd#47uuddDD0uuD#44ddgDDddDdD0xx0xudDddddddddddddedddddddDDGggg0x0xxdd#77x0x0x0x0x0x#95vdeDA0zvvEdEeDD0vvdd#770zuuDgddDDdddgGgG0uudddddddddddddddDdDDddddggggggu0x#44DDdddDddddDDddddddddDdAd0uur0u#44DdddDdDDDDdDDdAd#44DDddDDDddddDdddddddddDdDDDdDdDddDdDDdd#44DddDdddDDdDa#44DDDDdddddddddddddDHddGddddddDDDdddddddddddddddddddddddiuuDdDdddddddddddddDddddd0uuDddddddDdddddddddDdDdddddddddDddddddddddddddddddddddddddddddDddddDDdddDddDddduuuDddddDDddDDdddDddddddDdDddddddddDDDdddddddDdIuudddddddddDDdddDDdDDdDdddDdDdddddddddddddd#44DDDDdddddddedDdad#44DdddddddddddddDDdDdDDDDdDdDddddDdDDdduuudG0uuDdDDDddDDddddDDdddddDeeedEDdddddddDiuudDDddDDddddDIuudDDDDddDddDdddddDDdDDdddddDDdDdDdddddddddddDddddddDDu0uuDdddDdDDdddddddddDdddDddddDDdddddddddddddddddddDddddddddedddDddddDDdddddddddfuudDdddd#44udddDddddddDdDDDdDdddDddDdDdDddddddddddddDdDiuuDDddddDDDddDdDDDDdddddddddDDdddddddddddddddddddddddddddddd#44DDDDDddddddddDdDddDad#55eEeddedd#44uDad0uuDdDDddDDgGGggggGyr#44rDDEDDaa#44dDddDDddDDdddddDdddddddddddddddDddddDDuuuddDdDddddDDdddddddDDdddDDddddDdddddduDdddDuduuudDDDdDdddddddf#14uDDadDDDddad#44DddddDddddddDDdd0uuuDDdDDddddDDDddDdDdDddddDddddDdddDdddddddddddddDddiuuDdddDdDdDDDDDddDddDDdDdDdddddddddddddddddddddddddddddddddDddddDDdIuudddDdDDddddddddddddDDddDDddDddDdddda0uuuDddDDdDDddddDdddDDDddddDDddddddDIuuDDddddddddddddddddDDdddDD0uuDdd#44uDdD#77iuuDGDdDDddDgGg0xuddddDDDdddddddddDDDDddDDgggggGxxgdDDdddddddddddG0xxggggggddDuuudDDdddDdDDedHh0yyvuEEEeEEEhHHhhh0uu#44DddD0uuddddDddDDDdheGGDdddDdDDDdddddddddddDddddDDddeddiuudDDddddddddddDddDddddDDdddddDdddddedddddDgdddduuuDddddDDDDdDDddddDdDddddddDDddddddddddddddddddddddddddddddddDdddddddddddddddiuuDdddDdDddDDdddDddddDddddddddddddDddDddddddDdIuudDddddddddddddDDddddDdddDa0uuudDDdddddddddddddddDdDdddddddddddddddddDdddDddddddd0uudDDddddddddddddddDDdddddDduuu0uuDddDDDDDuuudDDdDDddDddd0uudiuudDddddDDdddddDddDDDDDdDdDddDDdddiuuDDddddddddddddddddDDdddDDdddDDduuudDDDIuuDDdDDddDdddd0uuddDdddddDdddDdddDdddDdd0uuuDDdDddddddDdDdddddddDdddddddddddduuuDDdDDDDDDdddDddddDddDdDdDdddddddddddddddddddddddDdddddddddddddddddDuuuDdDdddddddDddddDdddDddddddddddDdddddDddDuuuddDDDDdDddddddddddddDdDDDdDdDddDdDDddDddDddduuudDddddDddddddddddddddddDDddddddDDdddDdddddddddFuuuDddDddDdDfda0uuDaDDDDDDEDDDdDddDDDDDDdEEddDdddddeddddddeeuuDDDDDddddddDDivuEDDDdddddddddDDddddddiuvDDDdDdEdDddddEdddddddEdDDdddDdgggh0xxg0xx0x0g0Hx0xxgg0xxgg0xxddddddddddddDdDDDuuuDDddDDDdddDDddDfuuddDdDdddDddDDDDDdddddddddg0uu0u0u0u0uuDDDddddfuuvDDedddDDhdEeDdddddDddddDdd0vuddddiuuDeDdDdddddddDedDdEDddfddDDd#44DddddD#44uddDddddddDDddddddDdddddDDdddddddDuuuDDDddDDddddddddAD0uuDdddeddDdFuuDDdD#44DDDDdddddDDddddDDDHdGGddDdddfDDDddddddddddDddddDDdddddiuuDdDddddddddddDddDddddDDdddddDDdddddddddddgdddduuuDdddadDDDdDDdddDDdddDddddDDddedddddddddddddddddddddddddddddDddddDDdddDAddduuiuu0uuDdDDddddddEDdDDdddddddduuudDDDDDDduuuDDddDuuuDDdddddDDDiuuddddDDDDDdDdDddddddDDDddDdduuuddDdDDDDddDdduuudddDDDddDdDdDDDdDdddDddDdDDDdddddddddddddDDiuuDDdDddDDDddDdDDDDddDDdddddDDdDdDDddddDdddddddddddddddddddDDddddddddddddDdddddddddiuuDDDDDadDDDdddddDdddddDDaDdDdDdddddDdddddddddDdddDdddffDddfF#54DDdDdddDdDdddddedDdDddddddDDddddddddddddddeeddddddddddedddddEdddddedddddedddiuuDdddDddDdDDddddddddDdddddddddddddddDddddddDdiuudDdddddddDDddad#44DdddDddDDa#64uDdDdddDddddddgdddddDddDDdDDdaddDDdddDddDuuuddDDDDdDDDdDddddddddDdDDDdDddddDdDDddDddDddduuudDddddDddddddddddddddDddDdddddddddddDddddddddddu0uuddDddDdDdddDDdd#44DddDddDdddddddDda#44DDDdddadDDDdDDDdddDDDDdddddddddddddd#44uddddDdDdDDA#74DDgDdDdDddgGGG0uudddddddddddddddddDDddDDGg0xxgxx0xuDDdddadDddddd0rx0xxgggddDuuudDDdddDDDDddG0xxyuuDDDdDD0uuddDdDddDddddddDuuudDDDdDDDDduuudDddddfuuddDDDdD#44DdDdddddddDDdddDDdDDdDdddDdDdddddddddddddddddDdddddddddddddddddDDdDddduuudDdDdDDdDddddDdDdddd#44uDDdddddddddddddDDd#44uDDDd#44ddDDddDDdDddddDdddddddDDDDdddDdGg0xuD#84DdDDD#44dDDdDddddGgdgdgdddddddddddddddddddddddd#44DdDdddddddddddDd#44DdDDdDdd#44DdDDDDddDAD0uuD0uuDDdddd0u0uuddddD0uuDdDdDDDDddad0u#44dddddDddd#44DdDDddda#44dDdddddddddddDdDddDdddiuuDDDdDdddDddddDDddddddDdDDdddDdGggggGgGG0xxgg0xxggg0xxgggGGddddddddddddddaDDuuuDDddDDDdddDDddDiuuddDdDdddDddDDDDDdddddeddeggdd#770x0xx0x0x#84uddd#44Dad0u0uuddDDDddDDddddddDuuudddDDDdDDdu#44DDDDddddddDdad0uuDdDDdDdDdDDdDDdDDDDdddddDdggGgGggDDFuuuDdDddddddDDddddddDdddddDDdddddddduuudDDddDdddddddddDDDuuDDDdduuuddddddDDAu0uuDDdDDDd0uudDdddDdddgggggggdd0uuDDdddddddddddDddDdDDdddddDDd#44uddD#44DddDdDdDdDDduuudDDdDDddDdddddDdfuudDddddDDdddddDddDDdDDdDdDddDDdddiuuD0uuddddddddd#87xDd#44Dda0uudd#44DDddDddDDddddDdddDDDddddDDddDDdddIuuDDDDddddDdddddddddDddddDDdddDdduuudAd#44DdDDDdddda#44DDDDdddddDddddddddddddDdDDdddDdGggggGgGGG0x0xxgg0xxggg0xx0xxGddddddddddddDdDDDuuuDDddDDDDdddDddDiuudDDdDdddDddDDDDDdeddddddddggGGggDDIuuDdDddddddDDddddddddddddDDdddddddduuudDDddDdddddddddDDDuuDDDdduuuddddddddFuuDDDddaddDDdDDDdddDDDDdddddddddddddfuuuDDdDdDddDDdddddddddddddddDuuuDDdddddDdddddddduuuDdddDDddDDdDDDdddddDdddddDfuuuDDddddDdDdddddDDdDddddddddddddDdddddddDFuuuDdDDDddDGGggggggGGgx0uudDDddddiuuDDdDDdDD0uuaDdDDdDDdDddDdddDDddDdIuuDdddDddddDDDDddDdDdDDdddDDd#44DddDdddddFuuDDDDddddDDddDDdddDDDDdddddddddddddfuuuDDdDddddDDdddddddddddDDddDuuuDDDddddDdddddddduuuDddDDDdDDDddDDddddddddddddduuuDDddDdDdDdddddDDdDddddddddddddddddddddDFuuuDdDDDddDggggggggGggyuudDDdDdDDdDDdddDuuudDDDddDDdDuuuDDddddiuuDDdDDdDDgdDdDddDddDddddDdddddddddduuuDdDdDdddddddDddDdDDdddddDDd#84DAD#44uudddDddddddDdd0uuDDdddDddd0uuuDDdDDdddddDDddDdDddd0u0u0u0u0u#44DDdDdDddAd#84DDDDD0xxggg0xxggGgGggg0xxg0xxgG0uuD#44ddDddddDDgdddDddd#44uDdddDDdDDdad0u0uuDA#44DdDDA0uuD#77xg0x#44DddD#44DdDfddddA#44DEDddddiuuddDDddDdgdDdAd#44udDdDdd0uvDDdDdDDeDDdDDd0vuEeeeeDdddEddD0uuddDdDdDDDdDA0uuuDd0uuDad0uuua#44DDddduuuddddddddIuuDDDddDDdDDdDDDdddDDDDdddddddddddddFuuDDdDdDddDDddddddddd0uudddDuuuDDdddddDdddddddduuuDddDDDddDDdDDddDdddDdddddDfuuuDDddddDdDdddddDDdDddddddddddddDdddddddDFuuuDdDDDddDG0x0xxGggxuudDDDDdDDddddddDuuudDDDDdDDDDuuuDDddddiuuDDdDDdDdGdddddDDdDDdDdd0u#44DDDddDdddddDDddDdDddddddDddddDdddDdddddddDddddddddfuuDdddDdDDDdddddDDdddDdDdddddddddddDddddddddddddDddddddDddddddddDDdFuudDdDdDDddddddddddddDDddddddDAD#44uDD#44DddDddddddddDiuudDDDDddDddDdddddDddDAdddddDDdDdDddDddddddddddddddDDIuuDddDDDDDdDdddDDDDddDddddddddddddDduuuddDDddDdgdd0uxdddddddddddddddddddDDddDdddDdddddddDdDddddddddDDddddDdddddddddDdddddddDuuuDdDd0uuddedddDDDDDDdgDdddDddDDddddddddddd#47DdddDddDdDddDDddDDad#44DDDdd0uuDddDddDdddddddddddDddddddddddddddduuuDDDdddDddddddddddd0uudDDddddiuuDDddddDdgdDddDdDddDddddDdddddddddFuuDdD#770xx0x0x0x0xx0xx#44DddDd#770x0xx0x0x0x#880y0y#44DdDA0u0uuDddDddddddaddddddDddddDdddDddddddduuuDDDdddddddddddddDAu0uuDddddddddi0uuDDDdDdDddDDdddddddddddDDddDuuuDDddddDDdddddddduuuDddDDDdDDDdDDDdddddDdddddDfuuuDDdaddDdDdddddDDdDddddddddddddDddddddddfuuuDdDDDddDGGgggg0xx0uu0uuDdDDdDDDDdDu0uuDDDdDDdDdGdddDdDDddDdaddddddDDddDdIuuDdddDddddDdDDddddDdDDdddDda#44DDddfDuu#44udDddD#44uuvEeeEEEaeEEFEeEEeEdD#44DdDDDddD#44DDddggdd0uuDDDdD#44DdddddddDdddDddddEdDd0uuddddddddddddddddddddddddddddddddddddDdddddddddddddddddddddfuuDDDDDddddDdddddDdddddDddDdddDdddddDddddddddd0uudDdddddddddIuuDdDDDdDDDddDDdFuuDDddddddddddddddddiuuDddDDddddddddddGDDdddddddddddDDDDiuuDDdddddDdDdddddduuuDDDdDDDdDddDdDDddddd0uudDDdduuudddddDDiuuAEDddddddDDdDDDDDdDddddDdDddDdddDddddddddd#44DDddDdDddddDdddddddddDdDDDdddDdDDddddddddDddduuudDddddDddddddddDDddddddDDddddddDDdddDdddddddddFuxudddDddDdDddDDddDDddddddddd0uuddddddDDddDDdddddDDdddDddDdddda#44udddDdDDddda#44DDDDDdDdDdddd#44DDDDDdd#44DDD#44DdGGdd#44DDDDDDD#44DDdDDddddGgdgdgdddddddddddddddddddddddDdddDdddddddDdDddddddddddddddDddddDddddddddddddduuuDdDddddddddddDDDDHDggDdDddDDDDDddddddddddDdddddddddddiuuDdDdddddddddddddDddddDDdddddDddddddddddddGdDDDuuuDdDddDdDDdDDddddDdDddddddDDddddddddddddddddddddddddddddddddDdddddddddddddddfuuDdddDdDddDDddddddddDddddddddddddDddDddddddDdFuudDddddddddddddDDdDDdDdddDdDdddddddddddddddddDdddddddedddddfdddfddDdfduuuudDdDDDDdDddddDddaddDddddiuuDdddDddddddddDdddDeddddddEduvuDDDddDDdDddDDdddddiuuDDdDdddDeEDdDDdddddddduuudDDDDDDeuuuDDddDuuuDDddddfDDDIuuDDDdDDDDddDdDddddddDDDddDdduuuddDdDDdddddei#44dddDdDdDdDddDDdiuud#44DDdddDdA#44ddddddddddddddddDdDDdDdddDdDdddddddddddddddddDdddddd0uudddddddddddDddduuudDdDDDDddDdDdddddddDDdddiuuDddddddddddddDDddDdddddddDduuuDDDddDDdDddDDdddddiuudddDdddDdDddDDdd#44DDdDdDDddDDdddDdDIuuDDDgggg0xyuudDDD0uu0u#44DDdddDdDddDdddddduuuDddDDDDddddddDDDddddddDdDdDDuuuddd#44DDdDDddddGddgdgddddd#44uddDDddddgdddd0uudddddddddddddddddddddDdddDdddddddDdDdddddddfddddddDdddddddddd0u0u#44DD0uud0uuDddddDda#74uDgDdDdDddgGGGgdDDddddddddddddddddddaddDggGggGxxgdDDdddddddddddGgGgggggggddDuuudDDddddDDDddGGggyur#44DDdA0uuDDddDd#44dddDddDdDDdDDddddddDdDDddDDduuuddDdDDDDddddfuudddDDDddDdDdDDDdDDdDDddDdDdDddddddddddddDd0uuDDDdDDddddDDDddDdDddDdddA#46Dddd#44DDdd#44uDDDdDDDA#44uDdDddDdDDdDDddddDdDDDddddDDddddddddddddddddddddddddddddddddDdddddddddddddddiuuDdddDdDddDDdddddDddDdddddddddddddddDddddddDdIuudddddddddddddddDdDDdDdddDdDdddddddddddddddddddddddddddddddddddddddddduuudDdDDDDdDddddDdddddDDdddiuuDddddddddddddddddddddddddeduvuDDDdddddddddDdddddiuuDDdDdddDeEddDDDDdddddDuuudDDDDDDduuuDDddDuuuDDDddddDDDiuuddddDDDDDdDdDddddddDDDddDdduuuddDdDDddddDdiuudddDDDddDDDddDDDDdddDdDDdDdDdddDDddddddddDDiuuDDddddDDDddDdDDDDddDddddddDDdddddddddddddddddddddddddddddddDdddddddddddd0uuddddddfuuDDDDdDdddDdddddddddddDDdddddDdddddddddddddddddddddddddddddIuuDdDDDdDDDddDDdFuuDdDdDdddddddddddddduuuDdDdDddDdDdddddgddddddddddddddDddduuuDDdddddDDDddddDduuuDddDDDDddddddDDDdddddDddDDdduuuddddDdDiuuDDDdda0uuuDdddDdDdDdDDDddDddDDdDdddddddddddDdddddddddddddddddddDddddddddDDdiuudDdDdDDdddddddddddDdDdddddddddDdddddddDdddDdddddddgdddDDdddddddddddddDdddDddDdduuuDDDDDdDDDDDuuudDDdDDddDdddddddfuudDdddddddddddDddDddDDdDdDddDDdddiuuDDdddddddddDdddddddddddDDdddddduuudDDDFuuDDDDDddDdd0uuddddddddddDdddDdddDdddDddDuDudddDddddddddddddddddDdddddddddddduuuDDdDdDDDDddDDddddDddDdDddddddddddddddddDDdddddddDdddddddddDdddddddduuuDdDdddDdddddd0uudddDddDDddddddDddddddddduuuddDDDdDdddDdddddddddDdDDDdddDdDDdddddDddDddduuudDddddDdddddddddddddddddDdddddddddddddddddddddduxuDDDdddDdDdddDDddDdddddddddddDddddDddDddddddddddddddddddDdddiuudDDDDDDDDddddddDDDDDDdddDDDdddddddddddddDuuDdDDDddddddDDiuuDdDDdddddddddDDdddDddiuuDDDdDdDdDddddDdddddddDdDDdddDdG0x0g0GxGG0xx0xxggg0xx0xxg0xxddddddddddddDdDDdu0uuudDDdDdDddddDDDDdddddddddddg0xxggDDIuuDdDddddddad0uuDddDddddddd0u#44dDDDdddddddddddddDDDdDddddDdDDDdddddd0uuddDddddDDdddddiuuDdDdddddddddddddDdddddDdddddDDddddddDddddGdDDDuuuDdDddddDDdDDdDDdDdDDDddddDDdddddddddddddddddddDddddddddddddDddddDDdddDddDddiuuDddddDDddDDdddDddddDdDdDddddddddDDDddddddddDfuudddddddddddddddDdDDdDdddDdDddddddddddddddddddddddddddddddddddddddD0uuuuudDdDDDDddDdddDdddddDDdddiuuDdddDddddddDdDDddddDdddddDduuuDDDddDDdDdddddddddiuudddDdddDdDdDDdDddddddDuuuA#44DddDd#87x0xxgggdd#44DddddddddddgDDddDDDdedddDDddddeddDEdduuud0xuDDdDDDddDDddddDDdddddDddedeDDDddDdddduuudDDddDDddddDiuudDDDDddDDDDdDdddDDdDDdddddDDdDdDdddddddddddddddddddiuuDddDDDDDdDddDdDDDd0uudddddddddddDduuuddDDddddgdagd0uudddddddddddddddddDDddDddddDDdDDddddDddddddddDDdddDDddddddddddddDddddDuuuDdDdddddDDddddDDDGdDDDdDddDDDDDddddddddddDddaddddddddiuudDDddddddddddDddDddddDDdddddDDddddddddddD0uudduuuDddddDDDDdDDdDdDDdddDddddDDdddDddddddddddddddddddddddddddddDddddDDdddddddddfuuDddddDDddDDdddDddddddDdDddddddddDDddddddddddIuudddddddddDDddddDdDDdDdddDdDdddddddddddddddddddddddddddddddddddDDdDddduuudDdDdDDdDddddDdddddDddDdfuuDdddDddddddddDdDdddDddddddduvuDDDddDDdDdddddddddiuudddDdddDdDdDDDdddddddDuuudDDDDDDduuuDDddDuuuDDDddddDDDfuuddddDDDDDdDdDD0uuDddddddddDdDdddDdDdd0uudDdDdDddddddddddddDdDd#44DDDddddDAd#44DDdDdd0uuDdDDdGGGgggad#44DddD#44dAD#44DDDddAu0uuudddDdd0uudda#44uDdDdDddDddddddd0uudddddddddddddddiuuEDdddddDDDdddddduuuDddDDDDddddddDDDddddDdddDDdduuuddddAd#74DDgDdDdDddA#44uddDdddDDddGDDdddDDDDDddDD#44uddDdEdedduuuDDedDddddDdDDDDDddDDDdddddddddddddfuuuDD#770yvdDdaddDDdddddGgGdgggggGddDuuudDDdddDdDEedHh0yzvvEEDeEDEh0yyhh0yyvveEeEdEeddDEeedDDDdvuuDGgggg0yyxxgGG0xygggyuuDddEDDddDdDDdDdDIuuDDDD0xxGGyuudEDEH0yxhhG0xyhGgGhh0xxg0yxhgGhzvvdeEDdDdd#44DdDDuuAd#44Dddddddd#44udddDddddddDdddDdDdddDddDdDDDdddddddddddddddiuuDDdDddDDDddDdDDDDddDDdddddDDdDdDDddddDdddddddddddddddddddDdDdddddddddddDdddddddddiuuDDDDDddddDdddddDdddddDddDdddDdddddDdddddddddDdddDdddddDdddIuuDdDDDdDDDDdDDdIuuDDddddddddddddddddduuuDddDDddDdDddd0uuuDDdDA0uuDdDDDDdDDddddddDddddDdddddddddddddDddddDDdddddddddddddDddddddddDDdiuudDdDdDDdddddddddddDdDdddddddDdddddddddDdddDdddddddgdddDDdddddddddddddddDdddDDdDuuuDDDDddDdDDDuuudDDdDDddDdddddddfuuD0uudDdddddddDdddDddddDdDddDdDdddddddddddddddDdddddddddddddddddDdddddddDuuuDdDdddDdddDddGdDdddDddDDddddddEdddddDddDuuuddDDDDdDDDddddddddddDdDDDdDdDddDdEDDDDdDdddduuudDddddDdddddddddddddddddDdddddddddddDdddddddddduxuDDDdddDdDdddDDDdDddddDddddddDddddddDDddDEddddddddddDdddddddiuudDDDDDDDDdDDddddeDEDDdDDddDdddddddddddddduuDDDDDdddDDdDDfuuDDDDddDddddddDDdddDddf0uuDDdDdddDddddDDdddddddddddddDd0xxggggg0xxGgggg0xxgggggg0xxgg0uuddddddddddDdDDDuuuDDddDDDDdddDddDfuuudDDdDddddddDDDDDddddddddd0xxGggDDIuuDdDddddddDDddddddDdddddDDdddddddDuuuDDDddaDDdddddddDDDuuDDDdduuuddddddddi0uuDDdDDDDdDDDdDDDdddddDddddddfuuuDDddDdddDdddddDDdDddddddddddddDdddddddDFuuuDdDDDddDGGgggggg0xxxuudDDDDdDDdeeeaeEu0uudDDddddiuuDDddddDDgdDddDdDddDddddDdddddddddiuuDdDdDdddddddDddDdDDdddddDDd#770x0x0x0x0x0x0x0x#44DDddDDDddddDdddddddddDdDDDdDdDddDdDDdDDddDdddu#55Dad#44DDdDdDddddDDddddd#47uuDG0uudDdd0xxGGdddddddddddddddddDDDdDdddd0x0Gxxxx0uuDdddddddddddGgGggggggGddDuuudDDdddDdDDddGGhhyuuDDDDeDDgGGgghhGuuudDdDdEdddDDdddADDduuuDGggggGhxxgGG0xygggyuuDddDDDddDdDDdDdDFuuDDDGGGGGgyuudDDDGDGgGgGgGgggGGgggGgggdgggggyuuddDDdDDDDDdddddddDDduxxDdDdDddDddddduuuDDdddddddddddddDDDddddddduuuDadDDddDDdddddDddddaDddddddddddDddddduuuddDdDddddDDdddddddDDdddDDdddDDdeddddAuDddduuF0uuDddddddddDdDdddDdddddDddDdDdDdddddd0uuddddddiuuDDdDddDDDddDdDDdDdDdddddddDDdddddddddddddddddddddddddddddDDddddddDDddddDdddddddddiuuDDDDdDdddDddddddddddddddddddDddddddddddddddddDddddddddddddIuuDdDDDdDDDddDDd0xudddDddDd0uudDDDdDddddDdddDddddddddddDddddddddddddddDdddddddiuudDDDDDDDDdDDdddddDDDDdDDDd0uudDDDDddDddddddDDdddDddiuuDDDdDdddDddddDDddddddDdDDdddDd0xxggGgGGGgggg0xxgg0xxggggg0xxGddddddddddddDdDDDuuuDDddDDDDdddDddDduuudDDdDdDDdddDDDDDdddd#44DDDddDdddDdddddddddDD#44DdddddddDdddDdddd#44DdDDDDddDddDdddddDddA#44ddEddDddddddDddDiuuddDdDdddDddDDDDDddddddDDd0x0G0GuddduuuDdDdddddddDDddddDdda0u#44udDDDDDDDDdDDdDaurururuurruudddDDDddddddddddddad0uuD#44DDDdDdddddDddDddddddddDDda#44DDdDDddddGdddd0uudddddddddddddddddddddDdddDdddddddDddddddddddddddddDdddddddddddddddddduuuDdDddddddDddddDDdgdDDDdddDdDDDdddddddddddDdddddddddddiuudDDdDddddddddDddDddddDDdddddDDddddddDddddGdDAa#44DDdDdDddddDDdddddddD#44DDDDdDdDddddDDDDDDDddddddd0xxGEdgDdiuuDdDdddddddDDdddddddddddDDDddddddduuuDDDddDdddddddddDDduuDDDdduuudfddddddFuuDDDDdddddDdDDDDDDdDdddddddddddddddfuuDDdDddddDDddDDdddddddDDaa#74DDgDDddDdDGgAa#44DdDdDdDDddddddDDDdddddDddDDdau#44DDdDdDddddDDdddddddDDdddddddDdDdddddfuaddauA#44DDddd#870x0x#44DdDdddddddddddddDdDDdDdddDdDddddddddddddddddd#44ddDDdDDDdddd#44DDDDDdd0u#74DddDdDdDDddddddDuruDDDDDDDDDduuuD#44DDDddDdddDeDdddeeddeddddddddDdDddddddduDdaa0u#44dDDdddddddddddddDDDddddddd#45Ddd#770x0x0xy#44DdDdDdDDddddad0uuudDdDdDDdddddddddddDdDddddddd#44DDddddDDD0uuD#44uDdDDIuuD#44vddddDddd#44DDdddddDda#440u0u#44uDDddDa0u#44DdDDdD#44DDdad#770xxg0x0x0x0x0x0x0xx0xxg#770xx#47dddddddddddddddDdDddddDdddDddddddddddDddddddddddddddDdddddd0zuudDDDDDDDDdDDdddddDDDDdDDddDdddddddddddddduuDdDDDdddDddd#44wEdDDd#44uDdddDdDDddddddDddddDduudddddddddddDddddDDdddddddddddddDddddddddDDdiuudDdDdDDdddddddddddDdDdddddddddddfddddda#770xx#44uDDDDddddDddddDDddddddDdDDdddDdGggggGgGG0xxgagGgggggggggGgggG0uudddddddddddDdDDuuud#44uDddDdddddddDDdd#770x0xx0xx#44DdDD#44dDdddDddddddddddddddddddDdddddddDDddDddDuuDdddDdddddddddddddddddddddddddddddr0uuDDdDddddddddddddddddDAddaddDdddddDdd#44DddddddddDdDdddDdddddDddDdDdDdddddddddddddddiuuDDddddDDDddddDdDDdddddddDddDdddddddddDdddddddddddddddddddDDddddddddddddDdddddddddiuuDDDDdDdddDdddddDdddddDDdDddddDddddddddddddddddddDdddddDdddF#44uDDddDdDdDddddadddDdaa#770x0xx0x#44DDdDD#44ddDdd#44udGGdDDdDdDddDDdddddDdddddDDeedDDdddddddDiuudDDddDDDdddDFuudDDDDddDDDDdDdddDDdDDdddddDDdDdDdddddddddddDdddddDdIuuDddDDDDDdDddDdDDDdddDDdddddddddddduuudeDDd#44uDDDDDDDDA#44uudfDfDDa#44DDDDdddddddDddgdDdddDdddddDDdddDdddddDddDuuuddDDDDdDDDddddddddddDdDDDdDddddDeDDddDdddd#44Ead#770x0x0x0x0x0x0x0x#74DDGDDdD#47Gddddddddadddd0u0u#44DdDDDDDDDDdDDdddedDDDDdDDddDddddddd#41DDEDDDfddDddddad#44DDdDdDddddd#44DdddddDDdddddddddDdDeeddddDDddddddddddddddddddddddddddddddddDddddDDdddDddDduuiuuDdddDdDddDDddddddddDddddddddddddDddDddddddDdIuudDdddddddDDddddDdDDdDdddDdDdddddddddddddddddDdddddddddddd#44DDDDddddDdddddddduuuDddDDDaD#44dddDdD#44DDddDDDdDDDddddd0uuDDDddDdDddDddddDDddddDDddddddddDddddddddduuuDDDDDddD0xxd0xxgGGgv#44DddddddddadDddDDDDdda0uuDdddddDdDDddddDdDDddad0uuDdDdDdDDdDddDdDDdd0uudDddddDad0uuDdDDfDe0uuddDDDDDdddddaD0u#44dDdDDDd#770xx0x0g0x#44DdD#44DaD#44uDddDDdDDDddddddDDDDDduuu0uuDDDddDddddDDddddddddddddddddDdDdddddDuDaaduDDuuDDDDDDDdDdddddfuudDDdddDDdD0uudDdDDDDDddDdDdddd0u0u0uuDdDDDdDdddDddddddd0uudDDdDdddDdd0uudDdDDddddDddddddgDDdddddddddddddDDiuuDDdddddDDDdddddduuuDdDDDDDddddddDDDddddDdddDDdduuuddddDDDiuuDDDddddddDDdDDDDddDDdddDdDddDdddDdddddddddDdddDddf0uuDDDDdddddddddddddddDdDdddddddDdddddddDdddddDdddddddgdddDDdddddddddddddddDdddDDdDuuuDDDDdDDdDDDuuudDDdDDddddddddDdfuudDddddDDdddddDddDddDDdDdDddDDDDdfuuDDdddddddddDdddddddddddDDdddddduuudDDDFuuDDdDDddDdddddddddDdddddDdddDdddDdddDddDuDudddDddddddddddddddddddddddddddddduuuDDdddDadDDdDDddddDddDdDddddddddddddddddDDddddddddddddddddddddddddddu0uuDDdddddDdddddddddddddddddDddddddddddda#44DddddddddddDdDDdddDDDDdddddddddddddIuuDDdDddddDDdddDdddddddDDddDuuuDDdddddDdddddddduuuDddDDDddDDdDDdDDdddDdddddDfuuuDDddddDdDdddddDDdDddDDddddddddDddddddddd#44DdDDDDDDDDdDDdddDDEEDDdDDDDDdddddddddddddduuDDDDDdddDDdDDiuuDDDDdddddddddDDDddDddfuuDDDdDdDdDddddDdddddddDdDDdddDd0xx0xxgGGggg0xxg0x0gxggggggggGddddddddddddDdDDDuuuDDddDDDdddDDddDfuuuddDdDdddD0uuDDDDddddddDDdgggGGggDDIuuDdDddddddddDddddDdddDDdDDDddddddduuuDDDddDDdddddddddDDuuDDDdduuuddddddddIuuDEEdeeEEEEeEDDEEdd0uuDDDDDddeeDDdddddddddddDDdDduuuDDDddddddddddddDuuuDddDDDdDDDdDDDdddddDddddddiuuDDddddDdDdddddDDdDddddddddddddDddddddddfuuDdDDDddD0xxggg0xxGGuudDDDdDDDddddddDuuudDDDad0u#44DdDdDdDDddddddDDDdddddDddDDdduuuddddDdDiuuDDDdddddeDDdddDDDdDedddDddddDdddDdddddddddddddDddfuuDdddDdDdDd#44DddDad#44DddDdDDDDdDddd#44uddD#44DddddddDddddDddddDdDddddddDDddddddddddd0uuddddddddddddddddddDddddDDdddddddddfuuDdddDdDddDDdddDddddDdDdDddddddddDdddddddddddiuudddddddddDDdddDDddddddddDdDdddddddddddddddddDdddddddddddddddddDDdDddduuuDddDDDDddDdddDdddddDDd0uzuuDddddddddddddDDddddDddddddduvuDDDdddddDddDDdddddiuudddDdddDdEdDDdDddddddDuuudDDDDDDDuuuDDDDDuuuDDDddddDDDiuuddDdDDDDDdDdDddddddDDDddDdduuuddDeDDDDddddiuudddDDDddDDDddDDdDdddDddDdDDDdddddddddddddddiuudddDDdDDdddDddddDdDddddddddddddddddddddddddddddddddddddddddDdddddddddddddddddddddiuuDDDDdDdddDdddddddddddDDdddddDdddddddddddddddddddddddddddddIuuDdDDDdDdDddDDdIuuddDdDdddddddddddddduuuDdDdDddDdDdddddgddddddddddddd#44DDdDDddddDddddddGdDdddddddddddddDAd0uuDdDdDdDDdd0uuuDDdddddddDDDddDdDdDddddDddddDdd0uuDdDDdDdDDddddddDdddDDdDdDdddddddddDddddddddddddDddddddDdddddddad0u0u0u0u#44D0uuDDdDddddddddd0uuDDDDddd#44DdD#44DdDddddDD0uudddddddDddddDdddddddddiuuDdDdDddddddDDddDdDDdddddDDd#44DDddddddddddddddddddd#44dDddDddddddddddddDdddDDedddddeeDdeDddduuuDdddDddddDDdddddddDDdddDDddddDdddddduAaddDu#88yhh0x0yx0x0x0xx0x0xx0x#44udddddDAa#44uAdDddDDdddDddgdDdddDdddddd0uurDDDDDDdDDDdddeedddddDddddDDddDddDDDddDdDdddduuudDdddDDddddddddddddddDdDDddddddD0u0u#44DDDdDDddddDDDddDdDdDddddDddddDdddDdddddddddddddDddiuuDdddDdDdDdDDDdDDddDDdDdDdddddddddDddddddddddddDddddddDddddddddDDdIuudddDdDDddddddddddddDDdddDddDdDDdddddddDdddDdddddddgddddDdddddddddddddddDdddDDdDuuuDDDDDdDDDDDuuudDDdDDddDdddddddiuudDdddddddddddDddDDdddddDDddDdddDFuuDDDDddddDdddddddddDddddDDddeDEduuudDDDFuuDDDDDddDddddddeddddddddDdddDdddDdddDddDDuuDDdDdddddad#44DDDddDddddddddddd0uuddddEeeeefeeEEeeEeeEuvEeeeEeeeeeeeeeeeeeeeeeeeeeeeeeeeeevvvEEeEeeEeEeeeEeeeeEeEeeEeEeeeeeeeeeeeddddDdddddddddddddddddddddddddduuuDdDdddddddDddgdDdddDdddddDDdddDdddddDDDDuuuddDDDDdDDDddddddddddDdddddDddDDddDDddDdDdddduuudDdddDDddddddddddddddddDDddddddDDdddDdddddddddIxuDddDddDdDdddDDdDDddddddddddDDddddddDDddDDdddddDDdddDddDddddiuuddDDDDDDDdddd#44ddDDDdddDDDdd0xxGyuuDDDaD0uuDDGggggGgxxxad0uuDA0uudDDDDdDA0u0uuDDdddDDDDD0uuD0u0uuudDDDdDddDddddDddddDdDd0u0uuDDDDd0uuDdddddDdDDdDDddddddDdDDddDdd0u#44udDAD#44DDDDDddadDDdda0uuu#44DDDddd#44DdDddddfuuDDddddDDgdDddDdDddDddddDdddDDdDDdIuuDdddDdddddDD#44uAD#44dDdDDddddGgdddgdddddddddddddddddddddddDdddDdddddddDdDddddddddddddddDdddddddddddddddddduuuDdDdddddddDdddDDDGdGGDdDddDDDDDddddddddddDdddddddddddfuuDdDdddddddddddddDddddDDdddddDDddddddDddddgdddduuuDdDddDDDDdDDdddDDdddDddddDDddDDdddddddddddddddDddddddaddaa#770x0y0x0x0x#44DdDddddDD0uu#44DdGGdDDdA#44DDDDDD#44DDDad#44DdD#44udDDdDdDDdDdd#44Ddd#55eEeeeeeeeeeeeeeeeeeeeeeeEeeeeeefEEeeEeeErveeeeEeeeeeeeeeeeeeeeeeeeeeeeeeeeeevvvEEeEeeEeEeeeEeeeEeeEeeEe0wveeeeeeeeeeedd#44ddDDdddddeDDdDDdddddddduuudDDDDDDDuuuDDDDDuuuDDDddddDDDiuuddDdDDDDDdDdDddddddDDDad#74uDd#14uDd0uuA#44uddDDdd0u#44DddddddadDDDddDDdDddDdDdddDedDddDDddddddddd#44DDdDD#44uDDdDdad0uudDD#47udDDd#44uufDdDduu#55EDD#44DDDdDddDdDdddDddddDddDd0u0u#77x0xxg#54DDffEEeFEeffda#44DdGGddDdDDDddd#44DDDDdddddddddDdDddDdddfuuDDDdDdddDddddddddddddDDD#44DDDdDddDdDdddDddddDddd#44uDdddddDDDddAa#44DDDddDdDDDdddddDdddDDdDdDdddddddddDddddddddddddDddddddDddddddddDDdIuudddDdDDddddddddddddDDdedDddDdDDdddddddDdddddDdddddgddddDddddddddddddddDDdddDDdDuuuDDDDDdDdDDDuuudDDdDDddDddddDDdIuudDdDDdDDdddddDddDDDDDdDdDddDDdddiuuDDdddddddddDdddddddddddDDdddddduuudDDDIuuDDdDDddDdddddddddddddddDdddddddDdddDddDuDudddDddddddddddddddddddddddddddddduuuDDdDdDDDDdddDddddDddDdDdDdddddddddddddddDdddddddddddddddddddddddddDuuuDdDdddddddDdegdDdddDDDDddDDdddDdddddDddDuuuddDDDDdDddddddddddddDdDDDdDddd#44DDDddDdddddDDddDdDddddddDddddDdddDdddddddddddddDddiuuDdddDdDDddddddDddddDdDdddddddddddDddddDDdddddddddddddDddddddddDDdiuudDdDdDDdddddddddddDdDddddddDDDDddddddeDdfdDdddddddgddddddddddddddddddDddDdddDdduuuDD0uuDDdDddddddddddgdddddDddDDddddddDddDdddddduuuddDDDDdDddddddddddddDdDDDdDddddDdDDddDddDddduuudDDdddDddddddddddddddDdDDdddddddddddDdddddddddau0uuuDDDDddddDDdDDDDDDdDdddddddddddddddfuuuDDdDdDddDDdddddddddddDDddDuuuDDDddddDdddddddduuuDdDDDDddDDdDDDdddddDddddddfuuuDDddddddDdddddDDdDddddddddddddDddddddddfuuuDaD#44udDDAa#44uddDDd#44ddDddddDDgdddddddddDddddDdddddddddiuuDdddDddddDDDDddDdDdDDdddDDd#44DdGGddDdDDDdddddddad#44DdDdddddDDddddGddeddDdeDDdededdDddddddddduuuddDDDDD#44DddDddDdddddddddDDDuuDDDdduuuddd0uuddiuuddddddDDDDdDDDDDddDDDdddddddddddddfuuuDDdDdDddDDdddDdddddddddddd#44uDDD#44ddd0uuDd0uuDdDdDdDDdDddDdDDdddddDdddDDdd#74uddDdDdDDdDDdddDuuudDDDDDDDDduuuDDddddfuuDDdDDdDdgdddddDDdDDddddDddddddDDdIuuDdddDddddddDDddDdDdDDdddDDd#44DddDddDD#44DDDddDDDddddDddDFuuudDDdDddd#44DddDdd#44DDdDdd0uudddddddddDddddddddddddddduuuDDDddDDdD#44uAD0uuDdD0uuDDdDDDddDDd0uuuDDDd#46DdeDdDEad#44DdDDDdddDDDddGGggyuuDDDddDDgGGggggGuudDdDDDdddDDddddEDduuuDGggg0xxxx0xx0xygGGxuuDddDDDddDDdddDdDIuuDDDGGgGGgyuuDdDDGgGgggGgGgggGGgggGggggg0xxgxuuddDDdDdDdddddAd0u0r#44uDDdDdDD#770x0g0x0x0x#44uDDda#44DdDdddddddDgDDddad#44DDDd#44Dddddda#74DD0uuDdDddgGGGgdDDddddddddddddddddddddDDG0x0GxyxxgddDdddddddddddGggggggg0xuDduuudDDdddDdDDddGgggyvvEEDeDEEhDA#44DdDDdDdDdDDdaDDDDDD#44DDEdDddDdDdddDdddDddDddDdDdddddddddddddddDddddddddddddddddfFffeeeeeduuuDdDddddfddedagEEdddDDDDdddeeeeFdddddDdeEvwudeFFFFfDeAdFffdeffdDDddddd0uuDFfdfduvDefeefdddd0uuDdDD#44udDaD#44DdDa#44DDdDdiuuDDDd#44DDdddDDDDddddDdd#44dDddDDdddddddddDdddddddddddddddDdddDdDuuuddDdDddddDDdddddddDDdddDDddDdDdddddduDadduDDuuudDdDdDDDdddddi#44dddDdDdDDddad#54DdEeDdEEeeEaD#44ddDdDD#44DDDDdddd#44DDDdddddddddddddddddddddd#44DDdd#44udDdDdd#44DDddDDDdDDDdDDDdddddDddddddd0uuDddDDD#44uDdDa#77x0x0x0x0x0x0x#44DdDDDddda#47uddD#44uDdDf#440u0u#44uDDDddddDeDDdDDDDd#44DdDDDdddddDddiuuDdDDdddddddddDDdddDddiuuDDDdDdDdDddddDdddddddDdDDdddDdG0xx0x0g0gxggg0xxgg0xxgdd0vuDDdDDDdddggg0xxgdhggxuudDD0uuudDDdDdDDdDuu0u0u#44DDDDdddddddddDddDdDDdddddDDd#44EDDDddaD#770x0x0y0y#44DDD#44uDDdddddddddDddddddDddddDDddaDddurr#44Dda#47DdddDddDdDdddDDad#44DdGGdDDdDdDddDDddddDDdddddDDeedEDdddddddDfuudDDddddddddDfuudDDDDddDddDdDDDDDDdDdddDDddddDdDddDddddddddddddddddfuuDddDDDDDdDdddDDdDdddDDdddddddddddduuudDDDddDddgdddgddddDddddddddddddddddddDdddDdddddddDdDddddddddddddddDdddddddddDdddddddDuuuDdDddddddDddddDDdddGGDdddDdDDDdddddddddddDddddDDdddddfuuDdDdddddddddddddDddddDDdddddDDddddddddddd0uuDDuuuDddddDdDDdDDdDDdDdDDDddddDDddddddddddddDdddddddddddddddddddDddddDDdddddddddiuuDdddDdDDdDDddddddddDdddddddddddddddDddddddDdIuudddddddddDDdddDDd0uuDdddDdDdddddddddddddddddDdddddddddddddddddDDdDddduvudDdDDDDddDdddDdddddDDdddiuuDddddddddddddddddDdddddddddvuuDDDdddddDdddDdddddiuudddDdddDeEddDDDDdddddduuudDDDDDDduuuDDDDDuuuDDDddddDDDfuudeedeeEDddDdDddddddDDDddDdduuuddDdDDDDddddfuuddddddddDDDddDDdDddeEeeDdDa#44DddddddddDdDdddda0uuDDdDdDddDdddddddgddddddddddddddDddduuuDDdddddDDDdddddduuuDdDDDDDddddddDDDddddDdddDDdduuuddddDddiuuDDDddddddDDdDdDDDdDddddDdDddDdddDdddddddddddddDddiuuDdddDdDdDdDDDddDddDDdDdDdddddddddDddddddddddddDdddddda0uuDDdddDdDDdddddDddDDDdddddDddDDDddIuuDDDDDdddDddDdddddddddddDDdddddduuudDDDFuuDDdDDddDdddddddddDdddddDdddEdddDdDddddDrdudddDddddddddDdddddddDdddddddddddduuuDDdDdDDDDdddDddddDddDdDddddddddddddddddDDdddddddDdddddddddddddddddDuuuDdDdddDddddddGdDdddDddDDddddddDddDddDDAd#44DDDdDDddddDDDddDdDdDddddDdDddDdddDddddddddddddddddiuuDdddDdDdDDDDddDDddDDdDdddddddddddDddddDDd0uudddddddddDddddddddDDdiuudDdDdDDdddddddddddDdDdddddddddDdddddddDdddDdddddddgdddddddDdddddddddddDDddddddduuuDDDDaDDDDDDuuudDDdDDddDdddDDDdIuudDdd#44DdDDDDDDDDDDDdDDddddddDddDDDddddda0uuDdDDddddddDddfuuDdDDddDddddDdDDDddDddiuuDDDddDDdDddddDdddddddDDDDddddDGggg0xxGGGGG0xxGgggg0x0xxggG0uuddddddddddDdDDDuuuDDddDDDDdddDddDDuuuddDdDdddDddDDDDDddddddddddd#44DDD0xuDddD0uuDDDDF0uuA0uuDdDDDdDddDddddDdDDDad0uuDddDdDDDDDdDdDdddddbC0uuDDEeDd0uuDdDAf0uuuDDDDdddDd0uuD0uuDDAD#44DDdDdddddddddddddADdddDDdddddDDddddddddddd0uudduuu0uuddDdDDdDDdDDddddDDddddDDddDdddd0u0u0u0u0u0u0u0u0u0u0r0u0u0u0u#44DdDDddDDdDddddDdddddddDdDDddddDGggggGgGDGGG0xx0xxgggggdd0uuDdDDdddDdDDdDDdDDDDdddddddggGg0xxDDIuuDdDddddddDDddddddddddddDDdddddddDuuuDDDddddddddddddddDuuD#44DDDDdddddDddddDDdddddddddddddDdggg0xxgg0x0gxdgg0xx0x0gxgG0xxGGdddddddddddddDddDuuudDddDEDd0uuDdddiuuddDdDdddDddDDDDDddeeddDDdgggGGggDDFuuDdDddddddddDddddeeeeeeeEEAe0vveedu0vvEDa#74DdA#45EEEEeddddddDdddddddddddDdddddDdddddddddddd0uuedvvvDeEddDdDDdDDddddDdDDAddddDDddddddddddddddddeedEeeedddddddddDdddddddddddddddiuuDdddDdDddDDeeeDdeedDdDdDddddddddDDddddddddDdIuudddddddddDDdddDDddddDdddDdDdddddddddddddDDdDDdddddddddddddddddDDdDddduu0uudDDDDdDddddDdddddDDddaau0u#44udDDDd#44DDDdddddddddddd#44EddDddDdddddddddddDdddddDd#44uDddDdddDDDdDddeddddDDdadaDeddDdddDDddDdDdddduru#44DDddduuudDddddddIuuDDDDddddDDdDD#44DDdddAD#44DDDddddda#44ddDDddDdg0xxgggD#44ddDddddadDDduvuD#870xx0x0x#44dDdddddDdddddddddddddddddDdddddddddddDdddddddddduxudddDddDdDddDDDdD#44DdDdDDdDdDddddad#44uDdDdddDdddad#44DddddDdddDddDDdfuuDDddddddddddddddddduuuDddd#44dDddDDdDAdda#44uDdDdDddDdddddddGdda0u#44uD0uuDDddDDDDDdDdddDDDDddDddad0uuDDDDddddddddddDddDdddddddddddDd0uuDDdddDddddDDdddddDddDdddddddddddddddDddddddDdd0uuDDDDddDDddDdddDdddddDddDdiuuDdddDddddddddDDddddDDDdDDdduuuDDDdddddDdda0uuud0uuDdddddDdDDdDDDddddddddDddDDdu0uuD0u#44Dddd0uuddDDDDDDDDDDDdDdd0u0uuDDddddddddddddDDddDd#77xiuuDGDdDdDdd0xxGdddddd#44udDDDDdDdddddddddddddddddDdddddddddddDdddddddddduxuDDdDddDdDddDDddDDddddddddddddddddddDDddDDdddddDDdddDddDddddiuuddDDDDDDDdddDddDDDDDDdDDddDdddddddddddddfuuD#45ddDdfdeddad#74DDGDDddDdD0xx0uuDddddddddddddddddddddDDGgggggxx0xuDDddddddddddd0xxggg0xxGddDuuudDDdD0uuDDDDddDdggG0x0gxyuudDDDDDdddDDDDdDDAa0uu0ur#44DDdDDdd#44uddDDddddd#44DddddddddDdDdddAA#44dDdDd#770x0x0x0xx0x0xx0x0x0x0x0x0x0xx0x0x0x0xx0x0x0x0x#44DdDDddddDdEddDAd#44DDdddddddddddddddddddddddddduuuDDDdddddDddDDdddddiuudddDdddDdDdDDDdddddddDu#44ddDDdddddDddddDdDDddDDdddfuuDddddddddddddddddDddddddddduuuDDDdddddddddDdddddiuuDDdDdddDdEddDDDDdddddDuuudDDDDDDDuuuDDddDuuuDDd#44ddd#44DDAD0uuudDd#44DddDddDdDDdDDddddddddDd#44DdddddDdDdddDddddddDdddddddDDdddddddddddddddddddddddddddddddDdddddddddddddddddddddfuuDDDDdDdddDdddddddddddDDdDdddDdddddDdddddddddddddDdddddddddIuuDdDDDdDddddDDdfuuDDdddDddddDdddddddduuuDdDdDddddDddddd0uudddddddddddDDDDfuuDDdddddDDDdddddduuuDddDDDDdDddDdDDDddddddddDDdduuuddddad0uuDdDDDDddDddddddDddddDdddddddddddddDddddDDdddddddddddd0uudddddddDDdiuudDdDdDDddddddddddddDDdddddddddDdddddddDdddDdDdddddgdddddddDdddddddddddDDddddddduuuDDDDddDDDDDuuudDDdDDddddddad#45DDDD#44ddDDdGGDd#55EeeEeEeDD#44DDad0u0uuDDddDDddDDdddddDddddeddddddddddDddda#44dDdDDdDddaf0uuD#48xx0xxGgggGGyuuDddDDDddDDdddDdDIuuDDDggdd#56FfEFFEedDddfddddDddDdDDdDddddddddDDddddddddddddDeddddd#44EddDeHHGgggggggg0xx0xx0xugghggggyuuedEDdDDDAD#44DdD0uuDd#77xgxuuDGDdDdDddgGGGGdddddddddddddddddddDDddDDggg0xxyxxgdDDdddddddddddgggggggggGddDuuudDDdddDdDEeeG0xyuvEDDdeEEgGGgg0xxyuudDdDDDddaE#44DdDDDDddDDDDdddddDddDdddDDddddddDdddddddddddd#44uFDDD#44DDdddd#44DdGGddDdd0uuDdDDDDddDDDDddddddddDdddddddddddDddDddddddddddddddddiuuDddDDDDDdDddddDDdddDddddddddddddDduuuddDDddDddgdddgdddddddddddddddddddDDddDddddd#44ddDDdDdDDdDdD#44DddddDDdddddddddddDD0uuDDdDdDddddDDdddddddddddddddddd0uudddDudddduDIDudDEEDDdDDddddfuuudDDdddddeD0uudddDDDDDddDdDddddDdDDdduuudGGdDDdDDDddDDddddDDdDdddDededdddddddddDduu0u0uuDDD#44DDD0uxGddDdDdDDddd0uuDDdDdDddddDDddddddad0xuDDdD0uuDddDddddddddDa0uuDddDdddDDd0urD0uuDddddDdC0uuDDddddD0uuDDDDdd0uuDddDdddDAd0uudDDddddfuuDDdDDdDDgdDdDddDuuDDddddddddDDddDdIuuDddddAd#44DdDdDDDDddddddDDDdddddDddDDdduuuddddDDDiuuDDDddddddDDdDDDDddDDdddDdDddDdddDddddddddDDdddDddI0uuudddDdDDdddddddddddDdDdddddddddddddddddDdddDdddddddgdddDDdddddddddddddddDdddDDd#44DDddAd#44DDDD0uuDDdDDDDdDDDddDddddddDddddddfuuuDDddDdDdDddddDdddDddddddddddddddddddddDFuuuDdDDDddDg0xx0xxgGggyuudDD0uuDdDddddDDad#44DDdDdddddgddgdgddddddeddddddddddddDDddDdddDdddDDddDdDdddddddddddddEDdddddddddDdddddddDuuuDdDddddddeddddDDdhdDDEeddDddDDDdddddddddddddddDDdddddfuuDdDddddddddddddeDdddddDdddddDDdedddddddddgddddu#44ddDDDdddDDDdd0xxGyuuDDDddDDgGGggg0xyuudDdDdDdddDDddddDDduuuD0xxggGgxxgG0x0GxggyuuDddDDDddDdDDdDdDIuuDDDGGG0xxx0uuDdddDDDDDDDdddDDDdDDduxxDdDdDddDddddduuuDDdddddddddeedeDDDddddddDuuuDdDDDddDDddddeeeDeddDDddddddddDdddddduuuddDdDddddDDdddddDdDDdddDDdddDDddddddduDddd0uuDdDdddddDdD0uudddDDdDDddDDDddddDDdddduuudGGdDDdDdDddDDdddddDdddddDDeddDDdddddddDiuudDDddDDDdddDIuudDDDDddDDDDdddddDDdDdddDDddddddDdddddddddddddddddDdI0uuDDDDddddddddddDD0uuDDdDddddDDdDDddddDdDDDdaddDDdddddddddddddddddddDddddddddddddDddddDDdddDddDau0uuDddddddddddddddDDdDDdDdddDdDdddddddddddddddddDdddddddddddddddddDDdDddduuudDdDEEAddDdddddddddDdDddiuuDddddddddddddDd0uudDdddDDdduvuDDDdddddDdddDdddddd#44DDDD#44ddDddDDDduuuDDddDuuuDDdddddDDDFuuuDdEeDD#44DDddDdDddddDdddddddddDdDDAd#44uDddddddDDdddddddDdDDDddddDDdddeddedddddddddddddddddddddddddDddddd#84uDEDf0uuDd0xxGGHdyyue0u#44DdDDDdddddDdddddddddddDDdddddDdfffdDdddddddddddddddddddddddD#44uDdDa#45DDDDDd#74DDgDdDdDddgGG0xuddddddddddddddddddDDddDDGgggad#44DDd#44DdDDddDDdda#44Da0uudddDDDdDDDddDDdIuuDDdddDdeddddddddfdduuD0uuDdDdDd#44DDDa0u#44DdGGddDddD#44DdDddddDD0uuDDDDddddddddDDddDdddDDdddDdd#84vdDD#44DDdddddDDdddddDddDDdDDdDd#44DDdddDdDDdddddDddDDDdddddDddDDd#44udDDdDDDDdDuuudDddddfuuddDDDdDd0uudddDDddDdd#44DDD#44udDDDddDDDDEdGGghyuuDEDdDDDgG0xxggGyuudEdDdDdddDDddddDD0uuDDDdDdDdDdddddfuuddDdddDDdDgDDddDDDdd0uuuDDddduuuDDdddddDDDIuuDDddDDDDDdDdDddddd0uuddddddddDddddddDduuuDddDDDdDDDddDDdddddDddddddduuuDDddDdDdDdddddDDdDddddddddddddDdddddddDDuuuDdDDDddD0xxgggg0xxyuudDDDDdDDdddddddu#44DDdEdDauuddddDDddEdDDd#44uddDddddddddddDDDDDDggDdddDdDDDdddddddddddDddddDDdddddiuuDdDdddddddddddddDDddddDdddddDDdddddddddddGdDDDuuuDddddDDDDdDDdddd0u0u0u0u#44uDDdDddddDdddDddddDdDddDdDdddddddddddddddDdddddddddddddddddDdddddddDuuuDdDdddDdddDddGdDdddDddDDddddddDddddddddDuuuddDDDDdDddddddddddddDdDDDdDdDddDdDDdDDdDdddduuudDdddDDddddddddddddddddDDddddddDDdddDdddddddddIuudddDddDdDddDDdaDda0uuuFdruDDFDuuDuudDdDduuDDDu0vuDA0uuuuuAD0vuDrr#44uDd#14uDDdddDDDDdDdad0u#44rD0uxDdDDDddDdDdddDDDdDddddddddddDDddddddDDdddd#44DDddDdDddddDdddddddddDdDDDdDdDddDdDDddDddDddduuudDddddDdddddddddddddddddDdddddddddddDdddddddddduxuDDDdddDdDdddDDdDDdddddddddddDddddddDDddDDddddddddddDdddddddfuudDDDDDDDDdddDddDDDDDDdDDDDDdddddDdddddddduuDdDDDdddDddAD#44uDDDddDddddDDDdDdDddDDdddDdDddDdddDdddddddddDdddDddiuuDdDdDdDdDDdDDddDddDdDDdDddddddddddddddddddddddDddddddddddDddddDDdd#44DdDdDdDDddddddDDDddddddddDd#41uddDDddDd0uuDDDDDDdA#770x0y#44DDDddDddddDDDddDdDddDddddddddDddd0uuDddDdDdDDddduuudDDdDDddDdddddddiuudDdddddddddddDddDddDDdDdDdDdddddiuuDDfddddddddDddddddd0uuddDDddDDdDddddDDddddddDdDDdddDd0xxggG0xxGgggggGdggggggg0xxg0xxdddddddddddddDdDDuuuDDda0uuDddddddDDddDdDDdddDDDDdddddddddddddFuuuDDdDddddDDeddDdddddddddddDuuuDDdddddDdddddddduuuDddDDDddDDddDDdddddDddddddduuuDDddddDdDdddddDDdDddddddddddddDdddddddDFuuuDdDDDddDGGgg0xxgG#44DddDdDdDdDDDdDa0u#44dDdddddDDdddddDddDDDdD#74DdDAD#44ddDddddddDDddddDDdedGGDdddDdD#55EEedeAd#44DddddDdDdDddDDdIuudD#44DdddddddddddDDDdddDDDDdddddddddddddFuuDDdDddddDDdddddddddddDDdDduuuDDDddddddddddddduuuDddDDDddDDdDDDdddddDdddddDiuuDDddddDdDdddddDDdDddddddddddddDdddddddDFuuuDdDDDddD0x0gxgggGggxuudDDDdDd#84udDDDDA#74DDgDdDdDddg0xxGdddddDADdddddddddDDDdDdddGGggggx0xxdDDd0uudddddddGggggg0xuDduuudDDdddDdDDdd0yuu0yuudDDDDDdddDDddfddDduuudGGg0xxgy0xxG0xxgg0xyuuDddDDDddDdDDdDdDFuuDDD0xuGggyuudDdDGGGggg0xxgggGGgg0xxGg0xxyuuddDDdDdDdddddddddDDDuxxDdDDdddDddddduuuDDdddddddddddddDDDddddddduuuDddDDddDDdddddDddddddddddddddAddddddduuuDdDdDddddDDdddddAdDAddddd0uuDDDDDDDdDdddddfuuddDdddDDddGDDdddDDDDDddDdDddddddDDdduuudGGddDdDDdDdDDddddDDdddddDeedddd#84udDDDGGGgggGggggGg0xxda0uxGddDDdddDdDda#44DDdddddddddddaa#44DDddd0uuddddddddda#44DDddDdDddddDdddddddddDdDDDdDdDddDdddddDddDddduuudDddddDdddddddddddddddddDdddddddddddDdddddddddduxudDdDddDdDddDDDdDDdddddddddddDddddddDDddDDdddddd#44uDdDddDDDDddadgdDdddD#44Ddad#44uDDdfedDDDddDdDDDDddDDeaddddddddDDdaddEdddd0u#44udDDddddddddDfuudDDDDddDddDdddddDddDDddDDddddDdDdddddddddddDdddddddFuuDddDDDDDdDdddDDDDddDddddddddddddDduuuddDDddDdggdgdgdddddddddddddddddddddddDdddDdddddddDdDddddddddddddddDdddddddddDdddddddDuuuDdDddddddddddDDDDedGGDdddDd#55EEeeeEeeeeeEeeeeeeeevvvEeEeEeeEfeeeeeeheeeEeeeeeeeeefEeeevvvEEeeEedddDddeefFudwuEeeEDDDddddddDDDddddedDeEEeevvveeeeEeEfuvvEEFeeeeeeEEEedEEeeEEeeeEeEeeEeadDdddddddaa#44D0xuDDEDda0uuu0u0uuDDdda0uuud0uuDDDddddddDdddDddda0uuddDd0uuDDDDa0u0u0uudD0uuDddDdDDd#51uwAuuDuufdddFDad#55EeEEeeEEeEEEeeddddDu#44DdDddddDD0uudddddddDddddDdddddddddFuuDdddDdddddDDDddDdddDDdddDdd#44DDDDdddddddDdddddd#44uDDDddDDddddddddddDu#44DDdddDddDaD#44DddddddddddDdddDdDdddDddDdDdDdddddddddddddddiuuDDddddDDDddDdDDDDddDDdddddDDd0uuDddddDdddddddddddddddddddddddddddddddddDdddddddddfuuDDDDDddddDdddddDdddddDDdDdddDdddddDdddddddddDdddDdddddddddFuuDdDDDdDDdddDDdiuuDDddddddddddddddddduuuDdDdDdddddddddd0uudddddddddddDDDDfuuuDDdddddDdDdddddduuuDDDDDDDdDddDdDDdddddDdddDDdDuuudddddDDduuuDDDddddddDDdDDdDddDDdddDdDddDdddDdddddddddddddDddfuuDdddDdDdDDdDDddDddDdDDdDddddddddDDddddddddddddDdddddDddddDddddDDdFuudDdDdDDdddddddddddDdDdddddddddddddddddDdddDddddddd0uudDDdddddddddddddddDdddDDdduuuDDDDDdD0uru0uuDDD0u0u#44dddDDd0uuDdAd#44DdDDDdddDDd0uuuDDdDdDddDDdddddddddddddddduuuDDdddddDdddddddduuuDddDDDd#44DDdaD#870xxx#44dDdddDDDDdDd#44uDDDDddddDDa0uuDDdddddDDDDddddddddd#44uDDDdDdddDddddDdddddddDdd#44dDddDddDdDdddGad#44Dddd#440u0u#44udDDddDAa0uu#44Ddd#77xG0x0xx0x0x0x0xx0x#44udDDDDDDDddDDdDdddddDddDDDDDddddd#44uDddDDDDdDDdDDddDddDdDDdDddddddddddddddddddddddDddddddddddDDdddDDdIuudddDdDDddddddddddddDDdddddddddDdddddddDdddDdddddddgddddDddddddddddddddDDdDd0ur#44dDddddDddddDddDddddddddddddduuuDDddDdDdDdddddDDdDddddddddddddDdddddddDDuuuDdDDDddD0xxg0xxggggyuuddDDDdDDddddddd#44DddDdDdDdd#74DDgDdDdDddgGGGGddDddddddddddddddddddddDDGggg0xxxxgdDDdddddddddddGg0xxggggGddDuuudDDDddDDDDddHHggyuuDDEDdDDgG0x0gxGyuudDddDDdddDDdddddDduuuDGgdggggyx0xxGGgggggyuuDddEDDddDdDdDDdDduuuDDD0xxG0xyuudDDDGGGg0xxgGggGgGgggGg0xxgggGgyuuddDDdDdDdddddddddDDduyxDdDdDddDddddduuuDDdddedddddddddDDDddddddDuuuDddDDddDDdddddDdddddddddddddddDdddddduuuddDdDddadDDdddddDdDDdddDDdddddddddddDuDadDuuDuuDDDDDdDdDdddddiuuddDdddDDdDgDdDDdDDDDDddDdDddddDdadddu0uuDDdDddddddddDiuudDDDDddDDDDdDdddDDdDddddDdDDdDdDdddddddddddDdDdddddIuuDddDDDDDdDdddDDDdddDddddddddddddDduuuddDDdddd0uugdgdddddddddddddddddddddddddddDdddddddDdDddddddddddddddDddddddDdddda#770x0x0x#44DDdddDdDDdddddDddDDDDDdDdDddDDdddiuuDDddddddddddddddddDDdddDDdddddduuudDDDIuvDDdDDddDdddddddddDddddDDdddDeddDdddDddDDuuDDddddddddDdDdddddddDdddddddddddduuuDDdDDDDD0uuDDdddDdDdddddddddddddddddDddddddDDdddDdddddddddDuxuDddDddDdDddDDddDDdddddddddddDdddddddDddddDddddDDdddDddDddddiuuddDDDDDDDDDddddDDDDDDdDDDDDdddddddddddddduuDdDDDddddddDDiuuDdDDdddddddddDDdddDddiuuDDDdDdDdDddddDdddddddDdDDdddDdGgdggD0uuDDDDdDdDDddDDDDDDdeddddDDdgggGGdgddiuuDdDddddddddddddddDdddddDDdddddddduuuDDDddDDddddddddddDuuDDDdduuuddddddDdFuuDDddddddDDdDDDDdddDDDdddddddddddddfuuDDdDdDddDDdddddddddddddddDuuuDDdddddDdddddddduuuDddDDDddDDdDDDdddddDddddda0uudDDdDdDDddddddduuudDDDDdDDDduuuDDddddiuuddDDDdDdgdddDdDDddDddddDdddDDdDDdIuuDddddDdddDDDDddddDdDDdddDDd#41DDDDdd#44DDDDdddddddddddddddDdddddddddDdddddddddDdddDdddddddgdddDDdddddddddddddDdddDddDdduuuDDDDDdDDDDDuuudDDdDDddDdddddDdiuudDddddDDdddddD0uuDdDDdDdDdDdddddfuuDDdddddddddDdddddddddddDDdddddduuudDDDiuuDDddDddddddddddddddddddDdddddddDDddDddDuDudddDddddddddddddddddddddddddddddduuuDDdDDDDDDdddDddddDddDdDddddddddddddddddDDdddddddDddd#44DddDddDddDDdddDdDIuuDDDDggGDd0u0uuDd#44dDdDDdddd0u#44DddddddddddgDDddDDDDDDddDdDddddDdDDdduuudG0uudDDDDddDDddddDDdDdddddddddddDddDdddduuudDDddDDDdddDFuudDDDDddDDDDdDDDDDDdDDddddDDD0uuDdddddddddddDdDdddddF0u0uudddddDdDdadDDdDDdddDddddDDddDDdddddddddddddddDddddddddddddDddddDDdddDddDduuiuuDdddDdDddDDdddddDddddDdDddddddddDDDddddddddDiuudddddddddDDddddDdDDdDddddDDdddddddddddddDddDDddddddddddddddddddddDddd#44udDDdddDddddddddddddddd0uuudDDDDDDDDDDdDddDDDDDDdDDDDDdddddddddddddduuDDDDDdddDDdDDiuuDdDDdddddddddDDdddDddiuuDDDdDddDDddddddddddddDeDDdddDdGggggDd#44DdeDAE#44uDdDdddDDDD#77xgu0uuDDDDddDDdDDDdddddDduuuDGggggGgyxxgGGGg0x0GyuuDddDDDddDDdddDdDIuuDDDGGGG0xyuudDDDG0xxggGg0x0gxGgg0xxggggg0xxyuuddDDdDdDdddddddddDDDu0xudDdDddDddddduuuDDddddd0uudddddDDDddddddduuuDddDDddDDdddddDdddddddddddddddDdddDdduuuddDdDddddDDdddddddDDdddDDddddDdddddduDddduDFDudDddDAdddddddiuuddDdddDDddGDdDddDdDDDddDdDddddDddddduuudDIdddDDDdDdDDddddDDdDdddDeeededddddddddduuudDDddDDddddDIuudDDDDddDDDddDDDDDDdDdddddDDDd#55eDd#44ddDdddddDDDfuuDdDdDDDDDdDdDdddddddDDddDddu#44DDddd#44uDdddDdddddddDddDdDDdddddDDd#44DdDA0uuDDDDdddddddDdddddDddddDDdddddDdddddda0uuuDdDd0uuDDdddDddDdDDdddDddddDdDdDddddddddDDDddddddddd#84ueeDDddEDa0u#770x0x0x0x0x#44DdDDDDddDDDDdddddDddDDddDDddddDdDdddddddddddDdDdddddIuuDddDDDDDdDddDdDDdddDddddddddddddDduuuddDDddDddgdgd0uuddDddddddddddddddDDddDdddDdddd#440uuDDddddddddddddddDdDdddddddDdddddddddDdddDdddddddgddddDdddddddddddddDdddd#44uDDdDDddddDDDddDDdddddddDdDda#44dDddDddddddddddddddddDdddddDddDDddDDdd#44DDDddDddddDDDaD#44ddDddddDDgdddddddddDddddDdddddddddiuuDdDdDdddddddDddDdDDdddddDDd#44uuDdDdd0uuDd#54DDdDddddddddddgddddeDddDEddddddEddDda#44DDDDdddddddDdddddddddddDdddddDddddddddddddGdddduuuDdDddDdDDdDDddddDdDddddddDDddddddddddddddddddddda0u0u0u0u0u0u0u0u0u#44dddDdDdddDddDDdiuuDDddddddddddddddddiuuDddDDddddDdddddgDDdddddddddddDDDDiuuDDdddddDdDdddddduuuDDDdDDDdDddDdDDDddddDdddDDdDuuudddddDDiuuDDDddddDdDDdDDDDdddddddDdDddDdddDdddddddddDdddDd0wuuDdddDdDdDDdDDddDddDdDDdDddddddddddddddddddddddDddddddddddDDdddDdDFuudDdDdDDdddddddddddDdDdddddddddddddddddDdddDddddddd0uuddddddDDdddddddddDDddddddduuuDDDDdd0uuDDdDdDDddDdddddddfuudDdddddddddddDddDDdd0u#44DDddad#44uDD#44DDDdDddddDdddDdddDddDdd#44DddddddddddgDDddDDDddddeDDeddddddDDdduuudGGdDdDDDDddDDddddDDdDddddeeddeddddDDdddduuuEEDddDDddddDFuudDDDDddDDDDdDdddDDdDdedDDddddddDdddddddddddddddddddiuuDddDDDDDdDddDdDDdddDddddddddddddDduuuddDDddDddgddd0uuddDdddddeddddddddDDddDdddDdddDDddda#44DDdDdddDdddDddGdDdddDddDDddddddDddddddddduuuddDDDDdDddddddddddddDdDDDdDddDdDdDAD0u#44DDDdDD#44DEDddDdddddddddDf0uuDddDdddDDddddddddddddddddddddddddduuuDDDddDDddddddddddDuuDDEddr0uuuDDddddddDDddADddddDDdddddddddddddaduuudDdDddddDDddddddddddd0uudDu#44DDdDDDdDdDDDuuudDDdDDddDdddddddiuudDddddDDdddddDddAd#84udDDDDDdddDDd0u0yxGGgGggggGGyuuDddDDDddDDDdDDdA0uuuddDDddDDddGDDddDDD0uuDdDDDdddDDDDddddddddDdddDD0uuuDdddDddddDDdddddDddDddddddddddddDddddddddddDfuudddddddddDDdddDDddddDdddDDDdddddddddddddDDdDDdddddddddddddddddddDdddduuuDddDDDDdDdddddaddddDddDdfuuDddddddddddddDDdDDdDdddDDeduuuDDDddDdd0uuuDDdd0uuDddDdDDDDdDddiuudddDDDddDdDddDDdDdddDddDdDdDddad0uuDDDdDdddddDddDddddddddDDdddddDddddddddddddddddddddddDddDdddAu0uuudDDdDdddddDdddddddfuuuDdDdddddDddddddDdddDDddddddddDDd0uuuDddddddDDDdddddduuuDddDDDdDDa0u0r0uuuDdddDdDdDDdDDdddddDdDDdDdddddddddddddddddddddddddddddddddDddddDDdFuuddddddDddddddddddddDDddddddDda0uuuADddA0u0u0u0u0u0u#44DDdDDDdDDDd#44udD#44DdD#44udddDdddddddddddddddA#44dd0uuDddDdd#44DddDdDDDdd0uuuDdDdDDd0uuuDddDDEdDadDDd0uuDDDdddddddddddddddddddddDDdddddduuud0uuuDDdDddDdDdddDddddDddDdDddddddddadddddddDDdddddddDddDdddddDdDddddd#44udDDdDd0uudd#770y0x#44DDd#44DdddDDDDdDddd#44DDddddddddddddddddddddddddeduvuDDDdddddDdddDdddddfuuuDDdDdddDdDD#44DddddDddDDdDDDdddddDddddddf0uuDddDDDddDggggggggGggyuudDDdDdDDdDDdddDuuudDDDDdDDDduuuDDddddfuuddDDDdDegdDdaddddDDddddddddDDddDdFuuDdddDdddddDDDddDdDdDddddDdd#55EDDDd#44uDDFEDad#44DdddddddDdddddddau#44dDd#44D0uuDDdDDEedd#44uDDDdDDdDddddddDdddd#44DDdd#44DdDDDddDdDDeeHh0yyvvEEEeeEEhHH0yyvveEeEeEeeeEEeedDDDduuuDGgg0xxg0xx0xxhggghuuDddDDDddDDdDdDdDIuuDDDGGG0xyuudDDDGGGgg0xxgggG0xxgGgggggg0xxyuuddDDdDdDdddddddddDDDuxxDdDDdddDddddduuuDDdddddddddddddDDDddddddduuuDddDDddDDdddddDdddddddddddddddDdedDdduuuddDdDddddDDdddddddDDdddDDddDdDddddddudddduDIDudDdDdDDDdddddfuuddDDddDDddGDDdddDDDDDdd0uuddddddDDdduuudGGddDdDdDddDDddddDDdddddDDeedEDdddddddDiuudDDddddddddDiuudDDDDddDddDdddddDddDDdddDddddDdDdddddddddddDdddddDdFuuDdddDd#74DDGDDddDdDG0xx0uuDdddddddddddddddad0xxG0uuDddddDDddddd0xxggggggGddDuuudDDdddddDDddGddHuuDDDddDDgGGg0xxDu0xxGGgGg0xxG0uuDddDDDddDDdddDdDIuuDDDGGG0xxxuudDDDGG0x0GxgGgggG0xxgGggggggg0xuuddDDdDdDd0uuEDDEdDDduxxDdDdDddDdddDDuuuDDddddddddddddddddddddddDuuuDdDDDddDDdddddDdddddddddddddddd0uuDDD0uuuaDdA0uuDdd0u0uuDDAD0uuDDDDddddAd0urDaa0u0u0u0u0u0u#65EeedeDEfEDd#44uedefddDDdddDddDDduudduudddDdDuudddd#44dddddDdDdDddddDdddDddddddddddddDdddddddDDuuuDdDDDddDg0x0xxgggyuudDDdDdDDdDDdddDuuudDDDDdDDDduuuDDddddfuuDDddddDD0uudDddDddDddddDdddddddddIuuDdDdDddddddd#44udDddddddDddDddDdddddDd0u0uuu0uuudDDdDD0u0r0u#44udDddddd#44DDDddddddD#44dDdddDdDdDDa#54udDDEdd0urD0uuDddddDddaD0u0u0r0u#44Ddd#44DDD#44dDddDDdDDdddddDddDDDDDdDdDddDDDddFuuDDDDDdddDdddddddddDDdddDDdddddduuudDDDiuuDDddDddddddddddddddddddDdddddddDDddDddDuuDdddDddddddddddddddddDdddddddddddduuuDDdDDDDDDdddDddddDddDdDdDdddddddddddddddDdddddddddddddddddDdddddddduuuDdDdddDddddddgdDdddDddDDddddddDddddddddDuuuddDDDDdDddddddddddddDdDDDdDdDddDdDDddAdddddduuudDddddDdddddddddddddddddDdddddddddddDdddddddddduxudddDddDdDdddDDddDdddddddddddDddddddD#770x0x0x0x#44DdDDddddD#74uddDDDdDDdDDdddd#44DDDdedddddddddead0u#44DDDDDDddd0u#44uDddddddddddDdddDdddda#44DDdDDdddddddddgdddddddddddddddddddDDddDdddDdddddddDdDdddddddddddddDDddddddDdddddDddddDuuuDdDddddddddddDDDDGad#55EEeeeEeEEeeeeEeAEeeeeEEeeeeeeeeeeEevvveeEEeeEeeheeeheeeeEeeeeeeeeeeeeeeEEeeEeeeEeeeeeeeEeEeeeeeeeeeeeeeeEeeeeeeeeeeeeeeeeeevvvEeEeeeeeeeeeeeeeEEehEeeeeeeeEEeeeeeeeeeeeeeeeeeeeeeeefuvvEeEeeeeeeeeeeeeeEEeeeeEeeeeeEeeeeeeeeeeeeHeeeevvvEeEeeeEEEeEEeeeeEeEeeeeeeeeead0vvEEeeEEeeEdd0vvEeEEeeeeeeeeeEeeeeeivvEEEeeeeEeEEeEEeeeeeeeevvveEEEEEEevvvEEeeEvvvEEeeeeeEEEEvvvEeEeEEeEEeEeEEeeeeEeEEeeEeEvvveeEeEEEEeeeefuvveeeEeeeeeeEeeeeeEeeeEeeEeEeEeeeeeeeeeeeeeeeivvEEeEeeEEEeeEeeeeEeEeeeeeeeeeeeeeeeeeeeeeeeeeeeeeeeeeeeeeeeeEeeeeeeeeeeeeeeeeeeeeeivvEEEEeEeeeEeeEeeeeeeeeeeeeeeeEeeeeeeeeeeeeedeeeeeEeeeeeeeeeIvvEeEEAeEEEEeEEeIvvEEedeeeeeeeeeeeeeefuvvEeDeeeeeeeeeeeehAEeEEeeeeeeeeeeEefuvvEEeeeeeEEEeeeeeevvvEeeEEEEeeeeeeeEEeeeeeEeeEEeevvveeeeEeEfuvvEEEeeeeeeEEEeeEeEeEeeeeeeedeeeeeEeedeeeeeeEeedEeeFvvEeeeEeEeEeEEeeEeeeeEeEeeeeeeeeeeeEeeeeEEeeeeeeEeeeeeeEeeeeeeeeEEeivveEeEeeeeeeeeeeeeeeEeEeeeeeeeEEeeeeeeEeeeeeEeeeeeeeheeeEEeedduueaedeeefeFEeeeEEeevvvEEEEEeEeEEevvveEEeEefeEad0vvEEEeeeeeeeeeeeeeeeeeeeeeEEeeeeeevvveEEEivvEEeeEeeeeeeeeeeeee0vveeEeeeeeeeEEeeEeeEuvEeeeEeeeeeeeeeeeeeeeeeeeeeeeeeeeeevvvEEeEeeEeEeeeEeeeeEeEeeEeEeeeeeeeeeeeeeeeEeeeeeeeeeeeeeeeeeeeeeeeeeevvvEeEeeeeeeeeeeheeeeeEeeEEeeeeeeEeeEeeeeeevvvEEEEEeEeefEeeeeeeeeeEeEEEeEeEeEEeeeeeEeeEeeevvveEFEEeEeeeeeeeeeeeeeeeeeEffffffeeeeedeeeeeeeeeEvyveeeEeeEeEeeeEEeEEeeeeeeeeeeeeeeefeeeEeeeeeeeeeeeeeeeeeeEeeefuvveEEEEEEEeeEEeEeeeeeEEeeEeeEeeeeeeeeeeeeeevvEeEEEeeeEEefEfvvEeEEeeeeeeeeEeEeeEeeefuvvEEEeEeeeEeeeeeeeeeeeeeeeeeeeEehhhihhhhhH0yyhhhhhhhhhhhhihhhheeeeeeeeeeeeEeEEEvvvEEeeEEEEeeeDeeefuvveeEeEeeeEeeEEEEeeeeeeeeeehhHhHh0vvFuvveeEeeeEEEeeeeeeeeeeeeeeeeeeeedeeevuvDD0vvEEeddu0vveEeeeeeEEeeEeEEeeeEEEEeeeeeeeeeeeeeevvvEEeEeEeeEEeeeeeeeeeeeeeeeevvvEEeeeeeEeeeeeefevvvEeeEEEeEeeEeeEeeeeeeeeeeeeevvvEEeeEeEeEeeeeEeefEeeeeefeeeeeeeeeeeeeeEFuvvEeEEEeeehhhhhhhh0yyyvveEEeEeEEeeeeeeevvveEEeEEEEeevvveEeeeefuvvEEeeeeEEheEeEeeEeeEeeeeEeedeEeeEeFuvvEeeeEeeeeeeEEeeEeEEeeeeeEEe#44uDDdddadD0uudDdDDad#74uddDDddDDdddd#44DDddddddDddddddddDDDDDdddDddDDDddiuuDDddddddddddddddddDddddDDdddddduuudDDDiuuDDDDDddDdddddddddddddddDdadDdddDdDdddddDuuDDdDddddddDdDdddddddDdddddddddddduuuDDdD0uudDDdDDddddDddDdDddddddddddddddddDDdddddddDdddddddddddddddddDuuuDdDdddDdddDddgdDdddDda0uxddddddDDdddddDDDdDddddDdddDdddddadddDDdddddddddDDdddDddDddd0w#44DD0uuuDddDDDDDdDdddDADDdddDDdddddddddddduuudDDDddDdggdgdgddddDddddddddddddddDDddDdddDdddDDddddDdddddddddddddD0uudddddddDdddddddduuudDDddddddAddddDDdgdGGDdddDdDDDddd0uudddddddddddddddddfuudDDddDDddddddDddDdddddddddddDDdddddddddd0uuDDa#770x0x0x0x0x0x0x0x#770x0x#44DDdDddDddd#44dDD0uudDDDdDddD#44DDDDDDDdDdddddd#770G0x0x0xx0x#44DdDDddDDdDddddDdddddddDdDDdddDdG0xxgG0x0gxGgg0xxggggggggggg0uudddddddddddd#44DdddddDDddd#44DDddDDddDdDDddddddddDdddddddddddda#44DdDDDdddDuuuDD#44DDDDDdDdDDddddiuuddDdddDDddGDdDDdDDDDDddDdDddddDdDDdduuudG0uuDdDDDddDDddddDDdDdddDeeedddddda#44DdDddD#44AD0uuADddDDdddDDdddDDd#77GgDdDdddddddddddGgggggg0xxddd0uuDDDDddDDdDDDddddddd#44DGDDDdDdDGg0xxddDddddddddddddddddDDddDDGgggggxxx0uuDdddddddddddGgggggg0xxddDuuudDDdddDdDDdd0yyhyuuDDEdD#44DDDDDddddDDdddddddddddDDddDuuuDDdddddDdddddddduuuDddDDDddDDdDDaD0u0uuDDEddddddddddDedDdFDdddddDDd#44D0uuuDDDDdDdddDdddddddddddDDddd#44uDdddDddDdDDddddddddDdddddddddddddddDddddddDdIuudddddddddDDdddDDdDDdDdddDd0uuuDDdDdddDeEddDDdddddddDuuudDDDDDDduuuD0u#44dDdddddDDddDdd0u0uuDDdDdDddDdduuu0u#44DdDD#44uDDd#440uudDddddddDdddddddDdddDDDdddDdDDdddddDddDddduuudDddddDddddddddddddddddDDddddddDDdddDddddddd0uwuxuDddDddDdDdddDDDdDdddddddddddDdddddddDddDDddddddddddDdddddddi#44udD0uuDD#44DDdDDiuu#44DddDdDDdDDdDdDDddddDddDddDDduuuddDdDDDDddddfuudddDddddDdDdddDdDdddDddDdDdDdddddddddddddddiuudddDddDDDddDdDDdDdDdddddddDDdddddddddddddddddddddddddddddddDdddddddddddddddddddddiuuDDDDdDdddDdddddddddddDDdDdddDdddddDdddddddddddddDdddddddddFuuDdDDDdDddddDDdd#44DDdDeedeeEdddddddddDdDddddddddddddeddddDdddDdddddddgddddDdddddddddddddDdddDddDdduuuDDDDDeDdD#44DDDa#44DddD#74DdDDdDDDDddddddduuudDDDd#44DdDDDddDdDDdd0xxGyuuF0uuDDGgggg0uu0yuDdDD0uuDDDdDDddDDdddddDdddddddddddddddDdddDdduuuddAD0uudDDD0uuDdgGddDdDDDdddDdddddDddddddDeddEDdddddddDd0uuDDddDDDDDdDdddDDdDdddc0w0uuuDdDdddddddddddddDdddddDdddddd0w0uuudDDDadDDddddddddae0uuDddDdDDdDDdDdDDddddddDDddDdduuudf0uuudddDddddDdDdDDDaDDdDDdDDaf0uudddddDddddddDDdIuuDDddf0uuDdDddDDDdDddDdDDdddddae0u0uuDdDDdDdDDddddddDddddDdDd0uuDDdddDdddddd0uuDdddddDddDdddDdddDddDddD0uuddddddddddddddDdddddddddddddddddDdddddddduuuDdDdddddddDddgdDdddDdddddDDdddDdddddDd0uuDdAd0uuDDDD0uuDDDddddddddDad0uuDDdDDDDdDDDddddDDdddDddf0u0xuuddDdDdDDddddddduuudDDDdd0u0u#44DDdDDddddG0uxdgdddddddddddddddddddddddDdddDdddddddDddddddddddddddddDdddddddddddddddddduuuDdDddddddddddDDDD0uxdDdddDdDDDdddddddddddDdddddddddddIuuDdDdddddddddddddDddddDDdddddDDddddddDddddGdddduuuDdDddDDDDdDDdDdddDddDddddDDddddddddddddddddddddddddddddddddDdddddddddddddddiuuDdddDddddDDdddddDddDdddddddddddddddDddddddDdFuudDdddddddDDdddDDdDDdDdddDdDdddddddddddddddddDddddddddddddddddddddDddduuudDdDDDDdDddddDdddddDDdddfuuDddddddddddddddddddddddddEevvuDDDdddddDdddDdddddiuudddDdddDeEdDDDdddddddduuudDDDDDDduuuDDddDuuuDDdddddDDDFuuDDddDDDDDdDdDDddddddDDddDdduuuddDdDDDDdDddf#44DdAd0uuuDDdd#65veFedD#770x0x0xx0x0x#44DDDDDdDdDDddddiuudDddddDDdDgDDddaD#77xiuuDGDdDDdddgGDggddDDdDDDdddddddddDDDdDddDgdggGGxxxgdADddddD0u#47vDd#44Dd0uuDDdddfuuDDddDddddddddddddddddddDdddddddDddddddDuDuDDddddddddad#770x0xx0x0x0x#44DddDddDdddddddddDDDuuDDDdduuuddddddddFuudDddddddDDdDDDDDddDdddddddddddddddfuuDDdD0uudDDdddddddddddDDddDuuuDDDddddDdddddddduuuDdDDDDdDDDddDddddddDddddddduuuDDddddDdDdddddDDdDddddddddddddDdddddddDFuuuDdDDDddDG0xxggggGggyuudDDDDdDDdDDddeDuuudDDDDDdDDduuudDddddfuuDDad0u#44DdDddddddDB#44DdDD0xxDd#44DdDDddDDddDDDDdDDDduuuDGggggGgxxxgG0xxggggxuuDddDDDddDdDdd#44DDDdDD#44DDdDDDddDddddddd0uuddddddddddddDddiuuDDdddddDDDdddddd0uuDDDddDDdDddddddDddddDdddDddddddd0uuDDddDdDDdddddddddddDdDdddddddddDdddddddDdd#44ddDDddDdddddddddddDdddddDDdddddddd#44DdDdDdddddDddDddddddddDDdddddDddddddddddddddddDddddddddddddduuuDdDDDdDA#770x0x0x0x0x0xx0x0xx0x0x#44DDDDdddddDdddddddddddddddddddDdggg0xxgad#780x0xx#44uddddDDdddddDDDdDddddDddddddDddddddd#54uDDDDddd#44ddDDDdddddddddddddddDdddDDddddddDdddddddddddDdddddddIuuDdDd0uuuddDDDdDdggdddgdddd#44udDDdDdDddddDDDDD#44dAD#44DDDDDdDdDDDdddfuudDddddDDdDgDDddDD0uuDddDDdddddddDDddu0uuGGddDdDDDdddDdddd0uudddddEeedEDdddddddDiuudDDddddddddDiuudDDDDddDDDDdddddDddDdddDDddddddDddddddddddddddddddda0uuDddDdddddddDddddddeddGddddddDddDddddddddddDddddd0u#44uDDDDddddDddddDDddddddDdDDdddDd0xxggg0x0gx0xxgggg0xxgggggggggGddddddddddddDdDDDuuuDDddDDDDddDDdddiuuddDdDdddDddDDDDDddDdddDDda#44DddDD#44uDddDd0uxuDDD#44DdDDdG0xxg0xxgg0xx0xx0xxg0xxgGgxuuDDDDdDdDdddddddddDDD0uuDDDddDddddd0uuDdDD0u0uuDad0uuDDdDad0u#44DdDDDDddDddDddddddddDdddDDddddddDdddddddddddddddddddIuuDddDDDDDdDddddDDdddDddddddddddddDduuuddDDddDddddgdgddddDddddddddddddddDDddDdddDdddDDddDdDddddddddDDddddDddddddddddddDddddIuuAddDddddddddddDDdhdGGDdddDdDDDdddddddddddDddddDDdddddfuuAD#74DDgDadDdddgGgDA#44uDAd#44DdDA#44dDDDddDdDdddDDdad0uuDdDdddddddddddGdDdddDddDDddddddDddddddddd0uuDDddDDDDdDDdDDDdddDDDDdddddddddddddiuuDDdDddddDDdddddddddddddddDuuuDDdddddDdddddddduuuDddDDDddDDdADdDDdddDddddda0uuddDdDdDDddddddduuudDDDddDDdduuudDddddiuuDDdDDdDdgdDddDdDddDddddDdddddddddfuuDdDdDddddddDDddDdDDdddddDDd#44DAD0uuuDdddAD#44DddDad#44Dd0uu#64DdDuvDDDd#44DdDddddDDgdddddddddDddddDdddddddddDu#44dDDDdddddddd#44DDdDdDddDdd0uuDDddDDDDdddddddDDdddddDddDDDDuuudddddDDiuuDDDddddddDDdddDEDdDddddDdDdDDdddDddddddddDDdddDddIuuDdddDdDDddddddDDddDdDDdDddddddddddddddddddddddDdddddDddddd#44DdDDdDDa0u#770x0xx0x0x0xxg0xx0x0x#44udDD#84DdDDDddDDdddddeDvuudDDDa#44dDddAA#84uDDd#44uArwdFdddda#77xgddDdddddddddddGggggggggGdDduuudDDdddDdDDddGghgyuuDDDDdDDg0xxgggGyuudDdDdDdddDDddddDDduuuDGgg0xxhxxgGGGg0xxgyuuDddDDDddDdDDdDdDIuuDDDGDA#44ddDDdddddddDddddddedd0uudddddd#45uDDDdddddddddDdddddiuuDDdDdddDdDddDDdddddddDuur#44DddDfDD#44DdDDDDDDDD0uuDdDDdDdDddddDDd0uuDdDDdddDD0uuDDDDDd0uuDDDddddDDgddd#44DDdDdd#95uuvFeEEEefda#44DddDdDDDDddddiuudddDdddad#47yddDDeedDdDddduvuD#44DdDddDdDdDddddDdddDddddddddddddddddddddDFuuuDdDDDddDGGgggggg0xxyuudDDDdDDDddddddDuuudDDDddDDDDvuudDddddfuuad#74udDDDdDADddddd#770x0x0x0x0x#44FdDdDfdDDdFDdeeDDddeddDdad#45EdEDdEDehHHhh0yyyuueDD#44DdDddddDDgddddddddddddddDdddddddddiru#770xx0x0x0x0x0xx#77x0uuDddedDDedad0uuudDDDddDdDDdd0yxGyuuDDDdDDDgGGggggGyuudDdDdDdddDDddddDDduuuDGggggGgxxxgGGG0xxg0uu#44DdEDDDd#44uddDdddd#770x0x0x0x0x0x0x0x#74uddDdAA#44DdDDDdddDdddDiuuAd#44dDddddddddddddDDDddDddiuuDDDdDdDdDddddDDddddddDddddddDdgggggggggGgGgggGgggggggggggggggddddddddddddDdDDDuuuDDddDDDDdddDddDiuudDDdDdddDddDDDDDdfddddDDdgggGGggDDFuuDdDddddd0uuddddddDdddddDDdddddddduuuDDDdad#44DDdDDdddd0uugdgddddddddDddddddddddDDddDdddddddDDddddDdddddddddddddDDddddddDdddddDddddFuuDdDddddadDddddDDdddG0uuddadddDDdddddddddddddddDDdddddiuudDDdddddddddddddDddddDDdddddDDddddddDddddgddddu#44DdDDddDDddDDddddddd#44udDDdDdDddDd0uuDAd0yuuddDDD#44DdDDddDDdDDDdddddDduuuDGdgGGdd#44uaD#44ddDdddddDDDDddddddddDdddDDddddddDdddddddddddddDdddddIuuDdddDDDDDDdddDDDDeddDDddddddddDddduuudDDDddDdggdgdgddddDddddddddddddddDDddDdddDdddDDddDdDddddedddddddeDDddddddeddDdddddddDuuuDdDdddddDDddddDDdgdDGDdDedDDDDDddddddddddDdddddddddddiuuDdDddddeddddeDddDdddddDdddddDDdddddddddddGdDDDuuuEddddDdDDdDDdDEdDdddDddddDDdddDddddddddddddddddddddddddeeddDdddddddddddddddfuuDdddDdDddDDdddDddddDdd#770x0x#44DDd#44uDdDddd0uuuDdddDddDdDDddddddddDddddddddddddDddDddddddDdFuudDdddddddddddddDdDDdDdddDdDddddddddddddddddddddddddddddddddddddddDddduuudDdDDDDdDddddDdddddDDdddiuuDddddddddddddddddddddddddeevvuDDDdddddAdddddddddfuuudddDdddDeEDdDDdddddddduuudDDDDDDdr0uuudDdddddDDDiuuDdDdDDDDDdDdDdddddddDDd#44uDdd#44DDdDDD#44uDdDDDdDDDDDuuudDDd0uuuDd0uuuDDDDDD0uuDDDDDdd0u0uuDDDdddddddddddDDddDddddu0uuDDDddDDDd0uuD0uuDddDddd0uuDddddddDdIuuDDddddddDDdDDDDdda0uuDDDDdDdddDDdddddddddddD0uudu0uuDDddddDDDddDddDddddddddddddd0uuuDdAd0uudddDDddDDddddddDuuudDDDDDdDDdu#44DDa#84DdDDdGG0xxg0xxghGgHg0xx0xyggggGhyuuDDDDdDdDdddddddddDDDuxxDdDDdddDeddeduuuEDdddddddddddddDDDddddddDuuuDdDDDddDDdddddDddddddeddddddddDdddddduuuddDdDddddDDdddddedEDdddEEedddDdddddduAaddDDFDudDDDdDdDdddddiuuddDdddDDdDgDDdddDDDDDddDDddddddddDddurudDGddDdDDdDdDDdddd0uuDddDddddddddDfuudDDDDddDddDdddddDddDDddDDddddDdDdddddddddddddddddd0uudDdddDDDDdddeDdDDdddDddddddddddddDduuuddDDddddggd0uxdddddddddddddddddddddddDdddDdddddddDdDddddddddddddddDddddDddddddddddddduuuDdDddddddddddDDDd0u0GudddDdDDDdddddddddddDddddDDddddda#44udDDdDDDDdduurD#44uDDddDuuuDDdddddDDDa0u0uuDDDdDdddd#47DdddDddDdDddddddDDdddddddddddddddd#44uDDddDddddDDDDD#44DddDddDddddda#44DDDddddDdDd#44uDDDDddddDDdDDDDD#770x0x0x0g0x0x0g0x#44udDDDDDDdu#44Edd#44uDDDdddddddddddddfuudDddddDDdddddDddaDdduudDdDdDdddddiuuDDdddddddddDdddddddddddDDdddddduuudDDDiuuDDDDDddDdddddddddddddddDdddddddDDddDddDuDudddDddddddddddddddddddddddddddddduuuDDdDdDDDDddDDddddDddDdDdDdddddddddddddddDddddddddddddddddddDddddddDuuuDdDdddDdddDddGdDdddDdddddDDddddD0u0uuddDddDdddddDDDdDddddDdddDdddddddDddDddddddddddddddddddddddfuudDDDDDDDDdDDdDdddDDDDdDDddDdddddddddddddduuDdDDDdddDDddDiuuDDDDdddddddddDDddDdddiuuDDDdDdDdDddddDdddddddDdDDdddDd0xxggGggGGg0xx0x0gxggg0xxgg0xxddddddddddddDdDDDuuuDDddDDDDdddDddDfuuuddDdDdddDddDDDDDddddddDDdg0x0xxDDFuuDdDddddddDDdddddddddDDdDDDddddddduuuDDDddddddddddddddDuuDDDdduuudddddd#44udDDdDdDdDDdd#770x0x0x#44DdA0uuD0uuDdDDdDDDDdDuuudD#44DDDDDdDddDDddddddddddd0uudduuuDDdddddDdddddddduuuDddDDDddDDdDDDdddddDddddddiuuDDddddDdDdddddDDdDddddddddddddDddddddddduuuDdDDDddDGGgggg0xxGgxuudDDDdDDDddddddDuuudDDDddDDdDuuuDDddddfuuDDdDDdDDgdDdDddDDDDddddDdddddddddFuuDdddDddddDDDDddddDdDDdddDDd#44DDda0uuuDDDdddddDddddddddddddDddddddDdgggggGggGGgg0xxHggggg0xx0xxggGddddddddddddDdDAd#84uDDDddD#44DddDdDDdDDdDddddddddd#44DddddddddddDdd#44DDDd0uudDDdGGGgg0xxggda#44uDdDddddddd#44DddDdDDdDDdDDddddddDdDDddDDduuuddDdDDDDddddfuudddDDDddDdDddDDdDdddDad#77GGdD0uuDDDddDdd0uuudd#44DDDdDdDddDDdddddddddddDDdddu0uuuDDddddDDgdDdDddDDd#55EDd#44DDddDdDddddDdddddddddDdddddDddDDddDDddDdDdddduuudDdddDDddddddddddddddDdd#45ddddDdEDdddddddedDd#44ddDdDDDAd#77x0x0x0x0x0x0x#44DDdddddDDddDddDddddddddd0uuduuuDDddDdddDdddddDDdDddddddddddddD#44uDDdDdDDddDDdddDDDiuuDDD0xxGGgyuudDDDAA0u#44dddDdDDdDdddDDdddddDdDDddDDduuuddDdDDDDddddiuudddDDDddDd0uuDdDdddddddddddDddDa#44uDDdDdddddd0u0u0u#44DDdDDdddddddddD0uuDD#44udd#45vDeEDedEEdEEEeedd#44DddddddD0uuddddddDdDddddddDDddddddddddddddddddddd0uuddddddddDdddddddddddddddfuuDdddDdDddDDdddDddddDdDDdddddddddDddDddddddDdFuudddddddddDDdddDDdDDdDdddDdDddddddddddaddDdddDdddddddddddddddddDDdDddduuuDDdDDDDddDdddDdddddDDdddiuuDddddddddddddDdddDddddd#44DdDDDDDDDDdDDdDDdddddDddDddDdddddddddddddduuDDDDDddddddDDiuuDDDDddDddddDdDDDddDddiuuDDDddDDdDdddddDddddddDdDDdddDd0xxggGgGGGG0xxgGg0xxg0xxggggGGddddddddddddDdDDduuuDDddDDDDddDDdddiuuddDdDdddDddDDDDDddddddDDdgg0x0GxddiuuDdDddddddddDdddddddddddDDDddddddDuuuDD#44DdDDDDDDDaDdad#44DDdDDddddDddgdgdddddddddddddddddddddddDdddDdddddddDdDddddddd#44DDddddddddddddddd#44uDDddD#46EEeddDD#44uda#44ddDdDdA#44DdDDDDDDDDDDDdDddDD#77IxuuDGDdDdDddgGGGGdddddddddddddddddddDDddDDgdggGGxx0xuDDdddddddddddd#44ddD0uuDDddddddddd0uudddDDaddddDdDddddDddddd#44ddDDdDdDdDDdDDdDDDDdddddddgggGGggdda#44dDdddddDDdddddDddDddDDdDdDdDdddddiuuDDdddddddddddddddddddddDDdddddduuudDDDiuuDDDDDddDdddddddddddddddDdddddddDdddDddDDuuDDddddddddDdDdddddddDdddddddddddduuuDDdDDDDdDDdDDddDdDddDdDddddddddddddddddDDdddddddDdddddddddddddddddDuuuDdDddDDddddddHdddddDddDDddddddDddDdddddduuuddDDDDdDDDddddddddddDddddDDddDdDd#44DdddadDDDDdDDad#44dDddDdd0uudDdddddddDdddDDDdddDdDDd#44udddDddddDdDdDDDdDDad#44uDDddDd#780y0y0x0x0x0x0y0y0x#44dDDd#44Dddddd#74uDgDdDdDddgGGGGddDddddddddddddddddDDddDDGgGg0xxxxgddDdddddddddddGgggggggggddAu#77xGuuDGDdDDdddgGG0xuddddddddddddddddddDDddDDggggggx0xuDDdddddddddddGgG0xxgg0xu0uuuudDDdddDEDDddGGhgyuuDDDDdDD0xxggggGyuudDdDdDdddDD0ruDDDDuuuDGg0x0gxy0xyG0xxgg0uuDddDDDddDdDDdDdDIuuDDDGG0xxgyuudDDDG0xxggGgg0xx0xx0x0g0x0xxgyuwddDDdDdDdddddddddDDDuxxDdDad#44A0vuDDDddC0uuw0uuu0uuDDdddda0uuDD0uuDddDdDdddD#44Dad#44uDDddDDDddddDddDfuudDDdDdddDddDDDDDdddddddddggG0x0uuFuuDdDddddddDDddddddDdddddDDDddddddduuuDDDddDDdddddddddDduuDDDdduuuddddddddIuudDdddddddDdDDDDDDdDdddddddddddddddfuuuDDdDddddDDddddddeddddDDdd0u#44DDDDedDdhGGggghGyuudDdDDDdddDDdedd#44DDddddd#44DGDDddDdDGgGgdd0uxGddDDad0uuDd#44dddDd#54EEeeeEEDa#77xgxuuD0uuDDddDgGg0xuaDDdDddddddddddda#44DDdddDdDDdddddDdddDDDDdDdDddDDdddiuuDDdddddedddDdddddddddddDDdddddduuudDDDFuuDDDDDddDdddddddddddddddDdddddddDDddDddDuuDdddDddddddddddddddddddddddddddddduuuDDdDdDDDDdddDddddDddDdDddddddddddddddddDDdddddddddddddddddddddddddduuuDdDddDDdddddd0uudddDddDDdddd0uuddddddddDuuuddDDDDdDddDdddddddddDdDDDdDdDddDdDDdDDdDdddduuudDddddDddddddddddddddDdd#44DdDDDddDD#44DddDddDdddddddDDDiuuDDD0xxGGgyuudDDDG0x0GxGgggggGGgg0xx0x0gxdd0uuDDdDdDddddDDdddddddDDdddddddDdDdddddDuDddduDFDudDdDDDdDdddddiuuddDdddDDddGDDdddDDDDDddDdDddddddDDdduuud0xuDDdDdDddDDddddDDdDdddDdeededdddDDddDfuudDDddDDddddDiuudDDDDddDddDdddddDDdDDddddDD0uuDdDDdddDDddddddddd#44DdddddddD0uuDDdDDddddggdddgdddddDDdDddddddddddDDddDdddddddDDddddDddddaddddddddd0uuDDadddDDDDdDdd#44uDDdDddddDDddDDa#44wauudDddddd#44DDd#45Dda#55EEDad#44udddDdDDdddddddddddDdDdddddddddddddddddDdddDdddddddgdddDDdddddddddddddddDddddaDu#44DDdddddddddddd0uudddDddDDddddddDddddd0uuDdDDddDDdDddddddddddddDdDDddddDGdgggGgG0xxGggGGggggggg0xxgggGGdddddddddddddDDdDuuuDDddDDDdddDDddDfuuudDDdDdDddDDDDDDdddddddddd0xxgGggDDFuuDdDdddddddDDddddddddDDDDDDddddddDuuuDDDddDDddddddddDDduuDDDdduuuddddddDdIuuDDDDddddDDdDDDDDDdDdddddddddddddddiuuDDdDdDddDDdddddddddddddddDuuuDDdddddDdddddddduuuDddDDDddDDdDDddDdddDdddddDfuuuDDddddDdDdddddDDdDddddddddddddDdddddddDFuuuDdDDDddDGGggghgg0xxx#74DDdDdDDdddg0xxGdddddddddddddddddDAdDDddDGG0xxgxxx0uuDddddDDddddd0xx0xxgggdaDu#44udDddDddddddddddDdDDdDdddDdDdddddddddddddddddDdddddddddddddddddDDdDddduuudDdDdDDdDddddDdddddDDdddiuuDddddddddddddddddDdddddddEevvuDDDddddDddddDdddddiuuDDDddddDdEDdDDdddddddduuudDDDDDDduuuDDddDuuuDDDddddDDDduuuDDddDDDDDdDdDddddddDDDddDdduuuddDdDDDDddddfuudddDddddDdDdDDDdDdddDddDdDdDdddddddddddddddiuudddDDdDDdddDddddDdDddddddddddddddddddddddddddddddddddddddddDdda0u#770xx0x0x0x0x0x0x0xx0xy0x0x0xx0x0G0x0gx0y#44ddDDddDdggGgggddu#44DDdddDDDDDdddDdDDdddDddddddddddddDduuuddDDddddg0uxdgdddddddddddddddddddddddDdddDdddddddDdDdddddddddddddd0uudddddddDdddddddDuuuDdDdddddDDddddDDdddGGDdDddDDDDDddddddddddDdddddddddddiuudDDddDd#770G0xx0x#44DdDDDddddDdddGGggyuuDDDddDDhGH0xxgGyuudDdDDDdddDDddddDDDuuuDGggggGgyxxg0xxgggyuuDddDDDddDdDDd0uuDddDd0xxgggg0xx0xxg0xxgggggggGgyuuDDDDdDdddddddddddDDDuxxDdDDdddDddddduuuDDdddddddddddddDDDddddddduuuDddDDddDDdddddDdddddddddddddddDdddDdduuuddDdDddddDDdddddddDDdddddddDdDdddddDuDadauDEuuuDDDDdDdDdddddfuuddDdddDDddGDDddDDDdDDddDdDddDdddDDdduuudGGdDDdDDDdddddddddDdddddDDeedEDdddddddDiuudDDddddddddDiuudDDDDddDddDdddddDDdDDdDddd0uuDdDddDddddddddDdDdddDDFuuDddDDDDDDDdddDDDDddDddddddddddddDduuudDDDddDdgdddd0uuddDddddddddddddddDDddDdddDdddDDddDdDddddddddddddddDdddddddddddddddddduuuDdDdddddddDdddddDHDgDdddddDDDDDddddddddddDddddDDddddd0uuddDddddddddddDddDdddddddddDddddddddddddddgddddu0uuDddddDddddDDdddDDdddddddddDddddddddddDddd0uuDDdddddddddddddddddDddDddau0uuDdDDdddd0uuuaddaddddDdAddDDdDddDDdDddDd0uuDdddddadDDdDDdDDDDdddddddDdDDdddDDddddDdddddddddddddddddddddddddddddddddDdddddddddd0uuDDdDDDddDdddddddgddddddaddddddDDADiuuDDdddddDdDdddddduuuD0uuuDDdddddddDDDddDdDda0uuDDDddDdddDadDDdadddDdDDdDddddddddddddddddddddddDddddddddddDDdddDdDIuudddDdDDddddddddddddDDddddddDdDDdddddddDdddDdddddddgddddDdadDDdddddddddDDdddDDdDuuuDDDDDDDD0uuuaddddDddDddddDDdfruDDddddDDddddDdddDDDddddddDdDDddDIuuDDdddddddddddddddddddddDDdddddduruDDDADuuuDdDDDddDdddddddddDdddddDdddDdddDdddDddDuDuDDddddddddDdDdddddddDdddddddddddduuuDDdAddDdDDdDDddddDddDdDddddddddddddddddDDdddddddDdDddddddDdDddddddDuuuDdDdddddddDddda0uuDDddDDDdDdddddaddddda0uudDdddddDddddadddddddddddDD0uxDD0uuDDDDdDdDdDDdDAdDDddddddDDd0xx0xxdDIru#44DdDDddDdad0uuDDdD0xuDDDDdG0xud0u0uuxddDdDad0uudDdDDdDd0uuDA0uuDDDddDDDDDDdddDDDDdddDdddddddddDddirudDDDddd0uudDdddd#770x0x0x0x0xxgG0x0xx0x0xx0x#44dddDa#44DDDDD#44DdddDdDDdddddddddDdDddddddDDddddddddddddddddddddddddddddddddDdddddddddddddddiuuDdddDdDddDDddddddddDdddddddddddddddDddddddDdiuudDddddddddddddDDdDDdDdddDdDdddddddddddddddddDdddddddddddddddddddddddduuudDdd#44DddddddD#770x0G0xx0x0x0x0xx0x#44DDddDddddddDdddddddDdddDDDdDdDaA#44DDddduuuddddddDdIuuaA#44DdAD#44DddDdddDDddGDDddDDDdDDddDdDddddddDDdduuudGGdDDdDdDddDDd0uuDDdddddDedddDDdddddddDfuudDDddDDDdddDIuudDDDDddDDDDdDDDDDDdDDdddddDDdDdDdddddddddddDdddddddIuuDddDDDDDdDdddDDDDddDdddddddddddddduuudDDDddddgddgd0uudddddddddddddddddDDddDdddDdddDDddDdDddddddddddddaD0u#55Edd#44DdDDDdddDDdDDiuuDDDDddDddddddDDDddDddiuuDDDddDDdDddddDDddddddDdDDdddDdGggggGgGGGg0xx0xxggggggggggg0xudddddddddddDdDDDuuuDDDdDDDdddDDdddfuuddDdDdddDddDDDDDdededdDDdgggGGggdDIuuDdDddd0uuDDddddddddddddDDdddddddduuuDDDddddddddddddDDDuuDDDdduuuddddddDdFuuDDddddddd0uuDDDDDdddddddddddddddddfuuD0uuDdddddddDdddddddduuuDddDDDddDDdDDDdddddDdddddDf0uuDddddDdDdddddDDdDddddddddddddDddddddddiuuDdDDDddDGGgggggg0xxxuudDDDDdDDdDDddddu#44Dd0u0uuDdaDdDDddd#44DDDDdddddDddddDddddDdDdddiuuDddddddddddddddddDddddddddd#54dDdeddddd#44DdddDddDDdddddDdDDedDDddduudDDdddDDddddDdddddddddddddddddddddddddddddddddDdddddddddfuuDDDDDddDDDdddddDdddddDDdDdddDdddddDdddddddddDdddDdddddddddIuuDdDDDdDD0uuDdDdDddDdDddDdDDdddddddddDdDDuuudddddDDiuuDDdddddddDDdDDDDdddddddDddddDDddddddddddDddddddddiuuDdddDdDdDDdDDddDddDdDDdDddddddddDDdddddddaddddDddeddDddddDddddDDdIuudddDdDDddddddddddddDDddDDddDDDDdddddddDddDddddddddgddddDddddddddddddddDDdddDDdDuuuDDDDddDDDDDuuudDDdDDddDddddDDdfuuDdDDDdDDddddddddDDDddddd0u0u0u0u#44DDdddDdDDdddddDddDDDDDdDdDddDDDddiuuDDddddddd#44dDdddDDDdDDdDDddddDddDdDdddddddddddeddddDDdddddddddDddddddFeDddddddDuuuDdDdddDeeddddgdddddDddDDddddddDddfffffdduuuddEDDFdFdddefddffeddDdDDDdDeDddDDFFffFfefafewuuA#44DDddgg0x0GyuudAD#44uDDDDDDD0u#44DdDdddddDDDiuuDdDdDDDDDdDdDdddddddDDddDdDuuuddDdDDDDddddfuvvdddDddddDdDdddDdDdddDdeDdDdDddddddddddeddddiuudddDddDDDddDad#44Dd0uuDdDddDdddad#770x0x0x#44DDDddDddd0uuddddddddddddDdddddddDDddDddDuuDdddDddddddddddddddddddddddddddddduuuDDdDdDDDDdddDddddDddDdDdDdddddddddddddddDdddddddddddddddddDdddddddd0u0u#44FDduudDddDDDdfdddduruDDDdDuudFDddDdFDDduufddedfAuuuuDuuudddddDDiuuDDfdDdfddDDdDAuuDddd0uuruuuruuDDdFfDDDDAuwDuudduwddDdduwduufdfdffDfdededdddfdfddddddddfefFDddfDDdFuudddDdDDdfdddddddddDdDfduuddddauudddddddfFdddddd#44DdDDDDEDD#45uDDDdddddDdddDdddddfuuDDdDa#44DddddDAd#44uDddDd#44dDddDdDddddDdddddddDdddDDDdDdDdDDDDDddDddDddduuudDdddddddddddddddddddddDDddddddDDdddDdddddddddFuxuDddDddDdDddDDddDDddddddddddDDddddddDDddDDddddddddddDdddddddiuudDDDDDDD#44udDdDd0uuDddDDDddd0r0uuDdd0uuDddAd0uuuDDddDuuud0r0uuDdDdddd0uuu#54EdD#44DddddddD#44DdddDddddddDdddDdDdddDddDdDdDdddddddddddddddfuuDDddddDDDddDdDDDDddDddddddDDdddddddddddddddddddddddddddddddDdddddddddddDdddddddddiuuDDDDdDdddDdddddddddddd#44daDDDD#44DdDddddd#44uDDDDDDdDddddddddddddDdDDDdDddddDdDDddDdddddduuudDDddDDddddddddDDddddddDDddddddDDdddDdddddddddixudddDddDdDddDDddDDdddddddddddDddddddDDddDDddddddddddDdddddddiuuddDDDDDDDdDDdddDDDDDDdDDDDDdddddDdddddddduuDdDDDddddddDDfur#45DdDDddddd0uuDdDdDDDDau0uuu0uuDDDd0u0uuuDAA0u0uuudD#44uDDe#44DDdDD#44DDAA0uuDD0uudDA#440uuD#44dDdDDddddGddgdgdddddddddddddddddddDDddDdddDdddDDddddDdddddddDDDdddDDdd#47uDDdDddDdDdddDDdDDddddddddddddddedddDDddDDdddddDDdddDddDddddiuuddDDDDDDDDDdDddddDDDDdDDddDdddddddddddddduuDdDDDddddddDDiuuDDDDd0uudddddDDdddDddiuuDDDdDdddDddddDDddddddDdDDdddDdggg0xxggGGgggggG0xxgggggggggggGddddddddddddDdDDDuuuDDddDDDDdddDddDfuuddDdDdddDddDDDDDddDdddDDdgggGG0xuDIuuDdDddddddDDddddddddddDd0u0u#440u0Ar#44DDdDdddDddd#61DeDDdDd#44udddDddddddDddda#47DddddddddddddDDDdDddddDdddDdddddddeedEdddddddddddddddddDddddI0uuDDDDdddddDddddDDddddddDddddddDdggg0x0GxG0xxgggGgggggggggggggHGddddddddedddDdDDDuuuDDddDDD0uuDDddDfuuuddDdDdddDddDD#44DDDDa#44DDDD#44DDdddddDdddddddddddddddddDdddddddddddDddddddddddu0uuDdDddDdDdddDDdDDddddddddddDDddddddDDddDDddddddddddDdddddddfuuddDDDDDDDDDdddDDDDDDDdDDDDDdddddddddddddDuuDdDDDddddddDDfuuDDDDddDddddddDDdddDddiuuDDDdDdDdDddddDdddddddDdDDdddDdG0xxgGgG0xx0x0xxggg0xxgggg0ur#44uDDdDd#770xx0xxgGGxuuDddDDDddDDdddDdDIuuDDDGGgGGguuDDDDGGG0xxGgg0xxgGgggGgg0xxggGgxuuDDDDdDdddddddddddDDDuxxDdDDdddDddddduuuDDdddddddddddddDDDddddddDuuuDdDDDddDDdddddDdddddddddddddddDddddDDuuuddDdDddddDDdddddddDDdddDDddddDdddddduDdddDDAuuudDdDDDDDDddddfuuddDdddDDdDGDDdddDDDDDddDdDddddddDDdduuudG0uuDdDDDddDDddddDDdDdddDdddddddddddddDiur0uuuddDDDdddggdddgddddddddddddddddddad0uuuDdDdddDDDdddddddDdDdddddad0uuDDDdddddddDDdddDDdDDdDdddDdDdddddddddddddDDdDDddddddddddddddddddddDddduuuDDdDDDDddddddddddddDddDdiuuDdddDddddddddDdddDdddddddDduuuDDDdddddddddDdddddfuuDDdDdddDeDddDDdddddddDuuudDDDDDDDuuuDDDDDuuuDDDddddDDDiuuddDdDDDDDdDdDddddddDDDddDdduuuddDdDDDDddddiuudddDDDddDDDddDDdDddDDdDDddDDddddddddddddDddiuuDDdDddDDDddDdDDDDddDDdddDdDDdddDDddddDdddd0uuddddddddddddddddddddDDddddDdddddddddiuuDDDDDddddDdddddddddddDDdDdddDdddddDdddddddddDdddDdddddddddIuuDdDDDdDDDddDDdIuuDdDdDdddddddddddddfuuDdDdDddDdddddddgdddDddddddddddDddiuuDDdddddDDDdddddduuuDddDDDDddddddDDDddddddddDDdduuudddddDDfuuDDDddddddDDdDDdDddDDdddDDddDDdddDdddddddddDdddDddF0uuudddDdDDdddddddddddDdDdddddddddDdddddddDdddDdDdddddgddddddddDDdddddddddDDdddddDduuuDDDDddDDDDDuuudDDdDDddDddddDDdiuudDddddDDdddddDddA0uuDDDdddddddddDdddddddddddDDdddddduuudDDDIuuDddDDddDdddddddddDddddDDdddDdddddDddddAduudddDddddddddddddddddddddddddddddduuuDDdDddDdDdddDddddDddDdDdDdddddddddddd0uuDdddddddddddddddddDdddddddDuuuDdDddDDd0uuuDDDDdDDdddddddddddddddddDdddddddddddDdddddddddduuu0uuDdDDDDDDDDDDDdDDdddddDdd0uuDdddddddddddddduuDDDDDddddddDDiuuDDDDdddddddddDDDddDddiuuDDDddDDdDddddddddddddDdDDdddDdGggggGgAD0uuudDDdDdDDdddDDDDDddddddDDdg0xxGggDDIuuDdDddddddDDddddddDdddddDDDddddddduuuDDDddDdddddddddDDDuuDDDdduuuddddddddiuuDDDDdddddDdDDDdddDDDDdddddddddddddfuuDDdDddddD0r0uuD0uuDDDDdDdd0uuuDDddDdddddddDddDdDDdddddDDd#44DDdDDddddIddgdgddddddDdDddddddddddDDddDddddddDDFddddDdddddddDDDdddDDddddddDddda#44DdD#44udDDDDDDDDdddDddddDDAd#44dDGDdDDdddgGdD0uudDdDDdDdDddd#56eEeeEEeEad#44uuDDDdddad0uuDdDDdDDDdDdDDddda#44uDdDDdddddddddDA#44uddddddad#44DDdddDdDdd#74uddDdDdDDddddddduuudDDddd#44DdddDd0uuDd#44EEfDd#74DD0uuDdDdaGggG0uudddDDDdddddddddDDDdddddgg0xxdxxx0uuDdddddddddddAg0xxgggggdda#44DDDdddddddddddddDDDddddddduuuDdDDDddDDdddddDdddddddddddddddDdddddduuuddDdDddddDDdddddddDDdddDDddDdDddddddrDdddDuIDudD0u#44uuDDdddddad0uuDaa#44vedddddddDdDdddddDdddDddDdDdDdddddddddddddddiuuDDdDddDDDddDddddDdDdddddddDDdddddddddddddddddddddddddddddddDdddddddddddDdddddddddiuuDDDDdDdddDdddddddddddDDdDdddDdddddDdddddddddddddddddddddddIuuDdDDDdDDDddDDdfuuDDddddddddddddddddfuuuDddDDddddddddddGdddddddddddddDDDDiuuDDdddddDDDddddeeuuuDdDDDEDdeddddDDDdddeDdddDDdduuuddddDDDfuuDDDddddddDDaD0uuDdDDDDddDddddddDddDdddddddddeddeddDddddDDdddddddddddedDddddddddDDdiuudDdDdDDddeddddddddDdDdddddddDDddddddDdddddDdddddddgdddDDdddddddddddddDddDdddddD0uuDDDdddddddddddGdDdddDddDDddddddDdddddDddDuuuddDAD#44udddddddd0u#44DDdd#44uDdddDdDdDdDDdddDddDDdDdDdddddddda#55EeDEdA'
p1
.(lp1
(F1939.998681
F1857.392509
tp2
a(F2243.0803550000001
F1867.86275
tp3
a(F2059.0669130000001
F1838.8095479999999
tp4
a(F2260.2310990000001
F1875.145352
tp5
a(F2087.0449020000001
F1930.7056150000001
tp6
a(F144221.246625
F2546.4793749999999
tp7
a(F2019.6693680000001
F1868.279039
tp8
a(F2184.711166
F2059.4492700000001
tp9
a(F2098.5770859999998
F1939.7841940000001
tp10
a(F1927.027992
F1892.271459
tp11
a(F2048.4432390000002
F1966.6192140000001
tp12
a(F2270.8183979999999
F1884.6650239999999
tp13
a(F2287.5841350000001
F1924.7706049999999
tp14
a(F2262.9600770000002
F1892.0653609999999
tp15
a(F5593.8749879999996
F63110.248344
tp16
a(F2131.0573869999998
F1896.205807
tp17
a(F2145.7682129999998
F1892.316558
tp18
a(F2196.7446890000001
F1916.572461
tp19
a(F2017.5987399999999
F1921.427623
tp20
a(F1912.5164810000001
F1911.357319
tp21
a(F2152.0143579999999
F1898.0013240000001
tp22
a(F2025.007141
F1930.0094409999999
tp23
a(F1943.9372310000001
F1972.7374540000001
tp24
a(F2419.0420490000001
F1857.6801359999999
tp25
a(F2168.2015120000001
F1849.142875
tp26
a(F1977.7442679999999
F1837.574431
tp27
a(F2116.9339399999999
F1864.3585439999999
tp28
a(F1871.5572930000001
F1849.1892680000001
tp29
a(F2041.2961949999999
F1916.3343829999999
tp30
a(F2038.511387
F3817.438369
tp31
a(F2153.3377099999998
F1856.3752919999999
tp32
a(F127.338319
F1806.2288370000001
tp33
a(F2194.4363499999999
F1917.674561
tp34
a(F2105.99244
F2060.657643
tp35
a(F2013.657561
F1842.072195
tp36
a(F2150.7619370000002
F1866.899952
tp37
a(F1970.3274690000001
F1892.2094850000001
tp38
a(F1854412.737647
F47562.781112999997
tp39
a(F2295.9858340000001
F1866.515103
tp40
a(F2545.5000449999998
F1968.7423389999999
tp41
a(F11122.8362
F33154.985272999998
tp42
a(F1950.2209969999999
F1868.7611460000001
tp43
a(F2139.8598040000002
F1874.2257790000001
tp44
a(F2200.499624
F1891.3397359999999
tp45
a(F2224.4292399999999
F1851.094423
tp46
a(F2142.9615399999998
F1993.731141
tp47
a(F1971.6007219999999
F1932.2650470000001
tp48
a(F2110.2041020000001
F1964.6760380000001
tp49
a(F2087.3199970000001
F1979.4747150000001
tp50
a(F2102.5578489999998
F1941.641488
tp51
a(F17915.416603999998
F1897.2960439999999
tp52
a(F2421.778296
F1927.986259
tp53
a(F2396.0226050000001
F1898.991205
tp54
a(F2095.07924
F1995.304832
tp55
a(F2386.6910090000001
F1939.4945560000001
tp56
a(F2392.1263220000001
F1922.2873259999999
tp57
a(F2458.840886
F1868.0248059999999
tp58
a(F1917.7763540000001
F1857.7113810000001
tp59
a(F2287.561142
F1924.780606
tp60
a(F2346.0871480000001
F1920.7509540000001
tp61
a(F1951.2168099999999
F1933.528632
tp62
a(F1900.6837439999999
F1837.3617770000001
tp63
a(F1930.3870360000001
F1874.4755889999999
tp64
a(F2021.746099
F1868.7728179999999
tp65
a(F2153.1756089999999
F1939.97588
tp66
a(F1955.5602349999999
F1919.795582
tp67
a(F7450.1239779999996
F5556.5307869999997
tp68
a(F2201.1453590000001
F1865.0415680000001
tp69
a(F2115.5215360000002
F1987.303308
tp70
a(F2273.9684000000002
F1892.046102
tp71
a(F1891.9903429999999
F1838.2257380000001
tp72
a(F1857.6464129999999
F57052.188935999999
tp73
a(F2038.717245
F2014.699435
tp74
a(F2392.929533
F1890.3341579999999
tp75
a(F2141.5900139999999
F1842.293079
tp76
a(F2260.4331269999998
F1892.956048
tp77
a(F2188.472033
F1946.355429
tp78
a(F2401.4645190000001
F1984.384605
tp79
a(F1982.6421720000001
F1996.5642250000001
tp80
a(F22324.733474000001
F63093.722992000003
tp81
a(F2283.7183660000001
F1874.7035619999999
tp82
a(F2256.4538659999998
F1884.6387400000001
tp83
a(F2115.2702469999999
F1867.0689990000001
tp84
a(F2316.819982
F1866.5150510000001
tp85
a(F2295.0051800000001
F3809.574024
tp86
a(F2083.7606059999998
F1873.1238249999999
tp87
a(F2017.1987549999999
F1969.5982509999999
tp88
a(F87227.724044000002
F4059.5362060000002
tp89
a(F1926.1010289999999
F1892.2728279999999
tp90
a(F2180.0087760000001
F1920.428347
tp91
a(F1994.868931
F1910.992479
tp92
a(F2080.970789
F1865.266687
tp93
a(F2042.6199710000001
F1866.144499
tp94
a(F1965.131341
F1864.6229719999999
tp95
a(F2138.1631849999999
F1931.5544179999999
tp96
a(F2426.872163
F1917.974213
tp97
a(F2034.769239
F1848.634247
tp98
a(F3701.5911609999998
F57659.538302000001
tp99
a(F1933.275946
F1899.610545
tp100
a(F2147.592948
F1961.741311
tp101
a(F2268.3957999999998
F1855.620694
tp102
a(F2475.1790679999999
F1918.0187249999999
tp103
a(F1901.4266439999999
F1890.735772
tp104
a(F1992.426262
F1953.2286140000001
tp105
a(F1950.8539820000001
F1931.1743349999999
tp106
a(F2071.8031409999999
F1907.4030519999999
tp107
a(F1947.5596029999999
F1831.143656
tp108
a(F2010.3813110000001
F1905.0554959999999
tp109
a(F1896.576241
F1905.193839
tp110
a(F2072.8457279999998
F1960.7720489999999
tp111
a(F1957.5653970000001
F1868.308861
tp112
a(F2021.206866
F1942.077362
tp113
a(F2002.8751460000001
F1902.5722780000001
tp114
a(F1980.5065480000001
F1866.0424290000001
tp115
a(F2243.0263759999998
F1885.286758
tp116
a(F2455.8027269999998
F1886.440701
tp117
a(F1955.70569
F1919.5182850000001
tp118
a(F2031.1055710000001
F1876.9020419999999
tp119
a(F1979.7306960000001
F1879.554938
tp120
a(F1924.183421
F1874.425624
tp121
a(F2070.324881
F1907.677915
tp122
a(F2164.0800920000001
F1883.561811
tp123
a(F2201.1278090000001
F1892.3135380000001
tp124
a(F1848.8414029999999
F1856.758227
tp125
a(F2067.1218319999998
F1930.5040469999999
tp126
a(F2085.6592639999999
F1923.7943769999999
tp127
a(F2093.4957730000001
F1908.438633
tp128
a(F2350.9273819999999
F1983.770514
tp129
a(F1957.8032579999999
F1927.770354
tp130
a(F2318.0814730000002
F1915.7518889999999
tp131
a(F181517.99335400001
F141928.941112
tp132
a(F2128.4113419999999
F1865.7621610000001
tp133
a(F2383.2772909999999
F1851.393002
tp134
a(F3673.4941709999998
F1849.3415680000001
tp135
a(F2121.5189140000002
F1953.88912
tp136
a(F2273.9335599999999
F1892.0703880000001
tp137
a(F2169.7083630000002
F1896.7012179999999
tp138
a(F2414.6967589999999
F1943.288728
tp139
a(F2033.525549
F1893.1383000000001
tp140
a(F36893.026346999999
F48745.892447999999
tp141
a(F2021.4294010000001
F1941.799712
tp142
a(F2158.4816500000002
F1932.7043470000001
tp143
a(F2036.537615
F1898.206631
tp144
a(F1981.39303
F1976.816734
tp145
a(F1950.5453050000001
F1903.8761030000001
tp146
a(F2198.8640169999999
F1841.3002779999999
tp147
a(F65404.009468999997
F77123.402797000002
tp148
a(F2087.3270510000002
F1979.4588189999999
tp149
a(F1955.048757
F1858.3706569999999
tp150
a(F2190.0161619999999
F1892.3130570000001
tp151
a(F2233.424027
F1964.9097859999999
tp152
a(F1971.044175
F1913.8181279999999
tp153
a(F2264.170267
F1905.724811
tp154
a(F2052.6509609999998
F1878.322944
tp155
a(F1900.5521429999999
F1837.3610639999999
tp156
a(F7349.1337759999997
F25738.323247
tp157
a(F2232.0047420000001
F1979.067186
tp158
a(F1960.777321
F1837.8970409999999
tp159
a(F2064.4346770000002
F1913.225518
tp160
a(F2152.4351539999998
F1869.1896449999999
tp161
a(F1903.3833480000001
F1935.06258
tp162
a(F2057.2427739999998
F1829.396493
tp163
a(F1914.3838270000001
F1993.547045
tp164
a(F2449.7453850000002
F1857.4749750000001
tp165
a(F2008.3580810000001
F1868.7712750000001
tp166
a(F2076.933219
F1903.3346859999999
tp167
a(F2032.668754
F1922.4684360000001
tp168
a(F2045.564026
F2025.6531460000001
tp169
a(F2014.7574460000001
F1941.1296480000001
tp170
a(F2339.0595950000002
F1984.2902610000001
tp171
a(F2181.0577290000001
F1938.860295
tp172
a(F2194.1419580000002
F2016.1371549999999
tp173
a(F1901.1486709999999
F1864.358956
tp174
a(F2171.281669
F1971.794875
tp175
a(F2169.3494989999999
F1975.6601889999999
tp176
a(F2025.5020589999999
F1929.9844169999999
tp177
a(F2250.7599700000001
F1899.2999030000001
tp178
a(F1932.7352639999999
F1905.1817060000001
tp179
a(F2359.4378999999999
F1927.1960590000001
tp180
a(F2270.8089719999998
F1812.0385120000001
tp181
a(F171767.57202600001
F2357.699188
tp182
a(F1890.6701290000001
F1911.3749029999999
tp183
a(F5555.215631
F1842.8454139999999
tp184
a(F2355.4849559999998
F1892.487104
tp185
a(F197.361706
F3638.533101
tp186
a(F2088.5686420000002
F1934.58068
tp187
a(F1915.8019859999999
F1851.1708819999999
tp188
a(F2181.989086
F1884.3195820000001
tp189
a(F2144.4607299999998
F1932.1623059999999
tp190
a(F2045.1385969999999
F1898.333682
tp191
a(F2158.3369980000002
F1884.18337
tp192
a(F1977.082163
F1915.9339950000001
tp193
a(F2233.3981269999999
F1847.976545
tp194
a(F2060.4666269999998
F1974.778012
tp195
a(F1915.0117419999999
F1922.605131
tp196
a(F55967.478110999997
F2080.0151019999998
tp197
a(F2318.588733
F1846.793044
tp198
a(F1996.6902210000001
F1976.7997399999999
tp199
a(F393167.82121099997
F2097.9357020000002
tp200
a(F2116.9339209999998
F1896.205101
tp201
a(F2365.5534870000001
F1976.7895020000001
tp202
a(F1806.2359300000001
F1832.3695230000001
tp203
a(F2230.4146059999998
F1917.3438160000001
tp204
a(F2047.6425919999999
F1876.527282
tp205
a(F2346.9525450000001
F1913.873791
tp206
a(F2036.277411
F1898.2509190000001
tp207
a(F2145.6038290000001
F1866.8435179999999
tp208
a(F2162.362674
F1869.577407
tp209
a(F2422.8254729999999
F1953.048076
tp210
a(F2051.3711960000001
F1958.266263
tp211
a(F2215.143184
F1923.8860139999999
tp212
a(F2348.3622949999999
F1925.5927630000001
tp213
a(F2136.26532
F1945.94156
tp214
a(F2179.7366160000001
F1884.285247
tp215
a(F2273.4617680000001
F1857.476674
tp216
a(F2303.5609450000002
F1866.259992
tp217
a(F1876.452405
F1894.62364
tp218
a(F2073.3349450000001
F1902.570862
tp219
a(F1903.656281
F1874.5559699999999
tp220
a(F1954.316096
F1901.773827
tp221
a(F1976.7824210000001
F1882.608399
tp222
a(F2160.563811
F1898.002129
tp223
a(F1958.715966
F1926.843181
tp224
a(F1956.9590209999999
F1914.329706
tp225
a(F1955.800313
F1939.6202390000001
tp226
a(F20388.045840999999
F11029.930049000001
tp227
a(F2282.2106170000002
F1918.671865
tp228
a(F2066.0919330000002
F1833.365335
tp229
a(F2027.0293389999999
F1968.1601310000001
tp230
a(F4132.9822889999996
F1879.4752450000001
tp231
a(F2019.370433
F1892.3080440000001
tp232
a(F2351.582418
F1869.2452490000001
tp233
a(F2127.7545700000001
F1913.8074340000001
tp234
a(F2216.9434419999998
F1939.4311769999999
tp235
a(F2219.69983
F1899.070348
tp236
a(F2089.3288889999999
F1868.5601979999999
tp237
a(F1918.619017
F1841.3777230000001
tp238
a(F2237.5286959999999
F2016.365861
tp239
a(F186019.95108100001
F2239.0023639999999
tp240
a(F2099.9247500000001
F1892.317393
tp241
a(F2225.912292
F1920.325996
tp242
a(F1884.53036
F1877.432804
tp243
a(F119844.20613799999
F2142.6241300000002
tp244
a(F1961.000311
F1883.379013
tp245
a(F3681.2988869999999
F1826.4250119999999
tp246
a(F2246.250462
F1909.390048
tp247
a(F2048.8663660000002
F1891.3769589999999
tp248
a(F2250.7071179999998
F1924.9987100000001
tp249
a(F2385.3147090000002
F1926.194677
tp250
a(F2022.8231499999999
F1898.3841460000001
tp251
a(F2128.6072789999998
F1885.844175
tp252
a(F2516.858796
F1903.111645
tp253
a(F2099.3127119999999
F1865.0261829999999
tp254
a(F1939.491843
F1903.849884
tp255
a(F1994.5887319999999
F1852.5661
tp256
a(F7340.7353370000001
F52451.325242999999
tp257
a(F2123.1807450000001
F1909.3153580000001
tp258
a(F330035.911937
F13023.924422
tp259
a(F1815.9830850000001
F164226.35845999999
tp260
a(F2141.2410020000002
F1919.047742
tp261
a(F2087.9244050000002
F2003.4357520000001
tp262
a(F2315.2387469999999
F1924.735872
tp263
a(F186219.68776100001
F1980.4236229999999
tp264
a(F1958.8858359999999
F1900.0496069999999
tp265
a(F2035.959036
F1830.7885839999999
tp266
a(F1910.1967509999999
F1868.763831
tp267
a(F1987.9090020000001
F1866.04313
tp268
a(F2392.2609499999999
F1878.177322
tp269
a(F2383.1433659999998
F2059.0545520000001
tp270
a(F2205.3427369999999
F1882.5563930000001
tp271
a(F2092.8825059999999
F1979.491076
tp272
a(F2176.751894
F1912.9105520000001
tp273
a(F2239.717776
F1925.1408180000001
tp274
a(F2047.6581409999999
F1874.3881120000001
tp275
a(F1863.0730590000001
F1893.681589
tp276
a(F2227.050569
F1951.083496
tp277
a(F1914.9266869999999
F1885.6129040000001
tp278
a(F2159.2828610000001
F2016.0184059999999
tp279
a(F2147.0639900000001
F1896.4774170000001
tp280
a(F1949.2805719999999
F1874.4746500000001
tp281
a(F2344.5990900000002
F1855.6209309999999
tp282
a(F1986.264075
F1903.6930609999999
tp283
a(F2358.9900469999998
F1984.383063
tp284
a(F2194.9301559999999
F1956.336965
tp285
a(F1884.42859
F1877.472886
tp286
a(F2187.3966180000002
F1891.506603
tp287
a(F1865.202213
F1935.142288
tp288
a(F2317.5348709999998
F1873.3183100000001
tp289
a(F2497.994193
F1865.9323429999999
tp290
a(F1873.4843579999999
F1896.724874
tp291
a(F2088.6413910000001
F1895.3810900000001
tp292
a(F2314.4722339999998
F1869.9318310000001
tp293
a(F2039.3960219999999
F1916.527699
tp294
a(F2115.042958
F1858.435383
tp295
a(F2125.4814419999998
F2016.017077
tp296
a(F2005.2071450000001
F1842.3122049999999
tp297
a(F1899.3651170000001
F1927.3761850000001
tp298
a(F2267.599217
F1938.443184
tp299
a(F2360.5504599999999
F1901.451785
tp300
a(F2188.7628089999998
F1946.3571240000001
tp301
a(F2470.8351039999998
F1915.976267
tp302
a(F2255.5043860000001
F1842.0084420000001
tp303
a(F2071.4399880000001
F3683.6667240000002
tp304
a(F2019.438404
F1898.201485
tp305
a(F2143.2722399999998
F1886.666743
tp306
a(F2296.1584149999999
F1847.984062
tp307
a(F39204.732816000003
F76962.684783000004
tp308
a(F2170.9294009999999
F1883.994567
tp309
a(F1973.750839
F1883.4802910000001
tp310
a(F2267.0046360000001
F1946.7296839999999
tp311
a(F3719.856644
F2523.9937629999999
tp312
a(F2155.2376800000002
F1852.9253650000001
tp313
a(F1959.094431
F1868.7587370000001
tp314
a(F2207.2714689999998
F1947.335791
tp315
a(F1944.778939
F1927.7563869999999
tp316
a(F2259.3582609999999
F1899.021542
tp317
a(F2028.2115249999999
F1866.1354040000001
tp318
a(F2206.0133169999999
F1874.3943569999999
tp319
a(F2194.9764690000002
F1947.882206
tp320
a(F2087.5048539999998
F1829.3959520000001
tp321
a(F2024.6690149999999
F1930.0301589999999
tp322
a(F2129.5941929999999
F1918.976932
tp323
a(F2252.3512409999998
F1946.7442040000001
tp324
a(F1903.7488840000001
F1866.342899
tp325
a(F63521.741897
F5577.9062860000004
tp326
a(F2179.725606
F1883.841981
tp327
a(F1876.51171
F1894.5670399999999
tp328
a(F2263.4829770000001
F2059.5998800000002
tp329
a(F2192.1841359999999
F1883.562848
tp330
a(F2057.0398639999999
F1928.637369
tp331
a(F1890.729196
F1857.707721
tp332
a(F2112.2782400000001
F1891.469912
tp333
a(F11182.743567
F20250.427776
tp334
a(F2064.7656529999999
F1919.303731
tp335
a(F1907.186379
F1975.6303310000001
tp336
a(F2526.4701500000001
F1919.577554
tp337
a(F2371.94391
F1935.750094
tp338
a(F2020.5308729999999
F1866.6356330000001
tp339
a(F1845080.8156950001
F149262.961786
tp340
a(F40685.537153999998
F2188.1305419999999
tp341
a(F1972.5004429999999
F1883.250902
tp342
a(F2086.4649749999999
F1975.574294
tp343
a(F65017.914258999997
F42257.485593999998
tp344
a(F16508.000724000001
F5545.9344959999999
tp345
a(F1883.144918
F1903.7873340000001
tp346
a(F2540.7513779999999
F1950.4374680000001
tp347
a(F2224.4540059999999
F1851.0982710000001
tp348
a(F4586537.8081630003
F12868.506223
tp349
a(F2533.6414719999998
F1835.6879100000001
tp350
a(F30568.381167
F2115.5335700000001
tp351
a(F9286.5083180000001
F3737.34744
tp352
a(F1855.1179239999999
F1927.3746619999999
tp353
a(F1932.7039990000001
F1921.741945
tp354
a(F1981.4118089999999
F1830.722565
tp355
a(F2305.3137780000002
F1894.0841479999999
tp356
a(F57058.024431999998
F11629.416654000001
tp357
a(F2078.093081
F1867.073815
tp358
a(F2004.5131779999999
F1969.582891
tp359
a(F2568.666702
F1928.494318
tp360
a(F2487.9006730000001
F1884.105243
tp361
a(F7.1064759999999998
F2303.7354770000002
tp362
a(F2038.1651859999999
F1902.5515419999999
tp363
a(F2187.5515500000001
F1890.087806
tp364
a(F42872.398079999999
F43748.533786
tp365
a(F2024.8785459999999
F1929.99433
tp366
a(F1978.690769
F1881.4338869999999
tp367
a(F2193.9454340000002
F1898.449807
tp368
a(F1954.7745910000001
F1830.75558
tp369
a(F2176.3203709999998
F1946.4348239999999
tp370
a(F2015.853562
F1850.8347209999999
tp371
a(F2169.782972
F1863.805044
tp372
a(F1863.0762050000001
F1877.4617069999999
tp373
a(F2068.0282240000001
F1975.0403899999999
tp374
a(F2175.2412680000002
F1848.4106019999999
tp375
a(F1865.378651
F1867.4495469999999
tp376
a(F7375.9826999999996
F9226.7124000000003
tp377
a(F2228.3680979999999
F1999.370584
tp378
a(F2228.3647030000002
F1999.3900149999999
tp379
a(F232177.847549
F2220.4394259999999
tp380
a(F2110.1224390000002
F1942.1261119999999
tp381
a(F2041.217631
F1902.827959
tp382
a(F2094.6929049999999
F1919.313856
tp383
a(F1941.715796
F1877.5075850000001
tp384
a(F2011.3066610000001
F1868.9297509999999
tp385
a(F2336.4428680000001
F1877.864444
tp386
a(F1988.9601789999999
F1850.8483779999999
tp387
a(F2058.5806929999999
F1867.0600910000001
tp388
a(F2102.9394360000001
F1858.500747
tp389
a(F1987.5077670000001
F1938.2927299999999
tp390
a(F1925.9988499999999
F1877.374818
tp391
a(F2063.505917
F1865.947619
tp392
a(F1989.49585
F1976.8052250000001
tp393
a(F27615.813891000002
F1821.4851679999999
tp394
a(F2634.438251
F1837.6377339999999
tp395
a(F2375.0890429999999
F1953.0485229999999
tp396
a(F2047.477693
F1884.521514
tp397
a(F2274.1775680000001
F1939.603507
tp398
a(F1901.1306400000001
F1899.610531
tp399
a(F2475.9520029999999
F1903.6206119999999
tp400
a(F2143.8632400000001
F1957.6116919999999
tp401
a(F2103.8252149999998
F2014.6878160000001
tp402
a(F2262.1099810000001
F2001.3404599999999
tp403
a(F2328.110103
F1857.400727
tp404
a(F1884.7605000000001
F1873.600187
tp405
a(F9337.9867300000005
F3711.5896550000002
tp406
a(F2087.5087239999998
F1878.5445340000001
tp407
a(F2141.9239560000001
F1912.5926300000001
tp408
a(F2103.9651709999998
F2015.234843
tp409
a(F2259.8807630000001
F1938.4488140000001
tp410
a(F2008.7099929999999
F1881.45679
tp411
a(F2215.3912850000002
F1845.7990050000001
tp412
a(F1970.967185
F1867.9583379999999
tp413
a(F1927.1859440000001
F1921.7413140000001
tp414
a(F1868.90823
F1837.3518899999999
tp415
a(F2435.4273029999999
F1984.4624859999999
tp416
a(F585279.771343
F2101.3149969999999
tp417
a(F2281.344415
F1855.620758
tp418
a(F1893.538519
F1831.1334199999999
tp419
a(F2135.0725269999998
F1975.1924739999999
tp420
a(F2241.3636980000001
F1880.6879389999999
tp421
a(F3918.108917
F1896.899748
tp422
a(F7.2943389999999999
F2506.1002859999999
tp423
a(F1940.0748470000001
F1857.45506
tp424
a(F2156.3153630000002
F1880.700225
tp425
a(F9228.4918830000006
F1812.6522950000001
tp426
a(F2191.6784969999999
F1939.1264679999999
tp427
a(F2118.5240749999998
F1896.265684
tp428
a(F2071.7450739999999
F1958.2469579999999
tp429
a(F1933.533445
F1880.5827340000001
tp430
a(F2242.5578070000001
F1866.915254
tp431
a(F2118.396463
F1865.264559
tp432
a(F1999.9348259999999
F1885.9452309999999
tp433
a(F2533.4760099999999
F1900.5146729999999
tp434
a(F2405.5376190000002
F1856.0590070000001
tp435
a(F1872.8507340000001
F1877.432358
tp436
a(F1963.3619570000001
F1895.7471109999999
tp437
a(F2002.13435
F1901.773373
tp438
a(F2087.1535490000001
F1907.672795
tp439
a(F2388.6362089999998
F1924.7477799999999
tp440
a(F1896.1416429999999
F1892.935291
tp441
a(F2287.9171940000001
F1901.432933
tp442
a(F2099.5521020000001
F1865.0221529999999
tp443
a(F2095.8988709999999
F1963.024737
tp444
a(F2070.881762
F1841.981765
tp445
a(F2007.4525140000001
F1896.0391910000001
tp446
a(F2370.2970500000001
F1879.9622710000001
tp447
a(F2189.7019570000002
F1901.944821
tp448
a(F2151.9941680000002
F1897.999599
tp449
a(F2465.8587929999999
F1879.9639999999999
tp450
a(F5522.4267639999998
F3765.3222900000001
tp451
a(F2351.011915
F1956.971595
tp452
a(F2063.4143800000002
F1932.050189
tp453
a(F2051.4305340000001
F1867.1194029999999
tp454
a(F2014.0308359999999
F1885.9721480000001
tp455
a(F2260.91257
F1964.894513
tp456
a(F2174.0251669999998
F1845.2009169999999
tp457
a(F2094.8631559999999
F1880.7763620000001
tp458
a(F2287.6619479999999
F1924.7323490000001
tp459
a(F2019.327585
F1932.00108
tp460
a(F1864.359058
F1934.855374
tp461
a(F2078.8754290000002
F2002.2376159999999
tp462
a(F1945.344632
F1976.6783989999999
tp463
a(F1889.4989129999999
F1894.556765
tp464
a(F2241.7058940000002
F1935.3751050000001
tp465
a(F1949.672082
F1919.921341
tp466
a(F2026.1640299999999
F1868.6190779999999
tp467
a(F2140.509943
F1852.82718
tp468
a(F1924.5230079999999
F1874.5926979999999
tp469
a(F2404.4120640000001
F1895.8595049999999
tp470
a(F2086.1989979999998
F1974.922225
tp471
a(F2368.9470160000001
F1863.608573
tp472
a(F5687.9181639999997
F1834.963591
tp473
a(F2080.6590820000001
F1953.0278040000001
tp474
a(F2257.9613039999999
F1905.1422560000001
tp475
a(F2492.0257769999998
F1935.4718069999999
tp476
a(F2178840.8301650002
F1633776.4781559999
tp477
a(F2309.9381699999999
F1818.989043
tp478
a(F2107.0134950000001
F1935.694405
tp479
a(F2227.1001959999999
F1961.16587
tp480
a(F2206.7779070000001
F1928.0270599999999
tp481
a(F32580.739827000001
F58865.184226999998
tp482
a(F2211.482814
F1985.146352
tp483
a(F2415.3919259999998
F1837.0137890000001
tp484
a(F1939.096802
F1895.4056399999999
tp485
a(F2107.0868249999999
F1886.6748580000001
tp486
a(F2130.854632
F1912.257441
tp487
a(F1997.471462
F1831.478008
tp488
a(F1999.6237000000001
F1884.526091
tp489
a(F1990.1581269999999
F1905.0699950000001
tp490
a(F2231.446547
F1979.0543869999999
tp491
a(F2183.124922
F1856.086714
tp492
a(F1999.734952
F1876.9019619999999
tp493
a(F2089.6724490000001
F1878.1374860000001
tp494
a(F2233.4328030000001
F1920.0334680000001
tp495
a(F2052.023866
F1873.6201490000001
tp496
a(F2370.0769879999998
F1922.282471
tp497
a(F1954.9695670000001
F1852.118414
tp498
a(F2065.1229790000002
F1913.8097049999999
tp499
a(F2244.531313
F1884.31369
tp500
a(F2061.874511
F1916.3393100000001
tp501
a(F2094.156101
F2003.7622859999999
tp502
a(F1899.331138
F1966.137502
tp503
a(F2009.289282
F1998.770747
tp504
a(F1893.268969
F1890.267865
tp505
a(F54192.811553
F8315.0164399999994
tp506
a(F1916.945246
F1940.687083
tp507
a(F2084.7294929999998
F1895.9861599999999
tp508
a(F2242.2116810000002
F1866.910341
tp509
a(F2024.022033
F1895.6495319999999
tp510
a(F1937.0074199999999
F1920.5197579999999
tp511
a(F2365.8253060000002
F1900.303011
tp512
a(F79258.291173999998
F2078.0271579999999
tp513
a(F1920.4595429999999
F1881.2027069999999
tp514
a(F174.999956
F1807.0150819999999
tp515
a(F2511.639416
F1921.3805319999999
tp516
a(F1950.2854179999999
F1949.812991
tp517
a(F1997.071962
F1930.0347429999999
tp518
a(F2146.4978959999999
F1843.77529
tp519
a(F2384.1844000000001
F1856.561424
tp520
a(F1965.1266929999999
F1831.1404460000001
tp521
a(F1989.1190549999999
F1972.296419
tp522
a(F5556.5158499999998
F94391.086355000007
tp523
a(F2004.7448890000001
F1837.572136
tp524
a(F2205.8167950000002
F1866.673669
tp525
a(F1919.258045
F1894.677461
tp526
a(F1898.9571559999999
F1927.75433
tp527
a(F2259.1899199999998
F1939.6092289999999
tp528
a(F1992.3227810000001
F1877.521156
tp529
a(F2097.1169009999999
F1869.1019960000001
tp530
a(F2142.1565070000001
F1883.6364980000001
tp531
a(F1952.253919
F1956.963307
tp532
a(F1985.7462760000001
F1894.289066
tp533
a(F1898.833791
F1830.357737
tp534
a(F1995.322936
F2025.6342549999999
tp535
a(F19573.361777999999
F2372.7288910000002
tp536
a(F1971.755858
F1882.5398929999999
tp537
a(F1973.2709139999999
F1937.895671
tp538
a(F1965.4502460000001
F1895.8871509999999
tp539
a(F57.070829000000003
F1806.758155
tp540
a(F2138.4250029999998
F1931.5578370000001
tp541
a(F2253.9614369999999
F1834.8590369999999
tp542
a(F1991.8532150000001
F1948.231544
tp543
a(F2204.5671229999998
F1913.1908430000001
tp544
a(F1837.8543279999999
F1864.348461
tp545
a(F1996.177625
F1942.085902
tp546
a(F2160.1178570000002
F2016.0215189999999
tp547
a(F2168.1361040000002
F1919.705874
tp548
a(F2069.722976
F1866.041152
tp549
a(F2143.487185
F1957.719036
tp550
a(F2036.3718670000001
F1874.3879030000001
tp551
a(F1873.2139770000001
F1899.620989
tp552
a(F2237.117127
F1938.8470420000001
tp553
a(F1983.112453
F1964.5175859999999
tp554
a(F1904.1185760000001
F1865.3793250000001
tp555
a(F2458.8181039999999
F1866.760544
tp556
a(F2332.9814900000001
F1937.1788939999999
tp557
a(F2024.769372
F1884.73128
tp558
a(F2355.2390260000002
F1863.186508
tp559
a(F2007.3430149999999
F1968.1566889999999
tp560
a(F2315.4540750000001
F1983.4683680000001
tp561
a(F2231.3377879999998
F1925.1433529999999
tp562
a(F2192.7310980000002
F1892.0767040000001
tp563
a(F2181.8789900000002
F1938.7345110000001
tp564
a(F1936.5698319999999
F1875.9676489999999
tp565
a(F2031.1733569999999
F1896.0064589999999
tp566
a(F2026.0724600000001
F1878.085458
tp567
a(F2409.6052420000001
F1932.7025880000001
tp568
a(F2120.7843349999998
F1920.4598900000001
tp569
a(F2204.0853649999999
F1940.2379699999999
tp570
a(F2352.1753370000001
F1891.620048
tp571
a(F2089.6528680000001
F2014.8364469999999
tp572
a(F2253.730442
F1898.097055
tp573
a(F2227.9015720000002
F1961.5622760000001
tp574
a(F2264.692552
F1917.675489
tp575
a(F2259.5047180000001
F1881.7111090000001
tp576
a(F2284.7630819999999
F1900.125974
tp577
a(F209223.81246099999
F2078.1727770000002
tp578
a(F2296.1553869999998
F1922.265574
tp579
a(F1903.6617140000001
F1865.3811519999999
tp580
a(F601903.76627599995
F1999.7451659999999
tp581
a(F2146.4812189999998
F1919.9980230000001
tp582
a(F2380.462583
F1877.320725
tp583
a(F85398.870104999995
F44057.362965
tp584
a(F1964.539951
F1885.4762909999999
tp585
a(F1916.9087059999999
F1847.031604
tp586
a(F1901.87646
F1919.606528
tp587
a(F2043.4294870000001
F1902.511469
tp588
a(F1915.8512559999999
F1916.4959269999999
tp589
a(F2115.515073
F2003.4269019999999
tp590
a(F2024.220646
F1895.636299
tp591
a(F2088.7220320000001
F1941.646782
tp592
a(F2517.9108759999999
F1940.2478880000001
tp593
a(F2260.4525359999998
F1964.5281649999999
tp594
a(F2313.2396159999998
F1919.6647250000001
tp595
a(F1943.2953660000001
F1866.1641219999999
tp596
a(F2009.8236810000001
F1866.165587
tp597
a(F2085.9764770000002
F1866.0434330000001
tp598
a(F2569.0163189999998
F1935.8786660000001
tp599
a(F1992.275652
F1877.509337
tp600
a(F2519.325104
F1889.768182
tp601
a(F2446.6871599999999
F1864.3855209999999
tp602
a(F1982.5228420000001
F1905.053406
tp603
a(F2211.1377360000001
F1913.2448690000001
tp604
a(F2572.2588190000001
F8.8343290000000003
tp605
a(F2047.76142
F1891.9345229999999
tp606
a(F1926.0141619999999
F1877.374722
tp607
a(F1940.6597380000001
F1852.6267949999999
tp608
a(F2392.8405600000001
F1858.8332600000001
tp609
a(F2068.162875
F1934.516918
tp610
a(F2144.8561410000002
F1849.1429000000001
tp611
a(F1873.239075
F1899.605734
tp612
a(F2090.0940460000002
F1934.685401
tp613
a(F2037.661591
F1961.7391379999999
tp614
a(F5556.435735
F57014.306049999999
tp615
a(F1948.585716
F1948.3625039999999
tp616
a(F2250.0490239999999
F1906.325636
tp617
a(F2299.5461310000001
F1834.8624359999999
tp618
a(F1876.1334649999999
F1883.4821420000001
tp619
a(F1972.421014
F1886.029679
tp620
a(F357270.63733
F320395.35694700002
tp621
a(F2241.2180960000001
F1875.412409
tp622
a(F2191.1980239999998
F1892.4157459999999
tp623
a(F73831.665617000006
F1870.723628
tp624
a(F2259.3228089999998
F1899.3246710000001
tp625
a(F2382.6421500000001
F1850.6144360000001
tp626
a(F1914.5181070000001
F1922.596468
tp627
a(F2199.2266760000002
F1909.3258740000001
tp628
a(F2115.670318
F1946.225283
tp629
a(F11120.744788
F3737.0313970000002
tp630
a(F2170.5156980000002
F1939.5680480000001
tp631
a(F2029.1192160000001
F1848.9923389999999
tp632
a(F1907.3381959999999
F1841.349704
tp633
a(F2069.7611609999999
F1959.2547079999999
tp634
a(F1897.106812
F1867.049522
tp635
a(F1991.6537330000001
F1915.9334879999999
tp636
a(F2506.9284819999998
F1904.1903150000001
tp637
a(F1993.871136
F1875.5364300000001
tp638
a(F2330.5049490000001
F1866.5148139999999
tp639
a(F49.140807000000002
F1806.758806
tp640
a(F2013.9664620000001
F1996.297495
tp641
a(F1884.725477
F1890.6540379999999
tp642
a(F2075.9968509999999
F1905.0417749999999
tp643
a(F2466.030303
F1996.1411270000001
tp644
a(F2003.3443480000001
F1932.0023209999999
tp645
a(F2319.3203629999998
F1933.5786430000001
tp646
a(F7400.8383759999997
F18501.156738000001
tp647
a(F2245.4340699999998
F1966.2634800000001
tp648
a(F2107.8026770000001
F3723.4709990000001
tp649
a(F2457.94191
F1935.4737110000001
tp650
a(F1871.8534870000001
F1865.3755060000001
tp651
a(F2128.2604540000002
F1886.100741
tp652
a(F1856.5330879999999
F1877.67788
tp653
a(F436850.28383899998
F2352.3910639999999
tp654
a(F2259.9119329999999
F1952.9436599999999
tp655
a(F2077.2886709999998
F1873.1194290000001
tp656
a(F1868.5379889999999
F1893.5334929999999
tp657
a(F1957.298274
F1877.0622519999999
tp658
a(F2482.9079830000001
F1954.435851
tp659
a(F2140.1397849999998
F1880.7002950000001
tp660
a(F1997.393885
F1915.9326329999999
tp661
a(F2152.4851429999999
F1952.3504720000001
tp662
a(F1920.2264520000001
F1955.310974
tp663
a(F2118.4205539999998
F1964.7107590000001
tp664
a(F2229.7775529999999
F1925.6031889999999
tp665
a(F2539.3213930000002
F1888.0046620000001
tp666
a(F2174.5520449999999
F1862.644507
tp667
a(F2318.0719300000001
F1933.158944
tp668
a(F2194.8082100000001
F1917.4522019999999
tp669
a(F2360.8179190000001
F1878.420486
tp670
a(F1884.8480910000001
F1873.925526
tp671
a(F2231.3271930000001
F1909.265881
tp672
a(F2433.602989
F1845.8654200000001
tp673
a(F90341.081116999994
F3762.1993130000001
tp674
a(F2045.3420590000001
F1947.48143
tp675
a(F2094.731659
F1881.4287139999999
tp676
a(F1952.2304099999999
F1866.1640930000001
tp677
a(F1922.4541959999999
F1871.5089330000001
tp678
a(F2091.455958
F1928.9081249999999
tp679
a(F2466.5065039999999
F1956.9549460000001
tp680
a(F1963.7534989999999
F1864.042365
tp681
a(F1876.199601
F1883.4597659999999
tp682
a(F2080.3896199999999
F1893.307174
tp683
a(F2304.040986
F1865.7982139999999
tp684
a(F2135.9814040000001
F1947.0903149999999
tp685
a(F2058.2740789999998
F1898.206367
tp686
a(F2024.3931709999999
F1930.0334459999999
tp687
a(F2040.0307809999999
F1877.9463049999999
tp688
a(F2333.3713499999999
F1891.344722
tp689
a(F1917.9621890000001
F1909.7915370000001
tp690
a(F155988.231061
F1913.3736269999999
tp691
a(F2439.712931
F2035.663589
tp692
a(F2052.0454970000001
F1918.1058169999999
tp693
a(F1910.3436489999999
F1876.836663
tp694
a(F2464.3136049999998
F1927.411012
tp695
a(F2129.086198
F1865.025447
tp696
a(F2176.7169829999998
F1992.4507329999999
tp697
a(F1937.086047
F1919.856174
tp698
a(F7395.8511120000003
F16577.023625000002
tp699
a(F2081.2204149999998
F1911.0351860000001
tp700
a(F2410.3375150000002
F1933.1692660000001
tp701
a(F1933.2728259999999
F1857.383384
tp702
a(F2042.512708
F1866.1376929999999
tp703
a(F2214.4130409999998
F1866.4426920000001
tp704
a(F2047.6720640000001
F1874.388913
tp705
a(F2098.6285760000001
F1984.315194
tp706
a(F2442.5471130000001
F1857.465277
tp707
a(F2319.8793190000001
F1933.242659
tp708
a(F2096.804251
F1920.4620709999999
tp709
a(F2186.0223179999998
F1947.3293329999999
tp710
a(F3707.690282
F10223.032519
tp711
a(F71979.476788
F3684.4110839999998
tp712
a(F2082.3272059999999
F1977.5668599999999
tp713
a(F1982.3667479999999
F1972.293126
tp714
a(F2271.6286300000002
F2059.227965
tp715
a(F14857.848475000001
F14709.823804
tp716
a(F1911.695242
F1876.497079
tp717
a(F1938.0998529999999
F1850.848033
tp718
a(F2063.114536
F1934.5191950000001
tp719
a(F2103.9867260000001
F1977.882345
tp720
a(F2215.388289
F2059.019906
tp721
a(F2120.8749079999998
F1895.5545870000001
tp722
a(F1914.718304
F1950.447175
tp723
a(F2032.7478980000001
F1838.8128979999999
tp724
a(F1929.993784
F1870.4680539999999
tp725
a(F2133.9375
F1938.821375
tp726
a(F2185.651946
F1847.377878
tp727
a(F2365.3203669999998
F1952.455483
tp728
a(F1967.888643
F1993.5467900000001
tp729
a(F1996.6703299999999
F1898.2363130000001
tp730
a(F2368.6596239999999
F1834.8560990000001
tp731
a(F1972.9454720000001
F3695.6431520000001
tp732
a(F2259.3582839999999
F1899.427778
tp733
a(F2080.1493070000001
F1938.1193189999999
tp734
a(F2157.7906760000001
F1897.8226560000001
tp735
a(F2051.9535759999999
F1842.072586
tp736
a(F2224.0638680000002
F1941.2301629999999
tp737
a(F1983.014381
F1942.0625829999999
tp738
a(F2098.2537889999999
F1902.875796
tp739
a(F2058.4745419999999
F1898.1953530000001
tp740
a(F2009.433585
F1874.396324
tp741
a(F2256.4513590000001
F2000.8692599999999
tp742
a(F2380.1507539999998
F1924.8709329999999
tp743
a(F51493.145856000003
F9752.8052260000004
tp744
a(F2141.1880970000002
F2060.6964360000002
tp745
a(F76.682451
F1806.6455229999999
tp746
a(F2437.6847280000002
F1901.2056809999999
tp747
a(F1955.255414
F1869.2549260000001
tp748
a(F25453.230138999999
F3729.0530789999998
tp749
a(F2070.913438
F1908.2695759999999
tp750
a(F2167.1089019999999
F1933.174023
tp751
a(F2176.903155
F1998.006065
tp752
a(F2213.1833959999999
F1892.0658659999999
tp753
a(F2049.3051719999999
F1964.128457
tp754
a(F2018.4268649999999
F1867.0566610000001
tp755
a(F1888.6307750000001
F1914.326071
tp756
a(F2025.0990830000001
F1884.7346950000001
tp757
a(F23924.252016999999
F61687.504642
tp758
a(F2120.4650729999998
F1853.0922149999999
tp759
a(F78681.736231000003
F110753.65448700001
tp760
a(F3964.2686450000001
F1881.4778140000001
tp761
a(F2345.5686730000002
F1895.6744900000001
tp762
a(F1950.722426
F1933.5289829999999
tp763
a(F2277.3886229999998
F1845.868019
tp764
a(F1861.270984
F1883.4143690000001
tp765
a(F2250.0555770000001
F2059.4475659999998
tp766
a(F2412.8937230000001
F1835.6931
tp767
a(F2143.5833360000001
F1897.250667
tp768
a(F2335.9893590000001
F1900.015218
tp769
a(F1987.4726889999999
F1938.3178700000001
tp770
a(F2004.086724
F1931.117814
tp771
a(F2100.138199
F1946.2252329999999
tp772
a(F2347.8289709999999
F1906.3444300000001
tp773
a(F2168.0417320000001
F1897.9924799999999
tp774
a(F1871.1217300000001
F1848.531019
tp775
a(F1933.0167019999999
F1896.8742119999999
tp776
a(F2070.0327480000001
F1907.677373
tp777
a(F2267.9769139999999
F1999.979779
tp778
a(F2304.3045689999999
F1979.9068890000001
tp779
a(F1934.104374
F1878.298221
tp780
a(F1970.9283969999999
F1967.4503649999999
tp781
a(F2175.4455600000001
F1899.8222479999999
tp782
a(F2190.0431640000002
F1892.3133909999999
tp783
a(F36788.249033
F49316.406590999999
tp784
a(F2327.3626869999998
F1892.0587889999999
tp785
a(F2036.4482889999999
F1902.6026199999999
tp786
a(F1871.2243779999999
F1865.8454839999999
tp787
a(F2586.0560620000001
F1943.175677
tp788
a(F2288.8195850000002
F1883.052183
tp789
a(F2219.6646190000001
F1820.1346590000001
tp790
a(F1887.980924
F1916.4940939999999
tp791
a(F2270.2934789999999
F1885.5371869999999
tp792
a(F2231.1943209999999
F1926.0076509999999
tp793
a(F1990.1876130000001
F1905.5274979999999
tp794
a(F1918.4571659999999
F1864.7832960000001
tp795
a(F2404.9556680000001
F1887.7317169999999
tp796
a(F2020.0023940000001
F1868.276738
tp797
a(F2298.2014789999998
F1920.5241349999999
tp798
a(F2053.9683340000001
F1895.5991839999999
tp799
a(F2291.2773950000001
F1873.816427
tp800
a(F12944.563878000001
F3687.7633430000001
tp801
a(F2094.6975870000001
F1920.1780859999999
tp802
a(F2267.97804
F1999.4280550000001
tp803
a(F2008.888209
F1878.0902450000001
tp804
a(F328176.43507200002
F20392.674245999999
tp805
a(F2245.9329509999998
F1819.700552
tp806
a(F2003.5214350000001
F1882.604163
tp807
a(F2281.171464
F1932.684244
tp808
a(F57013.002779000002
F3722.9242100000001
tp809
a(F2283.174931
F1918.270147
tp810
a(F2083.1538580000001
F1935.4842289999999
tp811
a(F1932.7076500000001
F1939.623351
tp812
a(F2055.776496
F1874.390214
tp813
a(F2187.0587340000002
F1892.0742600000001
tp814
a(F2276.9658169999998
F1845.8019240000001
tp815
a(F2151.1142679999998
F1892.680527
tp816
a(F2330.7506520000002
F1899.722303
tp817
a(F1950.932781
F1950.2036869999999
tp818
a(F722398.94882499997
F5538.1954999999998
tp819
a(F2134.0136240000002
F1939.922505
tp820
a(F2392.9767280000001
F1867.256347
tp821
a(F2253.067211
F1901.452573
tp822
a(F2005.3564140000001
F1961.328499
tp823
a(F2365.4174419999999
F1926.486568
tp824
a(F2042.61394
F1939.2346460000001
tp825
a(F2028.425528
F1938.254283
tp826
a(F2368.1131829999999
F1891.7669149999999
tp827
a(F2333.824447
F1939.376859
tp828
a(F2060.3119499999998
F1903.580727
tp829
a(F2408.1079549999999
F1901.993039
tp830
a(F1954.558143
F1892.1574310000001
tp831
a(F2080.090549
F1860.6764680000001
tp832
a(F2495.5922
F1939.9187959999999
tp833
a(F1118162.2133180001
F7502.67839
tp834
a(F2353.5840290000001
F1979.1009160000001
tp835
a(F2096.787159
F1899.2406779999999
tp836
a(F2219.0031859999999
F1841.253631
tp837
a(F2215.6442360000001
F1845.471507
tp838
a(F26335.876640999999
F66830.039199000006
tp839
a(F2007.470182
F1914.540283
tp840
a(F2256.1560720000002
F1992.9868329999999
tp841
a(F2199.8476009999999
F1953.6642529999999
tp842
a(F2503.216289
F2017.747664
tp843
a(F2103.095362
F1878.6482679999999
tp844
a(F2057.0923979999998
F1848.4139009999999
tp845
a(F2160.3905890000001
F2016.0126519999999
tp846
a(F2206.29106
F1856.4675870000001
tp847
a(F2039.901159
F1878.3534199999999
tp848
a(F2045.2661390000001
F1869.9397039999999
tp849
a(F2275.5224720000001
F2011.1894569999999
tp850
a(F2034.1896340000001
F1922.7957140000001
tp851
a(F2171.1808070000002
F1884.5244359999999
tp852
a(F1834.7669940000001
F1851.1363349999999
tp853
a(F1983.1487199999999
F1964.521086
tp854
a(F5521.990229
F1834.4035349999999
tp855
a(F2016.619498
F1923.2030360000001
tp856
a(F79493.585867999995
F2081.9260989999998
tp857
a(F1877.5754179999999
F1877.4631380000001
tp858
a(F2365.881648
F1901.93091
tp859
a(F2067.305883
F1975.2659080000001
tp860
a(F2363.0276899999999
F1924.7399620000001
tp861
a(F123886.69549500001
F2048.55618
tp862
a(F2015.420214
F1850.8363099999999
tp863
a(F2050.2550350000001
F1921.3637719999999
tp864
a(F2210.0040829999998
F1898.448592
tp865
a(F1955.1057020000001
F1874.4759079999999
tp866
a(F2020.9439420000001
F1866.5071069999999
tp867
a(F2341.2940910000002
F1887.416518
tp868
a(F2096.6412570000002
F1985.653274
tp869
a(F2392.1705489999999
F1878.243526
tp870
a(F1950.1839910000001
F1918.9740159999999
tp871
a(F2169.2890670000002
F1919.342952
tp872
a(F1875.36509
F1831.789004
tp873
a(F1918.6997469999999
F1936.3493269999999
tp874
a(F1838.4398020000001
F1864.347947
tp875
a(F1922.422274
F1920.3851529999999
tp876
a(F1997.901022
F1850.834392
tp877
a(F1871.253974
F1865.377479
tp878
a(F2254.947858
F1847.9793480000001
tp879
a(F2532.2260729999998
F1976.224837
tp880
a(F84292.494556000005
F23966.232835999999
tp881
a(F1985.79458
F1980.9868300000001
tp882
a(F1972.022322
F1863.865164
tp883
a(F2426.7094780000002
F1984.6885789999999
tp884
a(F49.700614999999999
F1806.7647260000001
tp885
a(F2055.2742010000002
F1915.7276380000001
tp886
a(F1977.3200119999999
F1882.5298029999999
tp887
a(F2422.8110769999998
F1964.3815219999999
tp888
a(F2231.429654
F1979.059933
tp889
a(F2047.4076090000001
F1941.2625880000001
tp890
a(F1930.7075620000001
F1870.6508429999999
tp891
a(F1917.3850170000001
F1909.810776
tp892
a(F2068.7874619999998
F1966.5671199999999
tp893
a(F26.267703000000001
F1806.8056819999999
tp894
a(F2170.429862
F1939.2744660000001
tp895
a(F1944.0770259999999
F1902.675923
tp896
a(F2063.2815139999998
F1958.2681829999999
tp897
a(F1971.6195319999999
F1932.2665099999999
tp898
a(F2369.1493380000002
F1906.5562689999999
tp899
a(F2466.039581
F1859.755617
tp900
a(F2063.0863720000002
F1863.866454
tp901
a(F2174.9376889999999
F1896.4230339999999
tp902
a(F2128.5042269999999
F1886.2223550000001
tp903
a(F2260.3190719999998
F1877.6720379999999
tp904
a(F2156.8668090000001
F1937.3297050000001
tp905
a(F2053.9283719999999
F1929.9949469999999
tp906
a(F2300.3097160000002
F1900.4087669999999
tp907
a(F28801.005580000001
F61269.658517999997
tp908
a(F2009.334846
F1998.7551100000001
tp909
a(F1997.7286979999999
F1948.624413
tp910
a(F14887.289408000001
F14696.239740999999
tp911
a(F2219.668122
F1899.0851479999999
tp912
a(F2160.1627020000001
F1996.9347170000001
tp913
a(F555635.41671300004
F11121.853499000001
tp914
a(F1859.350537
F1864.361007
tp915
a(F2184.3684250000001
F1976.2676300000001
tp916
a(F1915.858457
F1851.167637
tp917
a(F2119.463201
F1941.7357939999999
tp918
a(F557463.78988900001
F3668.9721840000002
tp919
a(F1925.679286
F1866.5654790000001
tp920
a(F2044.0209460000001
F1898.3945369999999
tp921
a(F2004.549086
F1931.1186399999999
tp922
a(F2216.6784579999999
F1932.6854390000001
tp923
a(F2236.4658030000001
F1999.4638190000001
tp924
a(F2083.2071310000001
F1935.4330219999999
tp925
a(F2167.630647
F1954.302005
tp926
a(F2091.1223060000002
F1929.486136
tp927
a(F1874.217938
F1866.2687040000001
tp928
a(F2187.4856890000001
F1890.8264469999999
tp929
a(F2176.434522
F1939.816335
tp930
a(F1871.0623430000001
F1849.3240479999999
tp931
a(F1910.7896860000001
F1830.356031
tp932
a(F2299.2643549999998
F1834.8606239999999
tp933
a(F2075.4081590000001
F1874.877056
tp934
a(F1982.1139089999999
F1836.919251
tp935
a(F570448.73094599997
F27573.354588999999
tp936
a(F2167.4241900000002
F1939.6709049999999
tp937
a(F2097.0678870000002
F1896.4788590000001
tp938
a(F2070.6666610000002
F1921.878645
tp939
a(F2370.4027639999999
F1886.072756
tp940
a(F2068.1696229999998
F1842.425428
tp941
a(F2224.4109619999999
F1841.4534570000001
tp942
a(F1871.870921
F1865.8368909999999
tp943
a(F2327.4061419999998
F1892.0330260000001
tp944
a(F2076.708474
F1941.1719439999999
tp945
a(F2151.661016
F1887.08195
tp946
a(F2138.3540480000001
F1848.4089469999999
tp947
a(F1933.4814859999999
F1902.6748720000001
tp948
a(F1959.137058
F1878.7867100000001
tp949
a(F2236.5094810000001
F1883.286867
tp950
a(F2143.2847780000002
F1860.6053460000001
tp951
a(F2470.4546890000001
F1829.085491
tp952
a(F1927.2227640000001
F1841.3489629999999
tp953
a(F2198.0477080000001
F1864.139242
tp954
a(F2155.3220000000001
F3761.0138959999999
tp955
a(F1868.6777870000001
F1873.600083
tp956
a(F2437.4161130000002
F1900.5320690000001
tp957
a(F2116.885158
F3789.4083949999999
tp958
a(F2149.2469860000001
F1952.8946860000001
tp959
a(F2019.189282
F1868.794629
tp960
a(F2538.8478580000001
F1864.346863
tp961
a(F2179.0677300000002
F1886.678842
tp962
a(F2037.344251
F1975.7614390000001
tp963
a(F2111.4484240000002
F1938.8112410000001
tp964
a(F2083.0157680000002
F1941.1323649999999
tp965
a(F2388.985056
F1924.7506800000001
tp966
a(F1995.8503599999999
F3795.386019
tp967
a(F2009.373038
F1874.3937510000001
tp968
a(F1955.7087160000001
F1896.0388230000001
tp969
a(F2291.093183
F1914.284353
tp970
a(F1884.0402389999999
F1890.408496
tp971
a(F1861.2579619999999
F1883.4036619999999
tp972
a(F73733.062042999998
F2246.2251299999998
tp973
a(F2577.9084459999999
F1978.180494
tp974
a(F1545486.443039
F1913.3505520000001
tp975
a(F1970.7153949999999
F1877.089659
tp976
a(F2229.7943140000002
F1884.2957590000001
tp977
a(F2190.700488
F1887.4143309999999
tp978
a(F2157.4404290000002
F1973.4190450000001
tp979
a(F2280.8048100000001
F1965.2775389999999
tp980
a(F2105.9967470000001
F1857.4699439999999
tp981
a(F239224.26091899999
F2281.063877
tp982
a(F2218.426093
F1847.973565
tp983
a(F2315.9969620000002
F1842.0503739999999
tp984
a(F2075.4808440000002
F1934.7479969999999
tp985
a(F2395.1531049999999
F1851.3994580000001
tp986
a(F2236.8842519999998
F1999.4313520000001
tp987
a.cnumpy.core.multiarray
scalar
p1
(cnumpy
dtype
p2
(S'f8'
I0
I1
tRp3
(I3
S'<'
NNNI-1
I-1
I0
tbS'\x06\x99\x7f#\xdb\x0bu?'
tRp4
.F0
.