ccopy_reg
_reconstructor
p1
(cpykov
Vector
p2
c__builtin__
dict
p3
(dp4
S'a'
F0.0015036463423802721
sS'E'
F0.017818209157206225
sS'F'
F0.0080445079317344563
sS'f'
F0.12397564092925342
sS'0'
F0.0014284640252612583
sS'r'
F0.00037591158559506803
sS'5'
F0.00015036463423802722
sS'w'
F0.046763401248026464
sS'v'
F0.22569731599127885
sS'e'
F0.57424253815502602
stRp5
.ccopy_reg
_reconstructor
p1
(cpykov
Chain
p2
c__builtin__
dict
p3
(dp4
(S'v'
S'e'
tp5
F0.47668221185876081
s(S'a'
S'w'
tp6
F0.10000000000000001
s(S'E'
S'F'
tp7
F0.012658227848101266
s(S'e'
S'e'
tp8
F0.77166797590992398
s(S'w'
S'v'
tp9
F0.049839228295819937
s(S'v'
S'w'
tp10
F0.0009993337774816789
s(S'E'
S'e'
tp11
F0.46835443037974678
s(S'r'
S'e'
tp12
F0.40000000000000002
s(S'F'
S'F'
tp13
F0.45794392523364486
s(S'v'
S'v'
tp14
F0.49333777481678881
s(S'f'
S'E'
tp15
F0.023044269254093391
s(S'E'
S'v'
tp16
F0.0042194092827004225
s(S'f'
S'w'
tp17
F0.1516070345664039
s(S'v'
S'f'
tp18
F0.026315789473684213
s(S'v'
S'E'
tp19
F0.0013324450366422385
s(S'5'
S'v'
tp20
F0.5
s(S'f'
S'a'
tp21
F0.0097028502122498504
s(S'r'
S'f'
tp22
F0.60000000000000009
s(S'E'
S'E'
tp23
F0.46413502109704641
s(S'f'
S'F'
tp24
F0.012734990903577928
s(S'F'
S'v'
tp25
F0.0093457943925233638
s(S'f'
S'e'
tp26
F0.10187992722862342
s(S'w'
S'f'
tp27
F0.42926045016077169
s(S'0'
S'v'
tp28
F0.68421052631578949
s(S'0'
S'E'
tp29
F0.052631578947368432
s(S'e'
S'f'
tp30
F0.023435454307410314
s(S'5'
S'5'
tp31
F0.5
s(S'F'
S'a'
tp32
F0.018691588785046728
s(S'E'
S'0'
tp33
F0.01687763713080169
s(S'e'
S'E'
tp34
F0.010212097407698349
s(S'e'
S'F'
tp35
F0.0044514270751505628
s(S'a'
S'f'
tp36
F0.80000000000000004
s(S'f'
S'f'
tp37
F0.63856882959369321
s(S'F'
S'e'
tp38
F0.056074766355140186
s(S'w'
S'e'
tp39
F0.040192926045016078
s(S'0'
S'w'
tp40
F0.26315789473684215
s(S'e'
S'w'
tp41
F0.0091647028017805693
s(S'a'
S'E'
tp42
F0.050000000000000003
s(S'w'
S'a'
tp43
F0.0032154340836012861
s(S'w'
S'r'
tp44
F0.0080385852090032149
s(S'E'
S'f'
tp45
F0.03375527426160338
s(S'v'
S'0'
tp46
F0.0013324450366422385
s(S'w'
S'w'
tp47
F0.46945337620578775
s(S'e'
S'0'
tp48
F0.00065462162869861214
s(S'F'
S'f'
tp49
F0.41121495327102803
s(S'F'
S'E'
tp50
F0.046728971962616821
s(S'e'
S'v'
tp51
F0.18041372086933749
s(S'f'
S'0'
tp52
F0.0036385688295936937
s(S'a'
S'e'
tp53
F0.050000000000000003
s(S'f'
S'v'
tp54
F0.058823529411764712
stRp55
(dp56
S'_guess'
p57
g1
(cpykov
Vector
p58
g3
(dp59
S'a'
F0.0015036463423802721
sS'E'
F0.017818209157206225
sS'F'
F0.0080445079317344563
sS'f'
F0.12397564092925342
sS'0'
F0.0014284640252612583
sS'r'
F0.00037591158559506803
sS'5'
F0.00015036463423802722
sS'w'
F0.046763401248026464
sS'v'
F0.22569731599127885
sS'e'
F0.57424253815502602
stRp60
sb.S'55veeeeeeeeEeeeeffefefefffefffefffffffffffffFffffffFFffffffFFffffffFFffffffFFfffffffefefefffefffeffffffffffffFFffffffFFffffffFFffffffFFffffffFFfffffffffffefefefefefeffffffffffffffffffFFffffffFFffffffFFffffffFFfffffffefefefefefefeffffffffffffffffffffFFffffffFFffffffFFffffffFFfffffffefefefffefffefeffffffffffffffffff0v0vveeevveeevveeevveeevveeevveeevveeevveeevveeevveeevveeevveeevveeevveeevveeevveeevveeevveeevveeevveeevveeevveeevveeevveeevveeevveeevveeevveeevveeevveeevveeevveeevveeevveeevveeevveeevveeevveeevveeevveeevveeevveeevveeevveeevveeevveeevveeevveeevveeevveeevveeevveeevveeevveeevveeevveeevveeevveeevveeevveeevveeevveeevveeevveeevveeevveeevveeevveeevveeevveeevveeevveeevveeevveeevveeevveeevveeevveeevveeevveeevveeevveeevveeevveeevveeevveeevveeevveeevveeevveeevveeevveeevveeevveeevveeevveeevveeevveeevveeevveeevvfeevveeevveeevveeevveeevveeevveeevveeevveeevveeevveeevveeevveeevveeevveeevveeevveeevveeevveeevveeevveeevveeevveeevveeevveeevveeevveeevveeevveeevveeevveeevveeevveeevveeevveeevveeevveeevveeevveeevveeevveeevveeevveeevveeevveeevveeevveeevveeevveeevveeevveeevveeevveeevveeevveeevveeevveeevveeevveeevveeevveeevveeevveeevveeevveeevveeevveeevveeevveeevveeevveeevveeevveeevveeevveeevveeevveeevveeevveeevveeevveeevveeevveeevveeevveeevveeevveeevveeevveeevveeevveeevveeevveeevveeevveeevveeevveeevveeevveeevveeevveeevveeevveeevveeevveeevveeevveeevveeevveeevveeevveeevveeevveeevveeevveeevveeevveeevveeevveeevveeevveeevveeevveeevveeevveeevveeevveeevveeevveeevveeevveeevveeevveeevveeevveeevveeevveeevveeevveeevveeevveeevveeevveeevveeevveeevveeevveeevveeevveeevveeevveeevveeevveeevveeevveeevveeevveeevveeevveeevveeevveeevveeevveeevveeevveeevveeevveeevveeevveeevveeevveeevveeevveeevveeevveeevveeevveeevveeevveeevveeevveeevveeevveeevveeevveeevveeevveeevveeevveeevveeevveeevveeevveeevveeevveeevveeevveeevveeevveeevveeevveeevveeevveeevveeevveeevveeevveeevveeevveeevveeevveeevveeevveeevveeevveeevveeevveeevveeevveeevveeevveeevveeevveeevveeevveeevveeevveeevveeevveeevveeevveeevveeevveeevveeevveeevveeevveeevveeevveeevveeevveeevveeevveeevveeevveeevveeevveeevveeevveeevveeevveeevveeevveeevveeevveeevveeevveeevveeevveeevveeevveeevveeevveeevveeevveeevveeevveeevveeevveeevveeevveeevveeevveeevveeevveeevveeevveeevveeevveeevveeevveeevveeevveeevveeevveeevveeevveeevveeevveeevveeevveeevveeevveeevweeevveeevveeevveeevveeevveeevveeevveeevveeevveeevveeevveeevveeevveeevveeevveeevveeevveeevveeevveeevveeevveeevveeevveeevveeevveeevveeevveeevveeevveeevveeevveeevveeevveeevveeevveeevveeevveeevveeevveeevveeevveeevveeevveeevveeevveeevveeevveeevveeevveeevveeevveeevveeevveeevveeevveeevveeevveeevveeevveeevveeevveeevveeevveeevveeevveeevveeevveeevveeevveeevveeevveeevveeevveeevveeevveeevveeevveeevveeevveeevveeevveeevveeevveeevveeevveeevveeevveeevveeevveeevveeevveeevveeevveeevveeevveeevveeevveeevveeevveeevveeevveeevveeevveeevveeevveeevveeevveeevveeevveeevveeevveeevveeevveeevveeevveeevveeevveeevveeevveeevveeevveeevveeevveeevveeevveeevveeevveeevveeevveeevveeevveeevveeevveeevveeevveeevveeevveeevveeevveeevveeevveeevveeevveeevveeevveeevveeevveeevveeevveeevveeevveeevveeevveeevveeevveeevveeevveeevveeevveeevveeevveeevveeevveeevveeevveeevveeevveeevveeevveeevveeevveeevveeevveeevveeevveeevveeevveeevveeevveeevveeevveeevveeevveeevveeevveeevveeevveeevveeevveeevveeevveeevveeevveeevveeevveeevveeevveeevveeevveeevveeevveeevveeevveeevveeevveeevveeevveeevveeevveeevveeevveeevveeevveeevveeevveeevveeevveeevveeevveeevveeevveeevveeevveeevveeevveeevveeevveeevveeevveeevveeevveeevveeevveeevveeevveeevveeevveeevveeevveeevveeevveeevveeevveeevveeevveeevveeevveeevveeevveeevveeevveeevveeevveeevveeevveeevveeevveeevveeevveeevveeevveeevvefevveeevveeevveeevveeevveeevveeevveeevveeevveeevveeevveeevveeevveeevveeevveeevveeevveeevveeevveeevveeevveeevveeevveeevveeevveeevveeevveeevveeevveeevveeevveeevveeevveeevveeevveeevveeevveeevveeevveeevveeevveeevveeevveeevveeevveeevveeevveeevveeevveeevveeevveeevveeevveeevveeevveeevveeevveeevveeevveeevveeevveeevveeevveeevveeevveeevveeevveefvveeevveeevveeevveeevveeevveeevveeevveeevveeevveeevveeevveeevveeevveeevveeevveeevveeevveeevveeevveeevveeevveeevveeevveeevveeevveeevveeevveeevveeevveeevveeevveeevveeevveeevveeevveeevveeevveeevveeevveeevveeevveeevveeevveeevveeevveeevveeevveeevveeevveeevveeevveeevveeevvfeevveeevveeevveeevveeevveeevveeevveeevveeevveeevveeevveeevveeevveeevveeevveeevveeevveeevveeevveeevveeevveeevveeevveeevveeevveeevveeevveeevveeevveeevveeevveeevveeevveeevveeevveeevveeevveeevveeevveeevveeevveeevveeevveeevveeevveeevveeevveeevveeevveeevveeevveeevveeevveeevveeevveeevveeeFFfffEEeeevveeevveeevveeevveeevveeevveeevveeevveeevveeevveeevveeevveeevveeeEEffffEEeeevvffefeffevveeeFFfffEEeeeFFeffefEEeeevveeefeffffvveeeFFfeefEEeeewwffefeeeevveeeFFfffEEeeeFFfeffEEeeevveeefffffvveeeFFffefEEeeevvffefffeeevveeeFFfffEEeefFFafffEEeeevveefeffffvveeeFFfffEEeeewwfffeeeeevveeeFFfffEEeeeFFfffEEeeevveeeeeeeeeeeeevvfeeEEeeeeeeeeEEeeewwfffffevveeeEEeeeeeeeeEEeeevveefffEEeeevveeeEEeeefeeeeEEeeeEEeeeefeeEEeeevveeeeeeeeeeeeevveeeEEeeeeeeeeEEeeevveeeeeeeeeeeeevveeeEEeeeeeeeeEEeeevveeeeeeeeeeeeevveeeEEeeeeeeeeEEeeeEEeeeeeeeeEEeeevveeeeeeeeeeeeevveeeEEeeeeeeeeEEeeevveeeeeeeeeeeeevveeeEEeeeeeeeeEEeeevveeeeeeeeeeeeevveeeEEeeeeeeeeEEeeevveeeeeeeeeeeeevveffffffffaffffvveeeEEeeeeeeeeEEeeevveeeeeeeeeeeeevveeeEEeeeeeeeeEEeeevveeeeeeeeeeeeevveeeEEeeeeeeeeEEfeeEEeeeeeeeeEEeeevveeeeeeeeeeeeevveeeEEeeeeeeeeEEeeevveeeeeeeeeeeeevveeeEEeeeeeeeeEEeeevveeeeeeeeeeeeevveeeEEeeeeeeeeEEeeeEveeeeeeeeEeeeevveeeEFeeeeeeeeEEeeeEEeeeeeeeeEEeeevveeeeeeeeeeeeevveeeEEeeeeeeeeEEeeevveeeeeeeeeeeeevveeeEEeeeeeeeeEEeeevveeeeeeeeeeeeevveeeEEeeeeeeeeEEeeevveeeeeeeeeeeeevveeeEEeeeeeeeeEEeeeEEeeeeeeeeEEeeevveeeeeeeeeeeeevveeeEEeeeeeeeeEEeeevveeeeeeeeeeeeevveeeEEeeeeeeeeEEeeevveeeeeeeeeeeeevveeeEEeeefeeeeEEeeeEEeeeeeeeeEEeeevveeeeeeeeeeeeevveeeEEeeeeeeeeEEeeevveeeeeeeeeeeeevveeeEFeeeeeeeeEEeeevveeeeeeeeeeeeevveeeEEeeeeeeeeEEeeewwfeefEEeeevveeeEEffffevveeeFFfffEEeeewwfefefefevveeeEEeeeeeeeeEEeeewwfffeeeeevveeeFFfffEEeeeFFfffEEeeevvfefffffvveeeFFfeffEEeeewwfffeeeeevveeeFEffffEEeeeFEefffEEeeevveefeffffvveeeFFafeffEEeeewwfffeeeeevveeeFFfffEEeeeFFfffEEeeewveffefeffvveeeFEffffEEeeewwffafeeeeevveeeFEfffeevveeeFFfffEEeeevveeeeeeeeeeeeevveeeFFfaffEEeeewwfffEEeeevveeevveeevveeevveeevveeevveeevveeevveeevveeevveeevveeevveeevveeeFFfffEEeeevveeefffffvveeeFFffafaEEeeewwffffeeevveeeFFfffEEeeeEEffffeEEeeevveeeffffefvveeeFFfffEEeeewwffefeeeevveeeFFfffEEeeeEEfffefEEeeevveeefffffvveeeFFeeffEEeeewwfffefeevveeeFFeeffEEeeeFFfffEEeeevveefeffffvveeeFFfffEEeeewwffffeeevEeEeeeeeeffwwfeefvveeeeeefvveeeeeeeevveeeeeeeevveeeeeeeevveeeeeeeevveeeeeeeevveeeeeeeevveeeeeeeevveeeeeeeevveeeeeeeewvfffeevveeeeeeeevveeeeffwwfffvveeeeeeeevveeeeeeeevveeeeeeeevveeeeeeeevveeeeeeeevveeeeeeeevveeeeeeeevveeeeeeeevveeeeeeeevveeeeeeeevveeeeeeeevveeeeeeeevveeeeeeeevveeeeeeeevveeeeeeeevveeeeeeeevveeeeeeeevveeeeeeeevvfeeeeeeevveeeeeeeevveeeeeeeevveeeeeeeevveeeeeeeevveeeeeeeevveeeeeeeevveeeeeeeevveeeeeeeevveeeeeeeevveeeeeeeevveeeeeeeevveeeeeeeevveeeeeeeevveeeeeeeevveeeeeeeevveeeeeeeevveeeeeeeevveeeeeeeevveeeeeeeevveeeeeeeevveeeeeeeevveeeeeeeevveeeeeeeevveeeeeeeewwfeefwwfffwwefffewwfffvvffffwwfeffvveeeeeeeevveeeeeeeevveeeeeeeewwfeefwwfffwwfeefwwfffwwfffwwfffwwfffwwffefwwfffwveefffvveeeeeefwwfffwvffffvveeeeeeeewwefffvveeeeeeeewwffee0wwfffwwfffvveeeeeeeevveefffwwfffwwfffwwfffwwfffvveeeeeeeevveeeeeeeevveeeeeeeevveeeeeeeevveeeeeeeevveeeeeeeevveeeeeeeevveeeeeeeevveeeeeeeevveeeeeeeewwfffwvffffvveeeeeeeewwffeewwfffvveeeeeeeewwfffvveeeeeeeewwfffvveeeeeeeevvfffeeewwfffvveeeeeeeevveeeeeeeevveeeeeeeevveeeeeeeevveeeeeeeevveeeeeeeevveeeeeeeewwfffevveeeeeeeevveeeeeeeevveeeeeeeevveeeeeeeevveeeeeeeevveeeeeeeevveeeeeeeevveeeeeeeevveeeeeeeevveeeeeeeevveeeeeeeevveeeeeeeevveeeeeeeevveeeeeeeevveeeeeeeevveeeeeeeevveeeeeeeevveeeeeeeevveeeeeeeevveeeeeeeevveeeeeeeevveeeeeeeevveeeeeeeevveeeeeeeevveeeeeeeevveeeeeeeevveeeeeeeevveeeeeeeevveeeeeeeevveeeeeeeevveeeeeeeevveeeeeeeevveeeeeeeevveeeeeeeevveeeeeeeevveeeeeeeevveeeeeeeevveeeeeeeevveeeeeeeevveeeeeeeevveeeeeeeewwfeffwwfffvveeeeeeeevveeeeeeeewwfffvveeeeeeeevveeeeeeeevveeeeffvveeeeeeeevveeeeeefvveeeeeeeevveeeeeeeewvffffvvffffvveeeeeeeevveeeeeeeevveeeeeeeewweeffwvefffwvfeeffwwfeffwvefffvveeeeeeeevveeeeeeeevveeeeeeee0vveeeeeeeewwffeevveeeeeeeewwfffvveeeeeeeevvffffvveeeeeeeevveeeeeeeevveeeeeeeevveeeeeeeevveeeeeeeevveeeeeeeevveeeeeeeevveeeeeeeevveeeefeeevveeeeeeeevveeeeeeeewwfffwweeffvveeeeeeeevveeeeeeeevveeeeeeeevveeeeeeeevveeeeeeeevveeeeeeeevveeeeeeeevveeeeeeeevveeeeeeeevveeeeeeeevveeeeeeeevveeeeeeeevveeeeeeeevveeeeeeeevveeeeeeeevveeeeeeeevveeeeeeeevveeeeeeeevveeeeeeeevveeeeeeeevveeeeeeeevveeeeeeeevveeeeeeeevveeeeeeeevveeeeeeeevveeeeeeeevveeeeeeeevveeeeeeeevveeeeeeeevveeeeeeeevveeeeeeeevveeeeeeeevveeeeeeeevveeeeeeeevveeeeeeeevveeeeeeeevveeeeeeeevveeeeeeeevveeeeeeeevveeeeeeeevveeeeeeeevveeeeeeeevveeeeeeeevveeeeeeeevveeeeeeeevveeeeeeeevveeeeeeeevveeeeeeeevveeeeeeeevveeeeeeeevveeeeeeeevveeeeeeeewwfffwwefffwwefffwwfffwwfffwwefffwwfffwwfffwwfffwwfffwwfffwweefeewwfffwwfffwwfffwwefffwwfffvvffffvvffafeevvfffeewwfffwwfffvvffffwvffffwwfffwwfffwvefffvvfffeewwfffwwffafwwfffwrfafffwwfff0vvffffvvffffvvffffwwfffewwfeffwwfffwwfffwwfffwwfffwwffefwwfffwwfffvveeeeeeeewwfffwvefffvvffffvvffffwwfffwwfffwvfefffwwfffwwffafwwfffvveeeeeeeevveeeeeeeevveeeeeeeevveefffvveeeeeeeevveeeeeeeevveeeeeeeevveeeeeeeevveeeeeeeevveeeeeeeevveeeeeeeevveeeeeeeevveeeeeeeevveeeeeeeevveeeeeeeevveeeeeeeevveeeeeeeevveeeeeeeevveeeeeeeevveeeeeeeevveeeeeeeevveeeeeeeevveeeeeeeevveeeeeeeevveeeeeeeevveeeeeeeevveeeeeeeevvfeeeeeeevveeeeeeeevveeeeeeeevveeeeeeeevveeeeeeeevveeeeeeeevveeeeeeeevveeeeeeeevveeeeeeeevveeeeeeeevveeeeeeeevveeeeeeeevveeeeeeeevveeeeeeeevveeeeeeeevveeeeeeeevveeeeeeeevveeeeeeeevveeeeeeeevveeeeeeeevveeeeeeeevveeeeeeeewwffeewwfffwwfffwwfeefwreefffwwfffwwfffwwfffewweeffvvfffefwweeffwwfffwwfffwwfffwwfffwwffefawwfffwwfffvvffefeewwfffwwfffwwfffwwfffwwfffwwfffwwfffwwfffwwfeffwvffffwwfffwwfffwwfffwwffefewweeeff0wwfffwwfffwwfffwvffffwwfffvvffffwwfffwwfffwwfffwwfffwvfaeeffvvffffewwffeewwfffwwfeffwvefffwwfffvvffffwvefffwwfeefwwfffvveeeeeeeevveeeeeeeewvfeffefwwfffwvffefefvveeeeeeeevveeeeeeeevveeeeeeeevveeeeeeeevveeeeeeeevveeeeeeeevveeeeeeeevveeeeeeeevveeeeeeeevveeeeeeeevveeeeeeeevveeeeeeeevveeeeeeeevveefffvveeeeeeeevveeeeeeeevveeeeeeeevveeeeeeeevveeeeeeeevveeeeeeeevveeeeeeeevveeeeeeeevveeeeeeeevveeeeeeeevveeeeeeeevveeeeeeeevveeeeeeeevveeeeeeeevveeeeeeeevveeeeeeeevveeeeeeeevveeeeeeeevveeeeeeeevveeeeeeeevveeeeeeeevveeeeeeeevveeeeeeeevveeeeeeeevveeeeeeeevveeeeeeeevveeeeeeeevveeeeeeeevveeeeeeeevveeeeeeeevvffffvvffffwwfffwwfffwwfffwwfffwwfffvvffffwwffefwwfffewwefffwwfeffwwfffwwfffwwfffewwfffwwfffvvffffvvffffwwfffvvffffwwfffewwfffwwfffwwfffwwfffwwfffwwfffwwfffvvffffewrffffwwfffvvffffvvffffwwfffEeEeefFfffeEE0vvffffwwfffwwfffevvfffefwrffffwwfffwwefffwwfffwvffffwwfffwwfffwwfffwwfffwwffafwwafeefvvfffefwwfffwvefffwwfefefwvfefffwwfffvveeeeeeeevveeeeeeeevveeeeeeeevveeeeeeeevveeeeeeeevveeeeeeeevveeeeeeeevveeeeeeeevveeeeeeeevveeeeeeeevveeeeeeeevveeeeeeeevveeeeeeeevveeeeeeeevveeeeeeeevveeeeeeeevveeeeeeeevveeeeeeeevveeeeeeeevveeeeeeeevveeeeeeeevveeeeeeeevveeeeeeeevveeeeeeeevveeeeeeeevveeeeeeeevveeeeeeeevveeeeeeeevveeeeeeeevveeeeeeeevveeeeeeeevveeeeeeeevveeeeeeeevveeeeeeeevveeeeeeeevveeeeeeeevveeeeeeeevveeeeeeeevveeeeeeeevveeeeeeeevveeeeeeeevveeeeeeeevveeeeeeeevveeeeeeeevveeeeeeeevveeeeeeeevveeeefeeevveeeeeeeevveeeeeeeewwffeeewwfffwvffffwwfffwweeffwwfffwwfffwwfffwwfffwwfffwwffefvvffffvvffffwwfffwwffefwwfffewwfffwwfffvvffffevvffffwwfffwwfffwwfeefwwfffwwfffwwfffwwffefwwfffwwfffwwfffwwfffvvffffvvffffwwfffwwfff0wwfffwwefffwwfffwwfffwwfffwwfffwwfffwwfffwwfffwwfffvvffffvveeeeeeeevveeeeeefvveeeeeeeevveeeeeeeevveeeeeeeevveeeeeeeewweeffvvefeeeeeevveeeeeeeevveeeeeeeevveeeeeeeevveeeeeeeevveeeeeeeevvffeefwwefffewvefffwwfffwwffefewwfffwwfffvveeeeeeeevveeeeeeeevveeeeeeeevveeeeeeeevveeeeeeeevveeeeeeeevveeeeeeeevveeeeeeeevveeeeeeeevveeeeeeeevveeeeeeeevveeeefeeevveeeeeeeevveeeeeeeevveeeeeeeevveeeeeeeevveeeeeeeevveeeeeeeevveeeeeeeevveeeeeeeevveeeeeeeevveeeeeeeevveeeeeeeevveeeeeeeevveeeeeeeevveeeeeeeevveeeeeeeevveeeeeeeevveeeeeeeevveeeeeeeevveeeeeeeevveeeeeeeevveeeeeeeevveeeeeeeevveeeeeeeevveeeeeeeevveeeeeeeevveeeeeeeevveeeeeeeewweeeffwwfffwwfffwwfffwwfffvvfffefwwefffwwfffvveeeeeeeewwfffwwfffwwfffwwfffwwfffwwfffvvffffvvffffwwfffwwfffwwfffvvfffffwwfffawwfffwwfffwwaffafwwffFvvffffvvffffwwfffwwfffwwffafwwfffwwfffwwfeeefwwfff0wwfffwvfeeffwwfffwwfffwwfffwwfffwwfffvvffffwwfffwvffffvveeeeeeeevveeeeeeeevveeeeeeeevveeeeeeeewwefffvveeeeeeeevveeeeeeeewwefeffwvffffwvefffvveeeeeeeevveeeeeeeevveeeeeeeevveeeeeeeevveeeeeeeevveefffvveeeeeeeevveeeeeeeevveeeeeeeevveeeeeeeevveeeeeeeevveeeeeeeevveeeeeeeevveeeeeeeevveeeeeeeevveeeeeeeevveeeeeeeevveeeeeeeevveeeeeeeevveeeeeeeevveeeeeeeevveeeeeeeevveeeeeeeevveeeeeeeevveeeeeeeevveeeeeeeevveeeeeeeevveeeeeeeevveeeeeeeevveeeeeeeevveeeeeeeevveeeeeeeevveeeeeeeevweeeeeeeevveeeeeeeevveeeeeeeevveeeeeeeevveeeeeeeevveeeeeeeevveeeeeeeevveeeeeeeevveeeeeeeevveeeeeeeevveeeeeeeevveeeeeeeevveeeeeeeevveeeeeeeevveeeeeeeevveeeeeeeevveeeeeeeevveeeeeeeewwfefefwwfffwwfffvvffffvveeeeeeeevveeeeeeeewwfffwwfffvvfffefwwfffvvffffwwfffwwfeefwwfffewwfffwwfffwwfffwwfffwwfffvvffffewwfffwreefffwwefffwwfffwwffafvvffffwwfffwwfffwwfffwwfffwwfffwwfffwvffffewwfeff0wwfffwwfffwwfffvveeeeeeeevvffffvveeeeeeeevveeeeeeeevveeeeeeeevveeeeeeeevveeeeeeeevveeeeeeeevveeeeeeeevveefffvveeeeeeeevveeeeeeeewwffefwwffefwwfffvveeeeeeeewwfefeeevveeeeeeeevveeeeeeeevveeeeeeeevveeeeeeeevveeeeeeee0vvE0vvE0vwveeFFEEFFeEe0vv0vvEEeee0v0v0E0v'
p1
.(lp1
(F681141.77965200006
F49.281129
tp2
a.cnumpy.core.multiarray
scalar
p1
(cnumpy
dtype
p2
(S'f8'
I0
I1
tRp3
(I3
S'<'
NNNI-1
I-1
I0
tbS'd!\x0bY\xc8B\x86?'
tRp4
.F0
.