ccopy_reg
_reconstructor
p1
(cpykov
Vector
p2
c__builtin__
dict
p3
(dp4
S'A'
F0.11904761904761905
sS'C'
F0.11904761904761904
sS'D'
F0.0068027210884353739
sS'G'
F0.01020408163265306
sS'I'
F0.01020408163265306
sS'H'
F0.013605442176870748
sS'a'
F0.013605442176870748
sS'c'
F0.040816326530612242
sS'g'
F0.044217687074829932
sS'i'
F0.030612244897959183
sS'h'
F0.040816326530612242
sS'1'
F0.0034013605442176869
sS'0'
F0.10544217687074831
sS'3'
F0.0034013605442176869
sS'r'
F0.19047619047619047
sS'u'
F0.0068027210884353739
sS't'
F0.16666666666666666
sS'y'
F0.023809523809523808
sS'x'
F0.037414965986394558
sS'z'
F0.013605442176870748
stRp5
.ccopy_reg
_reconstructor
p1
(cpykov
Chain
p2
c__builtin__
dict
p3
(dp4
(S'G'
S'H'
tp5
F0.33333333333333337
s(S'H'
S'z'
tp6
F0.25
s(S'A'
S't'
tp7
F0.54285714285714282
s(S'D'
S'G'
tp8
F0.5
s(S'h'
S'i'
tp9
F0.083333333333333343
s(S'u'
S'u'
tp10
F0.5
s(S'1'
S'c'
tp11
F1
s(S'0'
S'x'
tp12
F0.12903225806451613
s(S'x'
S't'
tp13
F0.090909090909090912
s(S'I'
S'D'
tp14
F0.33333333333333337
s(S'a'
S'C'
tp15
F0.75
s(S'3'
S'1'
tp16
F1
s(S'z'
S'z'
tp17
F0.25
s(S'x'
S'g'
tp18
F0.18181818181818182
s(S'0'
S'y'
tp19
F0.09677419354838708
s(S'z'
S'i'
tp20
F0.25
s(S'I'
S'G'
tp21
F0.33333333333333337
s(S'G'
S'0'
tp22
F0.33333333333333337
s(S'y'
S't'
tp23
F0.14285714285714285
s(S'H'
S'x'
tp24
F0.25
s(S't'
S'r'
tp25
F1
s(S'y'
S'H'
tp26
F0.14285714285714285
s(S'g'
S'h'
tp27
F0.15384615384615383
s(S'A'
S'y'
tp28
F0.028571428571428567
s(S'i'
S'c'
tp29
F0.22222222222222221
s(S'g'
S'g'
tp30
F0.69230769230769229
s(S'A'
S'0'
tp31
F0.085714285714285701
s(S'z'
S'u'
tp32
F0.25
s(S'z'
S'c'
tp33
F0.25
s(S'A'
S'I'
tp34
F0.028571428571428567
s(S'h'
S'g'
tp35
F0.083333333333333343
s(S'x'
S'I'
tp36
F0.090909090909090912
s(S'c'
S'r'
tp37
F0.66666666666666674
s(S'u'
S'y'
tp38
F0.5
s(S'0'
S't'
tp39
F0.74193548387096775
s(S'r'
S'C'
tp40
F0.44642857142857145
s(S'A'
S'C'
tp41
F0.19999999999999998
s(S'y'
S'g'
tp42
F0.14285714285714285
s(S'H'
S'I'
tp43
F0.25
s(S'r'
S'0'
tp44
F0.48214285714285721
s(S'x'
S'G'
tp45
F0.090909090909090912
s(S'x'
S'x'
tp46
F0.27272727272727271
s(S'I'
S'H'
tp47
F0.33333333333333337
s(S'G'
S'x'
tp48
F0.33333333333333337
s(S'y'
S'y'
tp49
F0.2857142857142857
s(S'C'
S'A'
tp50
F1
s(S'A'
S'x'
tp51
F0.028571428571428567
s(S'x'
S'H'
tp52
F0.090909090909090912
s(S'y'
S'x'
tp53
F0.14285714285714285
s(S'c'
S'a'
tp54
F0.33333333333333337
s(S'x'
S'c'
tp55
F0.18181818181818182
s(S'r'
S't'
tp56
F0.053571428571428568
s(S'H'
S't'
tp57
F0.25
s(S'r'
S'c'
tp58
F0.017857142857142856
s(S'g'
S'c'
tp59
F0.15384615384615383
s(S'0'
S'z'
tp60
F0.032258064516129031
s(S'A'
S'c'
tp61
F0.057142857142857134
s(S'D'
S'D'
tp62
F0.5
s(S'y'
S'h'
tp63
F0.14285714285714285
s(S'A'
S'z'
tp64
F0.028571428571428567
s(S'a'
S't'
tp65
F0.25
s(S'h'
S'c'
tp66
F0.083333333333333343
s(S'h'
S'h'
tp67
F0.75
s(S'i'
S'i'
tp68
F0.77777777777777779
stRp69
(dp70
S'_guess'
p71
g1
(cpykov
Vector
p72
g3
(dp73
S'A'
F0.11904761904761905
sS'C'
F0.11904761904761904
sS'D'
F0.0068027210884353739
sS'G'
F0.01020408163265306
sS'I'
F0.01020408163265306
sS'H'
F0.013605442176870748
sS'a'
F0.013605442176870748
sS'c'
F0.040816326530612242
sS'g'
F0.044217687074829932
sS'i'
F0.030612244897959183
sS'h'
F0.040816326530612242
sS'1'
F0.0034013605442176869
sS'0'
F0.10544217687074831
sS'3'
F0.0034013605442176869
sS'r'
F0.19047619047619047
sS'u'
F0.0068027210884353739
sS't'
F0.16666666666666666
sS'y'
F0.023809523809523808
sS'x'
F0.037414965986394558
sS'z'
F0.013605442176870748
stRp74
sb.S'31caCA0xxcr0trtr0trCA0trCACACAytr0yxghhhicrCAzziiiiiiiicr0trCAtrtr0tr0zuuyhhggggcrtrCACAtrCA0tr0tr0xxggggcr0trCACACAtrCAtrCAtrCAtrCAtrCAtr0xxHtr0trcaCAcaCAcatrCAtrCAtrCAxG0yygggghhhhhhhcr0tr0tr0trCAtrCAtrCAtrCAtrCAtrCAtrCAIDDGxIHIGHxcr0tr0trCACACAtr0xtr0yyHzcr0tr0tr0tr0tr0trCAtrCAtr0tr0tr0tr0tr'
p1
.(lp1
(F9.0010390000000005
F36.272019
tp2
a.cnumpy.core.multiarray
scalar
p1
(cnumpy
dtype
p2
(S'f8'
I0
I1
tRp3
(I3
S'<'
NNNI-1
I-1
I0
tbS'1\xfe\x96\x0fb$\x8d?'
tRp4
.F6.6998324977085473e-95
.