ccopy_reg
_reconstructor
p1
(cpykov
Vector
p2
c__builtin__
dict
p3
(dp4
S'A'
F0.058637083993660855
sS'C'
F0.031695721077654518
sS'E'
F0.031695721077654518
sS'D'
F0.1584786053882726
sS'G'
F0.072900158478605384
sS'F'
F0.0079239302694136295
sS'I'
F0.090332805071315372
sS'H'
F0.014263074484944533
sS'a'
F0.057052297939778125
sS'c'
F0.025356576862123614
sS'e'
F0.0079239302694136295
sS'd'
F0.15213946117274166
sS'g'
F0.052297939778129951
sS'f'
F0.0031695721077654518
sS'i'
F0.04754358161648177
sS'h'
F0.019017432646592711
sS'0'
F0.015847860538827259
sS'r'
F0.02694136291600634
sS'u'
F0.022187004754358162
sS'4'
F0.0031695721077654518
sS'w'
F0.0063391442155309036
sS'v'
F0.020602218700475437
sS'y'
F0.0063391442155309036
sS'x'
F0.022187004754358162
sS'z'
F0.030110935023771792
sS't'
F0.015847860538827259
stRp5
.ccopy_reg
_reconstructor
p1
(cpykov
Chain
p2
c__builtin__
dict
p3
(dp4
(S'v'
S'D'
tp5
F0.076923076923076927
s(S'E'
S'h'
tp6
F0.14999999999999999
s(S'4'
S'4'
tp7
F0.5
s(S'D'
S'G'
tp8
F0.029999999999999999
s(S'u'
S'u'
tp9
F0.14285714285714285
s(S'z'
S'0'
tp10
F0.052631578947368418
s(S'0'
S'x'
tp11
F0.20000000000000001
s(S'H'
S'E'
tp12
F0.1111111111111111
s(S'i'
S'G'
tp13
F0.20000000000000004
s(S'h'
S'D'
tp14
F0.16666666666666666
s(S'I'
S'D'
tp15
F0.22807017543859651
s(S'r'
S'I'
tp16
F0.17647058823529413
s(S'd'
S'H'
tp17
F0.020833333333333336
s(S'h'
S'a'
tp18
F0.16666666666666666
s(S'A'
S'I'
tp19
F0.027027027027027029
s(S'G'
S'F'
tp20
F0.021739130434782612
s(S'z'
S'z'
tp21
F0.26315789473684209
s(S'e'
S'I'
tp22
F0.20000000000000001
s(S'd'
S'u'
tp23
F0.031250000000000007
s(S'x'
S'u'
tp24
F0.42857142857142855
s(S'h'
S'G'
tp25
F0.16666666666666666
s(S'i'
S'x'
tp26
F0.06666666666666668
s(S'G'
S'E'
tp27
F0.21739130434782611
s(S'D'
S'E'
tp28
F0.049999999999999996
s(S'u'
S'w'
tp29
F0.071428571428571425
s(S'r'
S'g'
tp30
F0.11764705882352941
s(S'E'
S'D'
tp31
F0.050000000000000003
s(S'z'
S'r'
tp32
F0.10526315789473684
s(S'A'
S'g'
tp33
F0.027027027027027029
s(S'u'
S'd'
tp34
F0.071428571428571425
s(S'd'
S'v'
tp35
F0.010416666666666668
s(S'F'
S'i'
tp36
F0.20000000000000001
s(S'G'
S'D'
tp37
F0.58695652173913049
s(S'H'
S'f'
tp38
F0.1111111111111111
s(S'u'
S'v'
tp39
F0.14285714285714285
s(S'v'
S'd'
tp40
F0.30769230769230771
s(S'd'
S'd'
tp41
F0.21875000000000003
s(S'D'
S'g'
tp42
F0.17999999999999999
s(S'v'
S'v'
tp43
F0.076923076923076927
s(S'w'
S'd'
tp44
F0.25
s(S'F'
S'E'
tp45
F0.20000000000000001
s(S'f'
S'C'
tp46
F0.5
s(S'h'
S'd'
tp47
F0.083333333333333329
s(S'i'
S'z'
tp48
F0.13333333333333336
s(S'r'
S'i'
tp49
F0.11764705882352941
s(S'E'
S'F'
tp50
F0.050000000000000003
s(S'a'
S'a'
tp51
F0.30555555555555558
s(S'r'
S'r'
tp52
F0.058823529411764705
s(S'e'
S'd'
tp53
F0.40000000000000002
s(S'C'
S'I'
tp54
F0.050000000000000003
s(S'H'
S'I'
tp55
F0.1111111111111111
s(S'I'
S'A'
tp56
F0.17543859649122809
s(S'I'
S'H'
tp57
F0.052631578947368425
s(S'H'
S'd'
tp58
F0.22222222222222221
s(S'I'
S'z'
tp59
F0.017543859649122806
s(S'g'
S'd'
tp60
F0.87878787878787878
s(S'D'
S'e'
tp61
F0.0099999999999999985
s(S'w'
S'c'
tp62
F0.25
s(S'C'
S'H'
tp63
F0.10000000000000001
s(S'C'
S'A'
tp64
F0.80000000000000004
s(S'E'
S'd'
tp65
F0.14999999999999999
s(S'd'
S'C'
tp66
F0.010416666666666668
s(S'h'
S'I'
tp67
F0.33333333333333331
s(S'c'
S'a'
tp68
F0.75
s(S'F'
S'd'
tp69
F0.20000000000000001
s(S'D'
S'A'
tp70
F0.019999999999999997
s(S'c'
S'i'
tp71
F0.0625
s(S'A'
S'i'
tp72
F0.1891891891891892
s(S'a'
S'c'
tp73
F0.02777777777777778
s(S'G'
S'd'
tp74
F0.10869565217391305
s(S'u'
S'g'
tp75
F0.071428571428571425
s(S'0'
S'r'
tp76
F0.10000000000000001
s(S'd'
S'D'
tp77
F0.17708333333333337
s(S't'
S'v'
tp78
F0.10000000000000001
s(S'y'
S'I'
tp79
F0.25
s(S'A'
S'D'
tp80
F0.054054054054054057
s(S'4'
S'0'
tp81
F0.5
s(S'f'
S'a'
tp82
F0.5
s(S'd'
S'i'
tp83
F0.020833333333333336
s(S'z'
S'I'
tp84
F0.10526315789473684
s(S'D'
S'h'
tp85
F0.059999999999999998
s(S'h'
S'z'
tp86
F0.083333333333333329
s(S'a'
S't'
tp87
F0.11111111111111112
s(S'c'
S'h'
tp88
F0.0625
s(S'E'
S'i'
tp89
F0.14999999999999999
s(S'e'
S'D'
tp90
F0.40000000000000002
s(S'D'
S'F'
tp91
F0.019999999999999997
s(S'a'
S'e'
tp92
F0.02777777777777778
s(S'H'
S'D'
tp93
F0.22222222222222221
s(S'D'
S'z'
tp94
F0.019999999999999997
s(S'A'
S't'
tp95
F0.054054054054054057
s(S'g'
S'e'
tp96
F0.060606060606060608
s(S'z'
S'y'
tp97
F0.15789473684210525
s(S'F'
S'g'
tp98
F0.20000000000000001
s(S'i'
S'a'
tp99
F0.06666666666666668
s(S'g'
S'a'
tp100
F0.060606060606060608
s(S'd'
S'y'
tp101
F0.010416666666666668
s(S'D'
S'x'
tp102
F0.019999999999999997
s(S'a'
S'd'
tp103
F0.083333333333333343
s(S'D'
S'a'
tp104
F0.0099999999999999985
s(S'C'
S'D'
tp105
F0.050000000000000003
s(S'a'
S'C'
tp106
F0.25000000000000006
s(S'w'
S'u'
tp107
F0.25
s(S'D'
S'D'
tp108
F0.25999999999999995
s(S'E'
S'E'
tp109
F0.050000000000000003
s(S'z'
S'G'
tp110
F0.15789473684210525
s(S'A'
S'd'
tp111
F0.10810810810810811
s(S'0'
S'v'
tp112
F0.10000000000000001
s(S'I'
S'G'
tp113
F0.12280701754385966
s(S'i'
S'D'
tp114
F0.06666666666666668
s(S'd'
S'I'
tp115
F0.11458333333333336
s(S't'
S'r'
tp116
F0.90000000000000002
s(S'c'
S'g'
tp117
F0.0625
s(S'A'
S'0'
tp118
F0.027027027027027029
s(S'w'
S'e'
tp119
F0.25
s(S'a'
S'A'
tp120
F0.1388888888888889
s(S'F'
S'A'
tp121
F0.20000000000000001
s(S'c'
S'd'
tp122
F0.0625
s(S'u'
S'0'
tp123
F0.14285714285714285
s(S'E'
S'G'
tp124
F0.050000000000000003
s(S'x'
S'r'
tp125
F0.071428571428571425
s(S'0'
S't'
tp126
F0.40000000000000002
s(S'r'
S'C'
tp127
F0.058823529411764705
s(S'I'
S'I'
tp128
F0.31578947368421056
s(S'y'
S'v'
tp129
F0.25
s(S'd'
S'w'
tp130
F0.010416666666666668
s(S'D'
S'v'
tp131
F0.0099999999999999985
s(S'A'
S'C'
tp132
F0.21621621621621623
s(S'z'
S'v'
tp133
F0.052631578947368418
s(S'D'
S'd'
tp134
F0.17999999999999999
s(S'v'
S'w'
tp135
F0.076923076923076927
s(S'r'
S'0'
tp136
F0.17647058823529413
s(S'a'
S'G'
tp137
F0.055555555555555559
s(S'i'
S'I'
tp138
F0.33333333333333337
s(S'u'
S'i'
tp139
F0.35714285714285715
s(S'r'
S'a'
tp140
F0.058823529411764705
s(S'D'
S'I'
tp141
F0.039999999999999994
s(S'I'
S'c'
tp142
F0.017543859649122806
s(S'A'
S'a'
tp143
F0.027027027027027029
s(S'E'
S'H'
tp144
F0.10000000000000001
s(S'd'
S'x'
tp145
F0.072916666666666685
s(S'd'
S'G'
tp146
F0.18750000000000003
s(S'i'
S'u'
tp147
F0.06666666666666668
s(S'I'
S'r'
tp148
F0.070175438596491224
s(S'd'
S'z'
tp149
F0.041666666666666671
s(S'v'
S'g'
tp150
F0.30769230769230771
s(S'd'
S'c'
tp151
F0.010416666666666668
s(S'E'
S'g'
tp152
F0.25
s(S'd'
S'0'
tp153
F0.010416666666666668
s(S'y'
S'D'
tp154
F0.25
s(S'G'
S'A'
tp155
F0.065217391304347838
s(S'r'
S'c'
tp156
F0.23529411764705882
s(S'i'
S'f'
tp157
F0.03333333333333334
s(S'z'
S'D'
tp158
F0.052631578947368418
s(S'A'
S'h'
tp159
F0.027027027027027029
s(S'0'
S'z'
tp160
F0.20000000000000001
s(S'H'
S'G'
tp161
F0.22222222222222221
s(S'A'
S'c'
tp162
F0.21621621621621623
s(S'x'
S'v'
tp163
F0.2857142857142857
s(S'd'
S'E'
tp164
F0.020833333333333336
s(S'v'
S'0'
tp165
F0.076923076923076927
s(S'y'
S'G'
tp166
F0.25
s(S'z'
S'x'
tp167
F0.052631578947368418
s(S'v'
S'h'
tp168
F0.076923076923076927
s(S'A'
S'G'
tp169
F0.027027027027027029
s(S'i'
S'F'
tp170
F0.03333333333333334
s(S'd'
S'a'
tp171
F0.031250000000000007
s(S'x'
S'D'
tp172
F0.14285714285714285
s(S'x'
S'w'
tp173
F0.071428571428571425
s(S'D'
S'i'
tp174
F0.089999999999999997
stRp175
(dp176
S'_guess'
p177
g1
(cpykov
Vector
p178
g3
(dp179
S'A'
F0.058637083993660855
sS'C'
F0.031695721077654518
sS'E'
F0.031695721077654518
sS'D'
F0.1584786053882726
sS'G'
F0.072900158478605384
sS'F'
F0.0079239302694136295
sS'I'
F0.090332805071315372
sS'H'
F0.014263074484944533
sS'a'
F0.057052297939778125
sS'c'
F0.025356576862123614
sS'e'
F0.0079239302694136295
sS'd'
F0.15213946117274166
sS'g'
F0.052297939778129951
sS'f'
F0.0031695721077654518
sS'i'
F0.04754358161648177
sS'h'
F0.019017432646592711
sS'0'
F0.015847860538827259
sS'r'
F0.02694136291600634
sS'u'
F0.022187004754358162
sS'4'
F0.0031695721077654518
sS'w'
F0.0063391442155309036
sS'v'
F0.020602218700475437
sS'y'
F0.0063391442155309036
sS'x'
F0.022187004754358162
sS'z'
F0.030110935023771792
sS't'
F0.015847860538827259
stRp180
sb.S'440xu0xu0z0zxDGDIAGEGDxDgdvvddIDDIDDIGdxuiGDgdGEiGDgdIDdzzGDgdIDdIGdGEgdDDddDDiDDddDDiuuiGDgdDDedGDgdDDiIrgdGDgdDDddDDddGDgdxugdGDgdIAiIAizzIAIIIIrIIIIrIIrIIIDvDDxvgdGDgdIAiGEiIDgduwddDDiIIDFiGDixuiIIIIDEddzzDDiIAddDDizriIADdGEgdGDGDGDgdGDgdDDddGDhGAdiuvddGEgdDDddIDdxvgdIGdDDddHDgdIAixuiIIIHGFgdxvgdGDiIHGEgdxvhIDdDEiDDddzyDDddGDhDDddIIzzGEhIDdDEddGDhdyvgeIGdGDgdDDddHDizyGDhDEhGDgduuddIGdGEgdEDddzzIAiGEhIAizyIHIIGDhzrgeDEdDDFEEHEHduvddGDgdDDDDzGDIIGDgdwuiIDhIDDzv0vwedEFdaaGAgaeDAadaADAdaaACAcaCAcaatvdifCAiaaCAcaaCHfaatrciFAcaACIchaaCAhadCAcddxrcaACAcaaCACACHdcgaatriaACAcaaCAcaCDacadxwcaaGAd0rraCACACAtrCAtrcatr0tr0trcaCA0tr0tr'
p1
.(lp1
(F11.704705000000001
F64964.280836999998
tp2
a.cnumpy.core.multiarray
scalar
p1
(cnumpy
dtype
p2
(S'f8'
I0
I1
tRp3
(I3
S'<'
NNNI-1
I-1
I0
tbS'\x06\xa2n\x8d\x8b\xdb\x85?'
tRp4
.F0
.