ccopy_reg
_reconstructor
p1
(cpykov
Vector
p2
c__builtin__
dict
p3
(dp4
S'A'
F0.045500505561172903
sS'E'
F0.0091001011122345803
sS'D'
F0.0060667340748230538
sS'G'
F0.026794742163801823
sS'F'
F0.022244691607684532
sS'H'
F0.0065722952477249739
sS'6'
F0.0045500505561172902
sS'9'
F0.011627906976744188
sS'8'
F0.013144590495449953
sS'a'
F0.069261880687563199
sS'e'
F0.027300303336703739
sS'd'
F0.026794742163801823
sS'g'
F0.40495449949443885
sS'f'
F0.086956521739130432
sS'i'
F0.029322548028311426
sS'h'
F0.03185035389282103
sS'7'
F0.038928210313447918
sS'1'
F0.0080889787664307385
sS'0'
F0.046511627906976744
sS'r'
F0.0050556117290192111
sS'u'
F0.0015166835187057635
sS'4'
F0.0035389282103134479
sS'w'
F0.0035389282103134483
sS'v'
F0.0025278058645096056
sS'y'
F0.012133468149646108
sS'x'
F0.046006066734074827
sS'z'
F0.010111223458038422
stRp5
.ccopy_reg
_reconstructor
p1
(cpykov
Chain
p2
c__builtin__
dict
p3
(dp4
(S'9'
S'i'
tp5
F0.17391304347826086
s(S'g'
S'a'
tp6
F0.033707865168539325
s(S'G'
S'G'
tp7
F0.33962264150943394
s(S'E'
S'0'
tp8
F0.11111111111111112
s(S'x'
S'f'
tp9
F0.021978021978021976
s(S'i'
S'h'
tp10
F0.034482758620689655
s(S'a'
S'0'
tp11
F0.058394160583941604
s(S'0'
S'x'
tp12
F0.61956521739130432
s(S'a'
S'H'
tp13
F0.021897810218978103
s(S'a'
S'x'
tp14
F0.029197080291970802
s(S'y'
S'x'
tp15
F0.125
s(S'h'
S'a'
tp16
F0.031746031746031751
s(S'G'
S'F'
tp17
F0.056603773584905655
s(S'g'
S'i'
tp18
F0.017478152309612981
s(S'D'
S'd'
tp19
F0.33333333333333331
s(S'9'
S'1'
tp20
F0.086956521739130432
s(S'x'
S'g'
tp21
F0.076923076923076913
s(S'7'
S'1'
tp22
F0.11688311688311691
s(S'9'
S'8'
tp23
F0.13043478260869565
s(S'0'
S'y'
tp24
F0.21739130434782608
s(S'1'
S'A'
tp25
F0.0625
s(S'h'
S'E'
tp26
F0.015873015873015876
s(S'h'
S'i'
tp27
F0.031746031746031751
s(S'F'
S'h'
tp28
F0.022727272727272728
s(S'G'
S'E'
tp29
F0.018867924528301886
s(S'r'
S'g'
tp30
F0.10000000000000001
s(S'E'
S'D'
tp31
F0.055555555555555559
s(S'x'
S'd'
tp32
F0.021978021978021976
s(S'7'
S'0'
tp33
F0.012987012987012991
s(S'7'
S'8'
tp34
F0.025974025974025983
s(S'H'
S'h'
tp35
F0.076923076923076941
s(S'A'
S'g'
tp36
F0.1111111111111111
s(S'x'
S'A'
tp37
F0.087912087912087905
s(S'F'
S'D'
tp38
F0.022727272727272728
s(S'h'
S'F'
tp39
F0.047619047619047623
s(S'g'
S'f'
tp40
F0.0099875156054931337
s(S'h'
S'g'
tp41
F0.26984126984126983
s(S'G'
S'D'
tp42
F0.018867924528301886
s(S'H'
S'f'
tp43
F0.076923076923076941
s(S'1'
S'0'
tp44
F0.3125
s(S'z'
S'u'
tp45
F0.050000000000000003
s(S'd'
S'd'
tp46
F0.52830188679245271
s(S'7'
S'7'
tp47
F0.25974025974025977
s(S'1'
S'H'
tp48
F0.1875
s(S'e'
S'e'
tp49
F0.75925925925925941
s(S'8'
S'g'
tp50
F0.03846153846153845
s(S'x'
S'F'
tp51
F0.032967032967032968
s(S'F'
S'E'
tp52
F0.022727272727272728
s(S'D'
S'g'
tp53
F0.083333333333333329
s(S'1'
S'z'
tp54
F0.0625
s(S'h'
S'd'
tp55
F0.015873015873015876
s(S'D'
S'H'
tp56
F0.16666666666666666
s(S'a'
S'a'
tp57
F0.67883211678832112
s(S'7'
S'6'
tp58
F0.090909090909090925
s(S'e'
S'd'
tp59
F0.074074074074074084
s(S'e'
S'0'
tp60
F0.055555555555555559
s(S'w'
S'0'
tp61
F0.8571428571428571
s(S'F'
S'F'
tp62
F0.45454545454545447
s(S'z'
S'e'
tp63
F0.050000000000000003
s(S'4'
S'1'
tp64
F0.14285714285714288
s(S'F'
S'0'
tp65
F0.022727272727272728
s(S'g'
S'd'
tp66
F0.011235955056179775
s(S'G'
S'e'
tp67
F0.018867924528301886
s(S'x'
S'D'
tp68
F0.010989010989010988
s(S'F'
S'G'
tp69
F0.045454545454545456
s(S'i'
S'A'
tp70
F0.017241379310344827
s(S'D'
S'A'
tp71
F0.083333333333333329
s(S'w'
S'G'
tp72
F0.14285714285714285
s(S'a'
S'D'
tp73
F0.0072992700729927005
s(S'A'
S'i'
tp74
F0.022222222222222223
s(S'7'
S'A'
tp75
F0.038961038961038974
s(S'7'
S'4'
tp76
F0.038961038961038974
s(S'H'
S'F'
tp77
F0.076923076923076941
s(S'e'
S'f'
tp78
F0.092592592592592601
s(S'g'
S'E'
tp79
F0.0074906367041198503
s(S'g'
S'F'
tp80
F0.017478152309612981
s(S'd'
S'D'
tp81
F0.018867924528301886
s(S'7'
S'x'
tp82
F0.012987012987012991
s(S'z'
S'g'
tp83
F0.20000000000000001
s(S'f'
S'f'
tp84
F0.78488372093023262
s(S'8'
S'f'
tp85
F0.03846153846153845
s(S'4'
S'0'
tp86
F0.28571428571428575
s(S'f'
S'a'
tp87
F0.017441860465116279
s(S'x'
S'i'
tp88
F0.010989010989010988
s(S'y'
S'a'
tp89
F0.041666666666666664
s(S'd'
S'i'
tp90
F0.018867924528301886
s(S'z'
S'z'
tp91
F0.10000000000000001
s(S'a'
S'A'
tp92
F0.029197080291970802
s(S'x'
S'0'
tp93
F0.054945054945054937
s(S'9'
S'f'
tp94
F0.043478260869565216
s(S'8'
S'y'
tp95
F0.03846153846153845
s(S'h'
S'h'
tp96
F0.53968253968253965
s(S'f'
S'0'
tp97
F0.081395348837209308
s(S'8'
S'7'
tp98
F0.3076923076923076
s(S'8'
S'h'
tp99
F0.0769230769230769
s(S'g'
S'D'
tp100
F0.0037453183520599251
s(S'y'
S'r'
tp101
F0.29166666666666663
s(S'd'
S'f'
tp102
F0.075471698113207544
s(S'e'
S'G'
tp103
F0.018518518518518521
s(S'1'
S'g'
tp104
F0.3125
s(S'z'
S'y'
tp105
F0.050000000000000003
s(S'F'
S'g'
tp106
F0.022727272727272728
s(S'i'
S'a'
tp107
F0.034482758620689655
s(S'z'
S'r'
tp108
F0.050000000000000003
s(S'A'
S'F'
tp109
F0.011111111111111112
s(S'G'
S'a'
tp110
F0.075471698113207544
s(S'9'
S'9'
tp111
F0.21739130434782605
s(S'a'
S'd'
tp112
F0.014598540145985401
s(S'9'
S'7'
tp113
F0.17391304347826086
s(S'8'
S'4'
tp114
F0.03846153846153845
s(S'8'
S'i'
tp115
F0.0769230769230769
s(S'7'
S'a'
tp116
F0.012987012987012991
s(S'f'
S'h'
tp117
F0.0058139534883720938
s(S'0'
S'z'
tp118
F0.13043478260869565
s(S'D'
S'D'
tp119
F0.25
s(S'a'
S'g'
tp120
F0.058394160583941604
s(S'E'
S'E'
tp121
F0.44444444444444448
s(S'E'
S'e'
tp122
F0.33333333333333337
s(S'7'
S'E'
tp123
F0.012987012987012991
s(S'0'
S'v'
tp124
F0.010869565217391306
s(S'z'
S'i'
tp125
F0.050000000000000003
s(S'G'
S'0'
tp126
F0.037735849056603772
s(S'8'
S'6'
tp127
F0.03846153846153845
s(S'f'
S'i'
tp128
F0.017441860465116279
s(S'x'
S'h'
tp129
F0.010989010989010988
s(S'g'
S'h'
tp130
F0.014981273408239701
s(S'A'
S'A'
tp131
F0.42222222222222222
s(S'F'
S'a'
tp132
F0.022727272727272728
s(S'G'
S'i'
tp133
F0.018867924528301886
s(S'g'
S'g'
tp134
F0.84144818976279656
s(S'd'
S'g'
tp135
F0.075471698113207544
s(S'a'
S'f'
tp136
F0.014598540145985401
s(S'x'
S'x'
tp137
F0.26373626373626374
s(S'A'
S'0'
tp138
F0.17777777777777778
s(S'9'
S'g'
tp139
F0.13043478260869565
s(S'G'
S'g'
tp140
F0.22641509433962262
s(S'7'
S'F'
tp141
F0.012987012987012991
s(S'7'
S'g'
tp142
F0.27272727272727282
s(S'4'
S'g'
tp143
F0.28571428571428575
s(S'y'
S'w'
tp144
F0.125
s(S'u'
S'0'
tp145
F0.66666666666666663
s(S'G'
S'h'
tp146
F0.018867924528301886
s(S'1'
S'd'
tp147
F0.0625
s(S'E'
S'G'
tp148
F0.055555555555555559
s(S'a'
S'G'
tp149
F0.087591240875912413
s(S'D'
S'0'
tp150
F0.083333333333333329
s(S'x'
S'r'
tp151
F0.12087912087912087
s(S'g'
S'A'
tp152
F0.033707865168539325
s(S'7'
S'f'
tp153
F0.012987012987012991
s(S'y'
S'v'
tp154
F0.083333333333333329
s(S'A'
S'H'
tp155
F0.033333333333333333
s(S'h'
S'f'
tp156
F0.015873015873015876
s(S'H'
S'g'
tp157
F0.15384615384615388
s(S'f'
S'g'
tp158
F0.023255813953488375
s(S'f'
S'H'
tp159
F0.011627906976744188
s(S'z'
S'v'
tp160
F0.10000000000000001
s(S'z'
S'x'
tp161
F0.30000000000000004
s(S'0'
S'G'
tp162
F0.021739130434782612
s(S'h'
S'e'
tp163
F0.015873015873015876
s(S'y'
S'0'
tp164
F0.041666666666666664
s(S'y'
S'g'
tp165
F0.041666666666666664
s(S'r'
S'0'
tp166
F0.80000000000000004
s(S'8'
S'8'
tp167
F0.11538461538461536
s(S'F'
S'f'
tp168
F0.36363636363636365
s(S'7'
S'e'
tp169
F0.025974025974025983
s(S'f'
S'd'
tp170
F0.017441860465116279
s(S'r'
S'a'
tp171
F0.10000000000000001
s(S'6'
S'G'
tp172
F0.11111111111111112
s(S'i'
S'd'
tp173
F0.017241379310344827
s(S'g'
S'0'
tp174
F0.0012484394506866417
s(S'7'
S'9'
tp175
F0.025974025974025983
s(S'g'
S'e'
tp176
F0.0037453183520599251
s(S'H'
S'A'
tp177
F0.53846153846153855
s(S'A'
S'a'
tp178
F0.16666666666666666
s(S'6'
S'0'
tp179
F0.88888888888888895
s(S'd'
S'G'
tp180
F0.094339622641509427
s(S'8'
S'9'
tp181
F0.03846153846153845
s(S'8'
S'r'
tp182
F0.03846153846153845
s(S'f'
S'e'
tp183
F0.017441860465116279
s(S'z'
S'f'
tp184
F0.050000000000000003
s(S'i'
S'i'
tp185
F0.46551724137931033
s(S'i'
S'g'
tp186
F0.41379310344827586
s(S'f'
S'G'
tp187
F0.017441860465116279
s(S'd'
S'h'
tp188
F0.037735849056603772
s(S'h'
S'A'
tp189
F0.015873015873015876
s(S'9'
S'6'
tp190
F0.043478260869565216
s(S'd'
S'0'
tp191
F0.056603773584905655
s(S'G'
S'A'
tp192
F0.16981132075471697
s(S'y'
S'u'
tp193
F0.083333333333333329
s(S'x'
S'z'
tp194
F0.032967032967032968
s(S'i'
S'f'
tp195
F0.017241379310344827
s(S'A'
S'h'
tp196
F0.022222222222222223
s(S'u'
S'A'
tp197
F0.33333333333333331
s(S'H'
S'G'
tp198
F0.076923076923076941
s(S'x'
S'v'
tp199
F0.032967032967032968
s(S'y'
S'h'
tp200
F0.041666666666666664
s(S'v'
S'u'
tp201
F0.20000000000000001
s(S'y'
S'e'
tp202
F0.041666666666666664
s(S'v'
S'0'
tp203
F0.60000000000000009
s(S'4'
S'7'
tp204
F0.28571428571428575
s(S'y'
S'z'
tp205
F0.083333333333333329
s(S'g'
S'G'
tp206
F0.0037453183520599251
s(S'7'
S'h'
tp207
F0.025974025974025983
s(S'v'
S'h'
tp208
F0.20000000000000001
s(S'A'
S'G'
tp209
F0.033333333333333333
s(S'x'
S'a'
tp210
F0.065934065934065936
s(S'f'
S'D'
tp211
F0.0058139534883720938
s(S'd'
S'a'
tp212
F0.094339622641509427
s(S'8'
S'1'
tp213
F0.1538461538461538
s(S'x'
S'u'
tp214
F0.032967032967032968
s(S'x'
S'w'
tp215
F0.087912087912087905
s(S'x'
S'y'
tp216
F0.032967032967032968
stRp217
(dp218
S'_guess'
p219
g1
(cpykov
Vector
p220
g3
(dp221
S'A'
F0.045500505561172903
sS'E'
F0.0091001011122345803
sS'D'
F0.0060667340748230538
sS'G'
F0.026794742163801823
sS'F'
F0.022244691607684532
sS'H'
F0.0065722952477249739
sS'6'
F0.0045500505561172902
sS'9'
F0.011627906976744188
sS'8'
F0.013144590495449953
sS'a'
F0.069261880687563199
sS'e'
F0.027300303336703739
sS'd'
F0.026794742163801823
sS'g'
F0.40495449949443885
sS'f'
F0.086956521739130432
sS'i'
F0.029322548028311426
sS'h'
F0.03185035389282103
sS'7'
F0.038928210313447918
sS'1'
F0.0080889787664307385
sS'0'
F0.046511627906976744
sS'r'
F0.0050556117290192111
sS'u'
F0.0015166835187057635
sS'4'
F0.0035389282103134479
sS'w'
F0.0035389282103134483
sS'v'
F0.0025278058645096056
sS'y'
F0.012133468149646108
sS'x'
F0.046006066734074827
sS'z'
F0.010111223458038422
stRp222
sb.S'91HAiaHAha#97AA0zxAA0zuA0zxAA0xr0xr#97gggggggggiggggggggggggggggggggggggaaaaaa#77ggDDddGGgFFGe0yv#97gggggAAaaaaa#88igighgggggggEDddddddddddffiiiiiiiiiiiiiiiiiiiifaaaaaaaaaaaaaaaaaaaHGiiggggggggggggFFffffffffffffffighiggggggggggggggghEEeeeeeeeeeeeeeeeeee#810yr#77AA0xxAAggAAggAAggAAggAA#88hhgeeeedgf#740xu#760xra#77giiAA#99igAAaa0yxhggAAaaa#77gggFFfff0xxFFDHgggggFFffffdhhhhhhhFFfffff0xxggFFff0xxgggggggggggFFfffffffffff0zyghhggggggggggggggggggggggggggggaaaaaaaaaaaaaaaaaaaaaaaaaaaaaaaa#78fHFgf0xwGFhf#99igAA#87ggggggggggggggggggggggggggggggggggaaaaaa#960yw0xxD0yr#88iiiihgghgggggiggggggggggdDDdddddddddggAA#840yv#760xr#710xr0xxgggggggggggggggggigggggggggA#81HAGAHf#77x0xx#89igiggigggaggaGGaxxa#99iihhhiggggaggGGaaaaaaaaaaAA#77EE0xw#71zzgiggggggaggaGGaxxa#81gaHAGAhhhhhhAAaaaagA#710xzggggggggggggggggggggggggggggggggggaaaaa#77ggffff#77ggAA#91gAAGAAia#81HAHAHA#87ggggggggggggggghggghggggggggA0xr#770x0x0x0x0G0G0x#77ggEEeeGGggDDddGGggFFfGGgggEEe#41daDAga#71gaGAga0xxAA0xxAA0xxAA0xxAA0xxAA0xxaa#77gAAa0xxgAAa#71gaGAga#87gggfffffge#77gAAaGGgAAaGGgAAaGGgAAa#79gggggdhhhhhhhFFfffffDHhhhhhgFFfffffhhhhgggFFfffffddf0yziggggggggggggggggggggggggFFfffffffffffffffffffffffff0xyhhhhhggggggggggggggggggggggggFFffffffffffffffffffffffffffff0zxiggggggagEEefffffe0zxgggiiggggggggggggggggggggggggFFffffffffeeeeeeeeeeeeeeeeeeeef0zzgiggggggggggggggggFFffffffffeffffffff#98r0yr0yr0yr0yr0yr#47edGF#77gg0xxgg#760xw#74gfgfge#87ef0zxfd#78hhggggaggghgggggggggggggggggggAFa#71gaGAga#77ggggggggFFfffffGGhFFfGGEEGGgEEe#79faa0yxaAA0xxddaAA0xvhadaA0xyed0xzef0xzgadaf0xyafa0yzff#760xw0xw0xw0xv#710xr0xr#77FF0xxFF#760xw0yw#98y0y#98gghggggggggggggggggggggggggggggaaaaa#77ggggggggggggggggggggggggghggA#76GFGAaGD#99ggggAAaaa#87hggggggggggggggggggggggggggggggggaaaa#74gEEe0xxFE0zv0xw#77hheedfgf#77gggggggggggggggggggggggggggggggggggggggggggggggggGGgggggggggggggggggggggggggggggggggggggghgggggggdagiggggggddggGGggggggggggggggggggggggggggggggggggggggDgggdddGGggggggggggggggggggggggggggdgggdddGGggggggggggggggggggggggiggggddd#760xv0xr#99giigigggfHgaGGaxxaxxa0vu#87agaGAga#97ghdiggAA#71A0xu#77gAAa#710xr#87A0xrgaGAga0zr#77ffid0xu#860zv0yu0yw0yu0x#47ggAAa0xxgAAa#87gdf0yxd0zxf0xx'
p1
.(lp1
(F63.219901
F321.099109
tp2
a(F2.256891
F61.965038
tp3
a(F15.014576
F0.000292
tp4
a(F0.001397
F0.00045100000000000001
tp5
a(F3.5686659999999999
F0.002147
tp6
a(F1.6655340000000001
F0.24430199999999999
tp7
a(F10.882657999999999
F1108689.455724
tp8
a(F2.1686329999999998
F61.912609000000003
tp9
a(F0.00022900000000000001
F0.00023699999999999999
tp10
a(F11.503042000000001
F63331.184119999998
tp11
a(F13.505444000000001
F520171.909881
tp12
a(F0.00033799999999999998
F5.2192150000000002
tp13
a(F0.46398099999999998
F0.00040200000000000001
tp14
a(F0.00045100000000000001
F0.000464
tp15
a(F12.917945
F46.985881999999997
tp16
a(F0.00040900000000000002
F5.0120680000000002
tp17
a(F5.4299910000000002
F0.010739
tp18
a(F62.686681
F94658.242163000003
tp19
a(F0.0012080000000000001
F10.217638000000001
tp20
a(F10.823342
F94708.354126000006
tp21
a(F60.019013000000001
F117268.339034
tp22
a(F60.306234000000003
F521940.57416600001
tp23
a(F62.946891999999998
F6.7064640000000004
tp24
a(F14496.107948000001
F1.329949
tp25
a(F5.6260430000000001
F7.943041
tp26
a(F0.0012459999999999999
F1.6485430000000001
tp27
a(F0.018256999999999999
F59.987447000000003
tp28
a(F60.365519999999997
F1290.1405669999999
tp29
a(F62.849843
F33.276553
tp30
a(F60.665748000000001
F585275.84168900002
tp31
a(F0.00023800000000000001
F0.000214
tp32
a(F0.00024600000000000002
F34.170926000000001
tp33
a(F65.981643000000005
F76.043235999999993
tp34
a(F60.965086999999997
F9.1474659999999997
tp35
a(F16.366001000000001
F11.708897
tp36
a(F92787.675868999999
F129737.34654
tp37
a(F0.00022499999999999999
F0.00022800000000000001
tp38
a(F61.637718999999997
F78.943659999999994
tp39
a(F61.830925000000001
F76.456367
tp40
a(F0.71565999999999996
F0.18913199999999999
tp41
a(F60.703249999999997
F84.432030999999995
tp42
a(F0.00025000000000000001
F0.000272
tp43
a(F2.0441690000000001
F1.8365229999999999
tp44
a(F15.703878
F0.74626300000000001
tp45
a(F92787.615378999995
F205.65670900000001
tp46
a(F0.33123399999999997
F30.371119
tp47
a(F0.058611000000000003
F0.122046
tp48
a(F60.010027999999998
F187597.925689
tp49
a(F48.156236999999997
F21.558693000000002
tp50
a(F1.0213479999999999
F19.367289
tp51
a(F0.67369000000000001
F0.33434399999999997
tp52
a(F61.637796000000002
F78.961962999999997
tp53
a(F0.00023900000000000001
F0.00020699999999999999
tp54
a(F0.56881800000000005
F29.787081000000001
tp55
a(F9.9663529999999998
F94710.967067000005
tp56
a(F65.029229999999998
F521932.05957799999
tp57
a(F0.34264499999999998
F58.965125
tp58
a(F46.134537000000002
F188461.500616
tp59
a(F36011.664578000004
F1800.7112320000001
tp60
a(F2.2196920000000002
F0.00025900000000000001
tp61
a(F9.6546839999999996
F8.2056179999999994
tp62
a(F5.9188960000000002
F135.69984500000001
tp63
a(F5.0848870000000002
F2.1023550000000002
tp64
a(F0.001108
F0.00027900000000000001
tp65
a(F0.236122
F0.019533999999999999
tp66
a(F0.000252
F0.00022900000000000001
tp67
a(F0.37587900000000002
F0.028157000000000001
tp68
a(F46.037469000000002
F187613.49842600001
tp69
a(F5.0644869999999997
F11.714753999999999
tp70
a(F32.308318
F63.600244000000004
tp71
a(F0.00054600000000000004
F13.703747999999999
tp72
a(F60.126792999999999
F5.9517189999999998
tp73
a(F0.00064199999999999999
F0.00030699999999999998
tp74
a(F61.537089000000002
F65089.956265000001
tp75
a(F9.4984950000000001
F60.747925000000002
tp76
a(F0.199184
F10.054302
tp77
a(F10.822746
F94709.671079000007
tp78
a(F0.047801000000000003
F0.24001700000000001
tp79
a(F1.3314619999999999
F0.49750100000000003
tp80
a.cnumpy.core.multiarray
scalar
p1
(cnumpy
dtype
p2
(S'f8'
I0
I1
tRp3
(I3
S'<'
NNNI-1
I-1
I0
tbS'v/\x8c\x81\xa7T\x84?'
tRp4
.F4.1777942115813301e-98
.