ccopy_reg
_reconstructor
p1
(cpykov
Vector
p2
c__builtin__
dict
p3
(dp4
S'A'
F0.08974358974358973
sS'C'
F0.089743589743589744
sS'D'
F0.01282051282051282
sS'G'
F0.14102564102564102
sS'I'
F0.064102564102564097
sS'H'
F0.038461538461538464
sS'a'
F0.05128205128205128
sS'c'
F0.064102564102564097
sS'g'
F0.15384615384615385
sS'1'
F0.01282051282051282
sS'0'
F0.076923076923076927
sS'3'
F0.01282051282051282
sS'r'
F0.05128205128205128
sS'u'
F0.01282051282051282
sS't'
F0.038461538461538464
sS'y'
F0.01282051282051282
sS'x'
F0.064102564102564097
sS'z'
F0.01282051282051282
stRp5
.ccopy_reg
_reconstructor
p1
(cpykov
Chain
p2
c__builtin__
dict
p3
(dp4
(S'G'
S'H'
tp5
F0.090909090909090912
s(S'G'
S'G'
tp6
F0.54545454545454553
s(S'H'
S'I'
tp7
F0.66666666666666663
s(S'r'
S'0'
tp8
F0.5
s(S'x'
S'G'
tp9
F0.20000000000000001
s(S'x'
S'x'
tp10
F0.20000000000000001
s(S'D'
S'x'
tp11
F1
s(S'0'
S'x'
tp12
F0.33333333333333331
s(S'x'
S'H'
tp13
F0.20000000000000001
s(S'y'
S'x'
tp14
F1
s(S'3'
S'1'
tp15
F1
s(S'x'
S'g'
tp16
F0.20000000000000001
s(S'z'
S'G'
tp17
F1
s(S'a'
S'C'
tp18
F0.75000000000000011
s(S'a'
S'0'
tp19
F0.25
s(S'c'
S'a'
tp20
F0.80000000000000004
s(S'0'
S'y'
tp21
F0.16666666666666666
s(S'x'
S'u'
tp22
F0.20000000000000001
s(S'I'
S'0'
tp23
F0.20000000000000001
s(S'I'
S'G'
tp24
F0.80000000000000004
s(S'G'
S'0'
tp25
F0.090909090909090912
s(S't'
S'r'
tp26
F1
s(S'g'
S'g'
tp27
F0.91666666666666663
s(S'1'
S'c'
tp28
F1
s(S'A'
S'0'
tp29
F0.14285714285714288
s(S'g'
S'c'
tp30
F0.083333333333333329
s(S'A'
S'c'
tp31
F0.42857142857142866
s(S'A'
S'z'
tp32
F0.14285714285714288
s(S'c'
S'r'
tp33
F0.20000000000000001
s(S'G'
S'I'
tp34
F0.27272727272727276
s(S'H'
S'H'
tp35
F0.33333333333333331
s(S'0'
S't'
tp36
F0.5
s(S'r'
S'C'
tp37
F0.5
s(S'u'
S'D'
tp38
F1
s(S'A'
S'C'
tp39
F0.28571428571428575
s(S'C'
S'A'
tp40
F1
stRp41
(dp42
S'_guess'
p43
g1
(cpykov
Vector
p44
g3
(dp45
S'A'
F0.08974358974358973
sS'C'
F0.089743589743589744
sS'D'
F0.01282051282051282
sS'G'
F0.14102564102564102
sS'I'
F0.064102564102564097
sS'H'
F0.038461538461538464
sS'a'
F0.05128205128205128
sS'c'
F0.064102564102564097
sS'g'
F0.15384615384615385
sS'1'
F0.01282051282051282
sS'0'
F0.076923076923076927
sS'3'
F0.01282051282051282
sS'r'
F0.05128205128205128
sS'u'
F0.01282051282051282
sS't'
F0.038461538461538464
sS'y'
F0.01282051282051282
sS'x'
F0.064102564102564097
sS'z'
F0.01282051282051282
stRp46
sb.S'31caCAcaCAcaCAca0trCAzGIGGGIGIG0xxggggggggggggcr0tr0trCACACA0yxHHIGHI0xuDxGGGGG'
p1
.(lp1
(F8.9927729999999997
F36.482695999999997
tp2
a.cnumpy.core.multiarray
scalar
p1
(cnumpy
dtype
p2
(S'f8'
I0
I1
tRp3
(I3
S'<'
NNNI-1
I-1
I0
tbS'\xd5P\xaa~E=\x89?'
tRp4
.F8.9945605844593205e-23
.