ccopy_reg
_reconstructor
p1
(cpykov
Vector
p2
c__builtin__
dict
p3
(dp4
S'a'
F0.06120612061206121
sS'A'
F0.14581458145814583
sS'C'
F0.15211521152115212
sS'g'
F0.027902790279027902
sS'i'
F0.0027002700270027003
sS'h'
F0.0072007200720072004
sS'c'
F0.069306930693069313
sS'1'
F0.031503150315031501
sS'0'
F0.090009000900090008
sS'3'
F0.031503150315031501
sS'r'
F0.17911791179117911
sS't'
F0.19261926192619261
sS'y'
F0.0027002700270027003
sS'x'
F0.0054005400540054005
sS'z'
F0.00090009000900090005
stRp5
.ccopy_reg
_reconstructor
p1
(cpykov
Chain
p2
c__builtin__
dict
p3
(dp4
(S'a'
S'a'
tp5
F0.014705882352941175
s(S'A'
S't'
tp6
F0.4814814814814814
s(S'z'
S'y'
tp7
F1
s(S'r'
S'0'
tp8
F0.31658291457286436
s(S'x'
S'x'
tp9
F0.5
s(S'1'
S'C'
tp10
F0.25714285714285717
s(S'i'
S'h'
tp11
F0.33333333333333331
s(S'y'
S'y'
tp12
F0.33333333333333331
s(S'1'
S't'
tp13
F0.11428571428571428
s(S'0'
S'x'
tp14
F0.040000000000000001
s(S'a'
S'C'
tp15
F0.66176470588235281
s(S'A'
S'a'
tp16
F0.0061728395061728392
s(S'3'
S'1'
tp17
F1
s(S'x'
S'g'
tp18
F0.5
s(S'a'
S'0'
tp19
F0.044117647058823525
s(S'c'
S'a'
tp20
F0.93506493506493504
s(S'0'
S'y'
tp21
F0.01
s(S'a'
S'c'
tp22
F0.029411764705882349
s(S'r'
S't'
tp23
F0.10552763819095477
s(S'1'
S'0'
tp24
F0.57142857142857151
s(S'y'
S'i'
tp25
F0.33333333333333331
s(S'g'
S'g'
tp26
F0.90322580645161288
s(S'1'
S'c'
tp27
F0.028571428571428571
s(S'A'
S'0'
tp28
F0.086419753086419748
s(S'r'
S'c'
tp29
F0.12562814070351758
s(S'1'
S'a'
tp30
F0.028571428571428571
s(S'c'
S'r'
tp31
F0.064935064935064929
s(S'0'
S'z'
tp32
F0.01
s(S'A'
S'c'
tp33
F0.27160493827160492
s(S'y'
S'h'
tp34
F0.33333333333333331
s(S'a'
S't'
tp35
F0.24999999999999997
s(S'h'
S'c'
tp36
F0.25
s(S'h'
S'h'
tp37
F0.75
s(S'0'
S't'
tp38
F0.93999999999999995
s(S'r'
S'C'
tp39
F0.45226130653266328
s(S'i'
S'i'
tp40
F0.66666666666666663
s(S'g'
S'c'
tp41
F0.096774193548387094
s(S't'
S'r'
tp42
F1
s(S'A'
S'C'
tp43
F0.15432098765432098
s(S'C'
S'A'
tp44
F1
stRp45
(dp46
S'_guess'
p47
g1
(cpykov
Vector
p48
g3
(dp49
S'a'
F0.06120612061206121
sS'A'
F0.14581458145814583
sS'C'
F0.15211521152115212
sS'g'
F0.027902790279027902
sS'i'
F0.0027002700270027003
sS'h'
F0.0072007200720072004
sS'c'
F0.069306930693069313
sS'1'
F0.031503150315031501
sS'0'
F0.090009000900090008
sS'3'
F0.031503150315031501
sS'r'
F0.17911791179117911
sS't'
F0.19261926192619261
sS'y'
F0.0027002700270027003
sS'x'
F0.0054005400540054005
sS'z'
F0.00090009000900090005
stRp50
sb.S'310tr#310trtr#310tr0trCAtrCAtr0tr0tr0tr0tr#31CAtr0tr0tr0xxggggggcrCAtr0trCACAca0zyiiihcr0trtrCACA0yyhhhhhhhcr0trtrCAtr0xxgggggggggggcrCA0xxggggggggggggggcrCAtrCAtrCACAca0trCAtrCAtrCAtrCAtrCAtrCAtrCAtrCA#310tr0tr0trtr0tr0tr0tr0tr#310trtrtr0tr0trCACAtr0trCACA0trtr0trCAtrCAtrCAtrCA#31CAtrcatrcaCAcatrcaCAcaCACACACAtrcaCAcaCAcaCAcatrcaCAcaCAcaCAcatrcaCAcaCAcaCAcatrcaCAcaCAcaCAcatrcaCAcaCAcaCAcatrcaCAcaCAcaCAcatrcaCAcaCAcaCAcaCAcaCACACAcaCAcatrcaCAcaCAcaCAcatrcaCAcaCAcaCAcatrcaCAcaCAcaCAcatrcaCACAtrCACACAtrcaCAcaCAcatrcatrcaCAcaCAcaCAca#31trCACACA0trCA0trCAtrCAtrCAtrCA#310tr0tr0tr0trtr0trtr#31trtr0tr#310tr0trCAtrCAtr0tr0tr0tr0tr#31acaacaCAa0x#31CACACA0trcaCAca#31trtr#310tr#31CAtrCAtrCAtrCAtrCAtrCAtrCAtrca#31CAtrCAtrCAtrCAtrCAtrCAtrCAtrCA0trCAtrCACACACAca#310tr0tr0trCA0trca#310tr0tr#31CAtrCAtrCAtrCA#310tr0tr#31CAtrCA0tr0trCA#31CAtrCAtrCAtrCA0tr0tr0trCAtrCA#310tr#310tr0tr0tr#310tr0trCAtrCA#310tr0trtr0tr0trtr0tr0tr0tr0tr#31tr0tr#310trtrtrtrtrtrtrtr0tr0tr#310trtr0tr0tr#310tr0tr0tr#31catrcaCACAtrCAtrCAtrCAtrCAtrCAtrCAtrCAtrCAtrCA0tr0tr0trCAtrCAtrCAtrCAtrCAtrcatrcatrCAtrCACACAtrCAtrCA0tr0trCA0tr0trCA0tr0tr#31CAtrCAtrCAtrca#310tr#310trCACACAtrCAtrCAtrCAtrCAtrCAtr0trCAtr0trc'
.(lp1
(F8.9990000000000006
F68271.031333999999
tp2
a(F9.0019469999999995
F421399.89440300001
tp3
a(F9.0025309999999994
F326202.97659400001
tp4
a(F9.0128520000000005
F71.842872
tp5
a(F8.9973880000000008
F10954.737588
tp6
a(F9.0031920000000003
F3672.4484579999998
tp7
a(F9.0002700000000004
F44.361694
tp8
a(F8.9985850000000003
F1878.688817
tp9
a(F8.9964560000000002
F114666.612364
tp10
a(F9.0037640000000003
F1864.6394130000001
tp11
a(F9.0041689999999992
F326203.21794300003
tp12
a(F9.0021690000000003
F22.081607000000002
tp13
a(F9.0047379999999997
F73.555796999999998
tp14
a(F8.9988989999999998
F1813.9231380000001
tp15
a(F9.0006160000000008
F469166.86503300001
tp16
a(F8.9999439999999993
F146.99184099999999
tp17
a(F9.0002549999999992
F147.351675
tp18
a(F9.0018449999999994
F72421.107673000006
tp19
a(F9.0014889999999994
F388471.51625300001
tp20
a(F8.9994879999999995
F147.71334400000001
tp21
a(F8.9998310000000004
F4409.854969
tp22
a(F9.0018600000000006
F49.421107999999997
tp23
a(F8.9991710000000005
F116.718374
tp24
a(F9.0023479999999996
F183532.49746899999
tp25
a(F8.9973369999999999
F9124.1453330000004
tp26
a(F9.0006459999999997
F167861.15734400001
tp27
a(F9.0067369999999993
F1237131.9374760001
tp28
a(F8.9898550000000004
F2772.9100579999999
tp29
a(F9.0038020000000003
F104174.05173599999
tp30
a(F9.0060520000000004
F3656.0489600000001
tp31
a(F9.0174710000000005
F64967.164290000001
tp32
a(F9.0046769999999992
F39.873429000000002
tp33
a(F9.0000870000000006
F200.00665900000001
tp34
a(F8.8818400000000004
F3656.6778709999999
tp35
a(F9.0071440000000003
F28896.514483999999
tp36
a.cnumpy.core.multiarray
scalar
p1
(cnumpy
dtype
p2
(S'f8'
I0
I1
tRp3
(I3
S'<'
NNNI-1
I-1
I0
tbS'\x84\x10B\x08!\x84\x90?'
tRp4
.F5.2961326969570249e-65
.