ccopy_reg
_reconstructor
p1
(cpykov
Vector
p2
c__builtin__
dict
p3
(dp4
S'9'
F0.0010718113612004287
sS'g'
F0.44051446945337619
sS'G'
F0.007502679528403001
sS'F'
F0.0010718113612004287
sS'I'
F0.0032154340836012861
sS'h'
F0.247588424437299
sS'f'
F0.0010718113612004287
sS'0'
F0.007502679528403001
sS'z'
F0.0096463022508038593
sS'7'
F0.0010718113612004287
sS'H'
F0.0032154340836012861
sS'y'
F0.0042872454448017148
sS'x'
F0.021436227224008574
sS'w'
F0.0042872454448017148
sS'i'
F0.2465166130760986
stRp5
.ccopy_reg
_reconstructor
p1
(cpykov
Chain
p2
c__builtin__
dict
p3
(dp4
(S'G'
S'G'
tp5
F0.5714285714285714
s(S'y'
S'g'
tp6
F0.25
s(S'h'
S'i'
tp7
F0.25541125541125548
s(S'x'
S'G'
tp8
F0.10000000000000001
s(S'F'
S'F'
tp9
F1
s(S'h'
S'h'
tp10
F0.32900432900432902
s(S'i'
S'h'
tp11
F0.26521739130434785
s(S'z'
S'I'
tp12
F0.1111111111111111
s(S'G'
S'x'
tp13
F0.14285714285714285
s(S'i'
S'I'
tp14
F0.0086956521739130436
s(S'0'
S'x'
tp15
F0.42857142857142855
s(S'9'
S'7'
tp16
F1
s(S'i'
S'0'
tp17
F0.013043478260869566
s(S'h'
S'x'
tp18
F0.0043290043290043299
s(S'7'
S'x'
tp19
F1
s(S'g'
S'i'
tp20
F0.058394160583941604
s(S'H'
S'i'
tp21
F0.33333333333333331
s(S'x'
S'g'
tp22
F0.34999999999999998
s(S'y'
S'x'
tp23
F0.5
s(S'i'
S'i'
tp24
F0.61304347826086958
s(S'z'
S'i'
tp25
F0.33333333333333331
s(S'i'
S'g'
tp26
F0.086956521739130432
s(S'G'
S'0'
tp27
F0.14285714285714285
s(S'g'
S'h'
tp28
F0.22384428223844283
s(S'g'
S'g'
tp29
F0.70316301703163009
s(S'x'
S'x'
tp30
F0.34999999999999998
s(S'z'
S'0'
tp31
F0.1111111111111111
s(S'0'
S'w'
tp32
F0.14285714285714285
s(S'h'
S'H'
tp33
F0.0043290043290043299
s(S'i'
S'G'
tp34
F0.0043478260869565218
s(S'0'
S'z'
tp35
F0.42857142857142855
s(S'h'
S'g'
tp36
F0.40259740259740268
s(S'h'
S'y'
tp37
F0.0043290043290043299
s(S'z'
S'z'
tp38
F0.44444444444444442
s(S'y'
S'h'
tp39
F0.25
s(S'I'
S'H'
tp40
F0.33333333333333331
s(S'G'
S'h'
tp41
F0.14285714285714285
s(S'g'
S'f'
tp42
F0.0024330900243309003
s(S'x'
S'0'
tp43
F0.050000000000000003
s(S'w'
S'w'
tp44
F0.75
s(S'H'
S'H'
tp45
F0.33333333333333331
s(S'g'
S'x'
tp46
F0.012165450121654502
s(S'I'
S'i'
tp47
F0.66666666666666663
s(S'f'
S'0'
tp48
F1
s(S'w'
S'F'
tp49
F0.25
s(S'i'
S'z'
tp50
F0.0086956521739130436
s(S'H'
S'g'
tp51
F0.33333333333333331
s(S'x'
S'y'
tp52
F0.14999999999999999
stRp53
(dp54
S'_guess'
p55
g1
(cpykov
Vector
p56
g3
(dp57
S'9'
F0.0010718113612004287
sS'g'
F0.44051446945337619
sS'G'
F0.007502679528403001
sS'F'
F0.0010718113612004287
sS'I'
F0.0032154340836012861
sS'h'
F0.247588424437299
sS'f'
F0.0010718113612004287
sS'0'
F0.007502679528403001
sS'z'
F0.0096463022508038593
sS'7'
F0.0010718113612004287
sS'H'
F0.0032154340836012861
sS'y'
F0.0042872454448017148
sS'x'
F0.021436227224008574
sS'w'
F0.0042872454448017148
sS'i'
F0.2465166130760986
stRp58
sb.S'97xghggggghhhiihiihihgiiiiiihiiiihghgghghggi0xx0zziiiiiiiiiiihiihihhhiiigxGxGGGG0xxghggggghggghhgghhigihihhihhighhgggggggghghggggggghgggghghiihiihiihhghhiiihihhgihHHggiGGhhghggghgigggggghgghghhhhgggggghhghggggghgggghhgggggihghhghggghggghgghggghhggghggggggggggghgghggggghggiggghghgghhhhhhiiiiihihiihgiiihihiiiiihhgggggghgghhhghhhgghhihgihiiiihiiiiiiIiiiighiihhiiiiiiihiigihihhhhhiihhhhiiighghghhhiz0zzIHihhhihgggigihghggghihhhhiiiiiiiiiiiiiiihgigggghhhgghgggggggggggggghihhihhiiiiiiiiiiihhhhiiiiihgxygxxghggggghgggggggghggxyxyhgghyxgiggghggghghgggggghxxgggxxggggggggggggggggggggghghgghggggggggggghghgggggggggggghhhgggggghhhhghhihghihhhhiihiiiiizziIiiiiiiihiiihiiihhhhhhiiiiiihihhiiiiiiiihiiiihiiiiiiiiiggghghgggggggiihihhiihiigigii0zziihigggghhhghhghghiiihhiggghghhhiihigihihggigggiiii0xxxggighgggggggggggggggghhghghggghghgghgggggggggggggghgggggggggghgggggggggggggghghggggghgggggggggggiiiihggggggghggggghgihgghigggggggghgggggggf0wwwwFF'
p1
.(lp1
(F810820.04824999999
F1800.4255479999999
tp2
a.cnumpy.core.multiarray
scalar
p1
(cnumpy
dtype
p2
(S'f8'
I0
I1
tRp3
(I3
S'<'
NNNI-1
I-1
I0
tbS'n{!\xc7e\xbe\x81?'
tRp4
.F0
.