ccopy_reg
_reconstructor
p1
(cpykov
Vector
p2
c__builtin__
dict
p3
(dp4
S'E'
F0.028207847295864261
sS'd'
F0.23784022622834927
sS'f'
F0.36468716861081651
sS'F'
F0.029144574054436198
sS'1'
F1.7674089784376105e-05
sS'0'
F0.00030045952633439381
sS'r'
F3.534817956875221e-05
sS'u'
F0.045334040296924713
sS'4'
F5.3022269353128311e-05
sS'w'
F0.077677624602332976
sS'v'
F0.014369034994697773
sS'e'
F0.16905266878755745
sS'D'
F0.03328031106398021
stRp5
.ccopy_reg
_reconstructor
p1
(cpykov
Chain
p2
c__builtin__
dict
p3
(dp4
(S'F'
S'u'
tp5
F0.0042449969678593083
s(S'v'
S'D'
tp6
F0.0073800738007380072
s(S'w'
S'v'
tp7
F0.01137656427758817
s(S'4'
S'4'
tp8
F0.33333333333333337
s(S'u'
S'u'
tp9
F0.31734892787524366
s(S'E'
S'F'
tp10
F0.038220551378446113
s(S'w'
S'D'
tp11
F0.00091012514220705355
s(S'f'
S'E'
tp12
F0.013133662886498015
s(S'E'
S'v'
tp13
F0.012531328320802006
s(S'f'
S'w'
tp14
F0.078462731414170789
s(S'F'
S'v'
tp15
F0.0042449969678593083
s(S'v'
S'E'
tp16
F0.038130381303813042
s(S'w'
S'u'
tp17
F0.057565415244596137
s(S'e'
S'F'
tp18
F0.024255096706743331
s(S'D'
S'D'
tp19
F0.32182687201274557
s(S'E'
S'E'
tp20
F0.33145363408521306
s(S'f'
S'F'
tp21
F0.01308519918580983
s(S'u'
S'F'
tp22
F0.010136452241715398
s(S'w'
S'f'
tp23
F0.4825938566552902
s(S'0'
S'v'
tp24
F0.1176470588235294
s(S'F'
S'w'
tp25
F0.0036385688295936928
s(S'u'
S'e'
tp26
F0.048732943469785572
s(S'v'
S'F'
tp27
F0.0073800738007380072
s(S'D'
S'E'
tp28
F0.10355815188528941
s(S'd'
S'F'
tp29
F0.019023556513338782
s(S'u'
S'w'
tp30
F0.19064327485380117
s(S'E'
S'D'
tp31
F0.11215538847117795
s(S'D'
S'f'
tp32
F0.10727562400424852
s(S'u'
S'v'
tp33
F0.079532163742690051
s(S'v'
S'u'
tp34
F0.084870848708487087
s(S'd'
S'f'
tp35
F0.18964107899234595
s(S'F'
S'D'
tp36
F0.061249241964827159
s(S'0'
S'w'
tp37
F0.1764705882352941
s(S'u'
S'd'
tp38
F0.13957115009746587
s(S'd'
S'v'
tp39
F0.0039384706844021698
s(S'u'
S'0'
tp40
F0.0046783625730994144
s(S'4'
S'u'
tp41
F0.33333333333333337
s(S'v'
S'd'
tp42
F0.072570725707257075
s(S'd'
S'd'
tp43
F0.55354090807758038
s(S'e'
S'e'
tp44
F0.57198118139048615
s(S'e'
S'0'
tp45
F0.00010454783063251436
s(S'v'
S'v'
tp46
F0.31119311193111932
s(S'w'
S'd'
tp47
F0.026621160409556314
s(S'F'
S'E'
tp48
F0.035172832019405693
s(S'd'
S'w'
tp49
F0.025711525600059446
s(S'4'
S'0'
tp50
F0.33333333333333337
s(S'D'
S'v'
tp51
F0.0042485395645246943
s(S'v'
S'e'
tp52
F0.3345633456334563
s(S'd'
S'e'
tp53
F0.13160436947313664
s(S'D'
S'd'
tp54
F0.21879978757302174
s(S'e'
S'd'
tp55
F0.20407736539466803
s(S'v'
S'w'
tp56
F0.044280442804428048
s(S'E'
S'e'
tp57
F0.34273182957393483
s(S'F'
S'F'
tp58
F0.3862947240751971
s(S'0'
S'u'
tp59
F0.64705882352941169
s(S'r'
S'D'
tp60
F0.5
s(S'w'
S'r'
tp61
F0.00022753128555176339
s(S'u'
S'f'
tp62
F0.18830409356725145
s(S'f'
S'd'
tp63
F0.13996316758747698
s(S'D'
S'w'
tp64
F0.0010621348911311736
s(S'e'
S'u'
tp65
F0.022791427077888133
s(S'v'
S'f'
tp66
F0.098400984009840098
s(S'D'
S'e'
tp67
F0.13967073818374931
s(S'E'
S'd'
tp68
F0.11215538847117795
s(S'w'
S'e'
tp69
F0.0097838452787258248
s(S'f'
S'e'
tp70
F0.047833672579238151
s(S'd'
S'u'
tp71
F0.032325183919149882
s(S'F'
S'd'
tp72
F0.026076409945421465
s(S'E'
S'u'
tp73
F0.0050125313283208026
s(S'e'
S'f'
tp74
F0.098797699947726081
s(S'0'
S'r'
tp75
F0.058823529411764698
s(S'd'
S'D'
tp76
F0.03076465779891506
s(S'd'
S'0'
tp77
F7.4310767630229616e-05
s(S'e'
S'E'
tp78
F0.031468897020386827
s(S'f'
S'f'
tp79
F0.65314529417466316
s(S'w'
S'w'
tp80
F0.40796359499431173
s(S'F'
S'e'
tp81
F0.052759248029108551
s(S'D'
S'u'
tp82
F0.02283590015932023
s(S'1'
S'4'
tp83
F1
s(S'e'
S'w'
tp84
F0.010350235232618922
s(S'u'
S'E'
tp85
F0.010526315789473684
s(S'r'
S'u'
tp86
F0.5
s(S'f'
S'u'
tp87
F0.034215372685858295
s(S'd'
S'E'
tp88
F0.013375938173441329
s(S'v'
S'0'
tp89
F0.0012300123001230013
s(S'e'
S'D'
tp90
F0.02415054887611082
s(S'E'
S'f'
tp91
F0.044486215538847115
s(S'D'
S'F'
tp92
F0.080722251725969182
s(S'F'
S'f'
tp93
F0.4263189812007277
s(S'w'
S'E'
tp94
F0.00091012514220705355
s(S'e'
S'v'
tp95
F0.012023000522739153
s(S'f'
S'D'
tp96
F0.015217602016089949
s(S'E'
S'w'
tp97
F0.0012531328320802006
s(S'f'
S'0'
tp98
F4.8463700688184557e-05
s(S'u'
S'D'
tp99
F0.010526315789473684
s(S'w'
S'F'
tp100
F0.0020477815699658703
s(S'f'
S'v'
tp101
F0.0048948337695066393
stRp102
(dp103
S'_guess'
p104
g1
(cpykov
Vector
p105
g3
(dp106
S'E'
F0.028207847295864261
sS'd'
F0.23784022622834927
sS'f'
F0.36468716861081651
sS'F'
F0.029144574054436198
sS'1'
F1.7674089784376105e-05
sS'0'
F0.00030045952633439381
sS'r'
F3.534817956875221e-05
sS'u'
F0.045334040296924713
sS'4'
F5.3022269353128311e-05
sS'w'
F0.077677624602332976
sS'v'
F0.014369034994697773
sS'e'
F0.16905266878755745
sS'D'
F0.03328031106398021
stRp107
sb.S'14ud0uu0wwfFFFFFFFFFFffFFFFFFFFFFFffffffffffffFFffFFffFFffFFfffffffffffffffFFffFFffFFffFFfffffffffffffffFFffFFffFFffFFfffffffffffffffFFffFFffFFffFFfffffffffffffffuu0ru0uu0uu0uu0uuuuuuu0uuDuu0uuu0uuu0uuu0uu0uveeddddddddddddddddddddddddddddddddddddddEDedeeeeedeuuvveeeeFEeeeeeeedeewwduvEefeeFEeeeeeeeeeeuuedffFDeedeeeeedeuvffeeDDddEEeedddeeeeeuudvveeedEEdeeedeedddDDduudwvffeeEEedeeedeedeDDduuudvveeeeDDDdedeeeeddeuuduudwvedeeEFeeeeeeeedduuduuduvdeddEEdededeeeddvuduudvvfeddEDdfeeeedfdeuuuuvEeeedEDdddeeedededduuuuvdddddEDddeddeeddduuuuuuuddedDEEddeddddedeuuuuuvvdddeDDEddddddddddDuuuuduuuuedddEDdddddddddduDuuuuDDddddDDdddddeeddduuuuuEddddDDEDeddddddddduuuvueeddDdEedeeedeeeeDDwwfffDDFFfffwwfffDDdddeDFfffeDddeeeeeddduudfdfdwwdffwwfffwwdffuufffffuwfffEEdeeeEEdeddeeeeeefffffwwfffuufffffwwfffwwfffwwfffuuDDffeefedddEEddeeededddDDdfdwwffduwfffDDDDffduufffuwfffvvdddfDDfddffDEedeeeeeeedFDfffwwfffuufffuuFFfffwwfffwwfffEEeeeeFDfffDDeeedeedeeduufffffwwfffwudddwwfffuufdffdwwfffDDddddddeeeeeeddddddfddddddddddddddddddddddddddddddddddddddddddddddddddddddddddddddddddDFDfeefeeeedeeefdewwfffuufffffwwfffwwfffwwfffuufffffdeeddeEEeeeeeeedddFFfffwwfffwwfffuufffffwwfffwwfffvvdedeFFfffEEeeeeedeeedDDfffffwwfffwwfffwwfffuufffffwwfffEEeeeeFEeeefeeeeeeddfffwwfffuufffffwwfffwwfffwwfffuufffffeefeefEEeeeedeeeeeFFfffwwfffwwfffuufffffwwfffwwfffEEeeefFFfffEDedddddeeeeuufffffwwfffwwfffwwfffuufffffwwfffDDedeeEEeddeddeeeefffffwwfffuufffffwwfffwwfffwwfffvvddfeeedffffDEeefeedeeeeFFdffwufffuwfffuufffffwwfffwwfffDDeeedFFfffEEeeeeeedeeduufffffwwfffwwfffwwfffuufffffwwfffEEefddEEdedddeddddfffffwwfffuufffffwwfffwwfffwwfffvufeddddfffffdEEeeeeeeedeeFFfffwwfffwwfffuufffffwwfffwwfffEDeeedFFfffDEedeedeeddduufffffwwfffwwfffwwfffuufffffwwfffDDeeddDEedddddddddFFfffwwfffuuFFfffwwfffwwfffwwfffuuddddDDfffffDDddddddddddFFfffwwfffwwfffuufffffwwfffwwfffDDeeddFFfffddddddddddefuufffffwwfffwwfffwwfffuufffffwwfffdDddddDDddddddddddFFfffwwfffuufffffwwfffwwfffwwfffDDEDeeddFFfffDDdedededdedFFfffwwfffuufffffwwfffwwfffwwfffEEefddDDfffddfdddddddfdddwwfffwwfffwwfffuufffffwwfffwwfffddeeeeDDdddddeddeeFFfffuuffffduwfffwwfffwwfffuufffffvufeddddFFfffDEddddeeeeeeFFfffuwfffuufffffwwfffuwfffwwfffEDefdeDDDdfffeefddddddeeedwwfffwufffwwfffuufffffwwfffwwfffEEfeddDDddddddddeeFFfffuufffffuwfffuwdffwwfffuufffffvwefdeFFfffDDeddddededdFFfffwwfffuufffffwwfffwwfffwwfffEEeeeeDDFFfffeedddeeddedewwfffwwfffwwfffuufffffwwfffwwfffddddddddffffffdddddddddddddddddddddddddddddddddddddddddddddffddddddddddddddddddddddddddddFFffffffffffFFfffuufffffwwfffwwfffwwfffuufffffvveeeeFFfffEEeeeeeeeeeeFFfffwwfffuufffffwwfffwwfffwwfffEEeeedDDfffeeeefeedeeefeewwfffwwfffwwfffuufffffwwfffwwfffddefefFDdeeedeedddFFfffuufffffwwfffwwfffwwfffuufffffEveeedFFfffEEeededdeeeeFFfffwwfffuufffffwwfffwwfffwwfffEDfedeDEddddfeeededffefffwwfffwwfffwwfffuuFFfffwwfffwweeedfeeffDEDedeeeeddedFFfffuufffffwwfffwwfffwwfffuuFffffEDddfeFFfffDDddeeeeeeeewwfffwwfffuufffffwwfffwwfffwwfffEDeedeEDdeeeddededddfffffwwfffwwfffwwfffuufffffwwfffvvedddfffffDEdddeddeddeFFfffuufffffwwfffwwfffwwfffuufffffEEeeddFFfffDEeeeddfddedwwfffwwfffuufffffwwfffwwfffwwfffEEeeddDDDDddddddddddFFfffwwfffwwfffuufffffwwfffwwfffuuefddFFfffDDddddddddddDDfffffwwfffwwfffwwfffuufffffwwfffEEefddFFfffefddddddddeewwfffuufffffwwfffwwfffwwfffuufffffdEeeddDDddddddddddFFfffwwfffwwfffuufffffwwfffwwfffvueeddFFfffDDddddddddddDDfffffwwfffwwfffwwfffuufffffwwfffDDeefeDFFfddddfdddddeddfwwfffuufffffwwfffwwfffwwfffuufddfdeefeddDDdddeddddddFFfffwwfffwwfffuuddffduwfffuwfffvvffddFFfffDDddddddddddDDdffffuufffwwfffwwfffuufffffwuddfDEefddFFfffDDddddddddddwwfdduufffdfwwfffuufffwwfffuufffffEEeeeeFFddfdeddeefddddfwwfffuwfffuufffffwufdfwwfffuwddfEEeeddDDddddddddddDDdffffuufffwwfffuwfffuuddfffuwfffuvedfddfdddDEededeeedeeDDfffDDDFfffwwfffwwfffuudffdduwfffuueeedFDddfDDddedeedeedFFfffDDDFfffuwfffwwfffuufffffwwfffDDddddddeededdddddddddddddddddddeeddddddddddddddddddddddddddddddddddddddddddddddddddddddddFFfffEEedeeddeeeewwfffuufffdfwwfffwudfduwfffuufffffFEeeeeDEedddeefeeeeffffwwfddwwfffuufdfffwuffdwwfffwwfdfeeeedeDEEedededeeedDDfffffuufffwwFfffuwfffuudddffwwfffvvfeedDFfddDEeedddddeedFFfffuudffdfwwfffuufffwufffDDDFfffEEdeedFFffdDEedddeeeedewwfffuufffffuuffdwwfffwwfffuuffdffDEeeddDDeeddeefeeeeffffuwfdfwwfffuufffffwwfffwwfffwwfeefeefeeEEeeedededeeDDfffffwwfffwwfffwwfffuufffffwwfffDDeeeeFFfffDDeedddddedewwfffuufffffuwfffwwfdfwwfffuufffffDDefedEEfeedeeefeeddfffwwfffwwfffuufffffwwfffwwfffwwfdeeefedfDDdedeedeeddDDfffffwwfffwwfffwwfffuufffffwwfffEEfeeeFFfffEDeedddeedddwwfffuufffffwwfffwwfffwwfffuufffffEEeedeDDddddddddddfffffwwfffwwfffuufffffwwfffwwfffuuffefddfffdDDdddeddddddDDfffffwwfffwwfffwwfffuufffffwwfffEEddddFFfffDDdddddddeddwwfffuufffffwwfffwwfffwwfffuufffffDDdedeDDedddeddeedFffffwwfffwwfffuufffffwwfffwwfffvvfeedfffffDDdeddedddeeDDfffffwwfffwwfffwwfffuufffffwwfffEEeeddFFfffddeeeeeeedeewwfffuufffffwwfffwwfffwwfffuufffffEEeeddEEdeeeeeeeeeFFfffwwfffwwfffuufffffwwfffwwfffuueeddDFfffDEdddededeedDDfffffuufffuwfffuwfffuudffffwwfffEDeeddFFdffDDddddddddddwwffduufffffwwfffwwfffwwfffuufffffEEddddDDddddddfddddffffwwfffuwfffuuffddfuwfffwwfdfwwfffededdeDEdddddddeeeDDdfffdwudfdwwfffwufdduufffffwwfffuveeddfffffdEDdeeeedededFFfffuudfddfwwfffwwfffwwfffuufffffEEeeeeFFffdDEedeeddedeeuwfffuwfffuudfddfuwfddwwfffuufffDDddddddddddddddddddeeddddddddeeddddddddddffdddddeddddddddddddddddddddddddddddddddddddddddDDfffffedeeeeeeedeewwfffuufffwwddfuuddfffwwfffuwfffEEeeeeEEeeeeeeeeeeFFfffuuddfffwwfffwwfdfwwfffuufffffwvdffefeeffEEeefeeeeeeeFFfffuwfffuufffffwwffdwwfffuudffuveeedDDdfdffEEededeefdeeFFfffwwfffuwfdfuufffffuudffwwfffEEefeeDFfffeeeeeeeeefeeDDFFfffwwfffuwfdfuwfffuufffffwwfffEDeeedEEeeeeeeeffeFfffdwwfffuufffffwwfffwwfffwwfffvvddeeddfffffDEededeedeeeFFfffwwfffwwfffuufffffwwfffwwfffDDffeeFFfffeDdeddedddeduufffffwwfffwwfffwwfffuufffffwwfffDEeeeeDEEedeeeeeedeFFfffwwfffuufffffwwfffwwfffwwfffvueeeeDDfffffDEeeeedddeddFFfffwwfffwwfffDDFFfffwwfffwwfffEDedddFFfffddeededdddeeuufffffwwfffwwfffwwfffuufffffwwfffdDddedDDdddddddeedFFfffwwfffuufffffwwfffwwfffwwfffuuddddDDfffffDDddddeeddddFFfffwwfffwwfffuufffffwwfffwwfffDEfeddFFeefddddddfeeddfDDFFfffwwfffwwfffuuFFfffwwfffwwfffddeeddDDddddddeeedFFfffuufffffwwfffwwfffwwfffuufffffwwddddFFfffFFffffffffffFFfffwwfffuufffffwwfffwwfffwwfffFFffffFFffffddfffffffffffwwfffwwfffwwfffuufffffwwfffwwfffffffffFFffffffffffFFfffuufffffwwfffwwfffwwfffuufffffFFffffDfFfffFFffffffffffwwfffwufffuudffffwwfffwwffdwwfffFFffffDDDFfdfffffffffffffwwfffuwfffuwfffuudffffwwfffuuffffFffffFFffffffffffFFfffuuffffdwwfffwwfffwwfffuuddfffvveeedfffffEEdddddedddeFFdffwwfdduuffddfuufffwudffwwffdEEeeddDDdffffDDddeddddfdewFfffuwfffwufffuufffffwwfffwwfffEDfeedFDefedeefeeeefddfDDFFfffwwfffuwfffuufffddwwfffuwffdddddfddddddddddeddddddddddddeeddddddddddddddfdeeddddddddddddddddddddddddddddedddddddddddddDDeeedeeeeeeFFfffDDFDfffuwfffwwfffuudffffwwfffvvdefedfddfEDeedeeefeeeDDdffuudffffwwfffwwfffuwfffuuddfffEueedeDFfffEDeeedeeeeeeFFfffuufdduufffffwwfffuwfffuwfffDDeeedDDfffffeeddedeeddedwwfffwwfffwwfffuufffffwwfffwwfffeEfeeeDDDdefeeeeeffFFfffuufffffwwfffwwfffuwfffuufffffuueeeeDDfffEEdeeddeddeeFFfffwwfffuufffffwwfffuwfffwudffEDeeedDDdffffEEeeeeeeeedewwfdfwwfffwwfffuufffffwwfffwwfffEEfeddEEedddedddeefffffuufffffwwfffwwfffwwfffuufffffvveefddffffEEeeeeeedeeeFFfffwwfffuuffdffwwfffwwfffwwfffDDEEededFFfffEDeddeeeeedewwfffwwfffuufffffwwfffwwfffwwfffDEeddeEEededeeeeddDDfffffwwfffwwfffwwfffuufffffwwfffvuededfffffDDeeddeeddddFFfffuufffffwwfffwwfffwwfffuufffffDDeeddFFfffeeddeeeeeeefwwfffwwfffuufffffwwfffwwfffwwfffEFedddEEdddeddddedDDfffffwwfffwwfffwwfffuufffffwwfffvveeddFDffffEEddddddddddFFfffuuFFfffwwfffwwfffwwfffuufffffDEeeeeFFfddfddedddfddddwwfffwwfffuufffffwwfffwwfffwwfffddeeddEEeddeeeeddeDDfffffwwfffwwfffwwfffuufffffwwfffwveeddFFfffDDddddddddddFFfffuufffffwwfffwwfffwwfffDDFFfffEDeeddEDfdddedefdedefffwwfdfuuFFfffwufffwuddfuwffduufffffeFfedeEEdededddeedFDdffwwfffwwdffuufffffuufdfwwfffvuedffeefffEDeedeededeeDDffdffwwfffwwfffwwfffuuddfffwwdfdDveedeFFfffEEededddddedDDfffuufdfffuwfffwwfffuwfffDDDFfffEEfeefDFfffdddededeededwwfdfuufffffwwfffwwfffwufdfuufffffEFeeefDDdfdfdfdfdEEeeeeeeeeeeDFfffwwfffuwddfwwddfDDDfffffwufffuuddddddfffddddddddfddddddddddddfddddddddddddddddefddddddddddddddddddddddddddddeeddddddddddddeeEEeedeeedeeeFFfffDuwfffuufffffwwdffuuffffuwfdfvvfeeefffffEEdeeeeeeeeeDFfdfdddfdDDfffffuuffdfddfddfdfdfwwfddFFfdddfddfFFfffFufffdffdfDDfddffuwfffddffdfdfdfdEEeefeDFfffEEeefeeeddeeFDffffdffdDDffdwufdfdddfddfddfffuwfffDFffdfdddffFFfdfFDfffffdffDFfdduuffffffdfdfdfdffEDeeeeDDdfededfeeeddeffDDdfdfdfffdFFfdfuwfdfffffdfdfffuufffffFDfdfffdfdFFfffDFdfffdfffdFFfffuwfffddfdddfdfddeeeeeEEdeeeeeeeedFDfffFDfdfdfdfdDDdffffuwdfffdfdfdfffffuwddfFFfdfffdfdDDfffDDfdfdffddfdDFfffwudfdeefeeffffffffffffEEeeeeeedeedFFfffFFffffffffDDfffffuufdfdfdfffdfffwwfffDFfffffffffFFfffDDFFfffdfdfdDDfffEFffeeFFfffFFeefeedefdedefeefffffFFfffDFfffffdfdfFFfffuufffffffffffffffwwfffFFffffffffFFfffuwffffffffffffffEEeeeeEEeeededdeeeDDfffffFFffffffffFFfffwwfffffffffffffwwfffdffffffffffDDfffffFFffffffffFFfffuveeddFffffffffffffffEEdeedeeeeeeFFfffDFfffffffffDDfffffwwfffffffffffffwwfffFFffffffffFFfffuwfffffffddfffffffEEeeeeEDfddddddfedddfffFFffffffffFFfffwwfffffffffffffuuffffFDFfdfffdfdwwfffDFfffffffffFFfffuuffeeffddfffffffffffDDedeeddededDDfffffFFffffffffFFfffDFffffffffffffffwwfffFFffffffffDDfffffFFffffffffFFfffDDeeeeFFfdffeeeeedddfedfeeffffffffwwfffFDdfffffffffFFfffwwfffffffffffffwwfffDFfffffffffDDFFfffwwffffffffffffedffeddEEddddddeeddFFfffFFffffffffFFfffDFfffffffffDDfffffwwfffFFffffffffFFfffFFffffffffFFfffEEeeeeDDfdffffffffffffffeeeededdeeeewwfffFFffffffffFFfffwwfffffffffffffuufffffDFfffffffffFFfffwwfffffffffffffEEfeeeFEeeededfffeFFfffFFffffffffDDfffffDFffffffffffffffwwfffFFffffffffFFfffFFffffffffDDfffffvvefeeffdfffffffffffffEEeeeeeeeedeFFfffFFffffffffFFfffwwfddffffffffffffwwfffDFfffffffffFFfffwwfffffffffffffDEffdeDDffedfdefefeeeeeefFFffffffffFFfffDFfffffffffFFfffwwfffffffffffffwwfffFFffffffffDDfffffuwffffffffeefffefefeffEEdeddeeeddeFFfffFFffffffffFFfffuufffffffffffffffwwfffDFfffffffffFFfffwwffffdffdDFffdEEeeeeDDfffffDFfdfffeedeefdefeeedeeuwfffDFdfdfdfdfdDFfffwwdfddfddfddfdduufffffFFffffffffFFfffuFdfdfdfdfdDddffEEedeeDFfeeeeefeeeeffeeFDfdfdfdffDufffffFDfdfdfdffFFffduwffddfdfdfdfdfdwwfffFFffdffdfdDDfddffwufdfdfdfddffdfEEeedeDEEefedeeeeeeFFfffDFfdfdfdfdDFdffDDdffdfdfdDDdffdfuuffffddfdfffdfdwwfffFFdffffdfdFFfffDDDDfdfdfddddfdeddeefeeEEedeeeeeeddDFfffDfdfdfdfdddDFfffDDfdfdfdfdDDfffffuwffdfddfddfdfdwwfffDFffffffdfdFFfffDDEEfdfefeedfdfffffffffEDeeeeeedeeeFFfffDFdfdfdfdfwwfffDFffdfdfffdFFfffwwddfffffffffffffwwfffFDfddffdfdFDddfEEeeeeDFdfdfdfffdFDfeefeeeedeeeeeeuufffffwwfffwwfffDFFfffuudffffuufddddfddddfddddddddddddddddddddddddddddddddddddddddddddddddeddddedddddddddddddddddddddeefeFFffffffffffFFfffDFFfffuufffffuwfffwwfffdwwfdfvveeddfdeffffEEeeeeeeeeedFDfdfdfdffDFfffwwfffdfdfdffffffwwfffDDfdddfdfddfFDfffwwfffdfdfdfdddfwufffDFffffdffdfEEeeeeDDfffffEFeeeeeeeeeeDFfffdfdffFFffdwwffffdfdfdffffuwdffDDdfdddfdfdfdFFfffwufffffddfdddffwwfffFFfdfdddffeEeeeeDDdffdeedefeeeeeeeeDDffdfdffffDDfffuwffffDfdfdfdfduwfffDFdfdffddfDDdffffuwfdddddfddefddfwwfffEEfdeeffeddffdfdEDeeeeeeeedeDffffDDfdfdfdfdDDfffffuwdfffddddfdfdfdwwdfdFDfdfdfffdDDdddwufffdddfffddfdffwwFffedffDfFEeeefffeffffffffffwwrDDfffffffffdwwffffffffuveefdFFfdefdeedfeeffeffdeffuwfffffffffwwffffffffwwffffffffuwfffffffffEEeedeDEdedeeeedddFFffffffffwwffffffffuwfffffffffwwfffdffdfuvdeeeFFffffffffEEeeeeeeeedeuwfffffffdfwufdfdffffwwffffffffuwfffffffffDveeedEDeeeddeeeffeeffffffffwwffffffffuwfffffffffwwffffffffwwffffffffedddddDEdddeeedeedDFfffffffffwwffffffffwwffffffffuwfffffffffvueedeFFffffffffeedeededeeeewwffffffffuwfffffffffwwffffffffwwffffffffDDeeddDDDDddddddddddDFfffffffffwwffffffffwwffffffffuwfffffffffuuedfedfffffffffEEeeeddeeeddwwffffffffuwfffffffffwwffffffffwwffffffffvveeddDDdddedddffdefedfffffffwwffffffffwwffffffffuwfffffffffwwffffffffDDffeeDEdeeeedddddFFffffffffuwfffffffffwwffffffffwwffffffffvvddddDfFffffffffeDddddddddddwwffffffffwwffffffffuwfffffffffwwffffffffEEefddDDddddddddddFFffffffffuwfffffffffwwffffffffwwffffffffuvefeefddffffdffdDDdddddddddewufffdfdfdwwfffdfdffuwdfdfffdfduwffffffffuufeedFFdfffffffDEdddeedddeeuwfffffffffwwffffffffwwffffffffuuffffddffdDDeeddEDddddddedddfdfdfdfdfdwufffddffduwfdffdfdfduudffdfdfdwuddfffdfdDFfdedEEdeddededeeDDdfffdfdfdwwdffffffdwwfdfdfdfduwfdffdfdfdwwffffffffEEeeeeEEeeeedeedddDDddfdfddduwfdffdfffdwwffffffffuwfffffdfduvdeeeeffffffffffDEedededdeeewufdfdfdfdududdddddddddddddddddddddddddddddddddddffdddeddddddddddddddddddddddddddddddddddddddddeeeeedEEeeeeeeddedDuuveedeEEededddeeeduuffffffdddwwdfdfffffwwffffffffuwffffdfdfdEEeeedEEedeeedeeeeDDfffdfdfdwwfdfdddffuwffffdfdfdwufdfdfdfdwwffffffffDDdeedEEededdeededDFfffffffffwwffffffffwwffffffffuwfffffffffuuddddFFffffffffEDdddeeeedeewwffffffffuwfffffffffwwffffffffwwffffffffDDeeddEEdeedeeeeedDDfdfdddddfuwfdfdfdfdwwffffffffuwdffffffdfwufdfdfdfdEEedeeEDdddeeedeeeFFffffffffuwdfdffffffwwffffffffwudffdfdffvuddeddffffffffffDEddededdeedwwfdfdffdfwwfdffdfffuwfffffffffwwffffffffuuddddEDfedfddfddfeefdefffffuwfffffffffwwffffffffwwffffffffuwfffffffffEDeedeEDeddeddeedfFFfdfdffdfwwffffffffuwfffffffffwwffffffffvveeeeFFffffffffDDddedddeedduwfffffffffwwffffffffwwffffffffuwfffffffffEEddddDDddddddedddFFffffffffwwffffffffuwfffffffffwwffffffffwwffffddddfddfffDDdddddddddduFfffffffffwwffffffffwwffffffffuwfffffffffuuedddFFffddfddfedfddfddfeefwwffffffffuwfffffffffwwffffffffwwffffffffEEeeddDDdddddeddddDFfffffffffwwffffffffwwffffffffuwfffffffffvueeedFFffffffffDDedddddddddwwffffffffuwfffffffffwwffffffffwwffffffffDDdeddDDddeddddddeDffffffffffwwffffffffwwffffffffuwfffffffffwwffedffeeeeffffDDddddddddddwwffffffffuwfffffffffwwffffffffwwffffffffuuddedDFfffddddddffddfddfddffwwfffffffdwufdfdfffduwfffffffffwwffffffffEEeeddDDddddddedddFFfffdfddduwfffffffffwwffffffffwwfffffdfduwddfeefeefffffffEDddddddddddwwfffffffdwwffffffffuwfffffffffwwfdfdfffdvueefeDFfdfeddfdddddfddfdddduwfffffffffwwffffffffwwffffffffuwfffdfdffdDDedeeDEdeddddddedFDfffddffdwwffdffdfduudfffffdffwwdffdfffdwwffffffffedfeeeEEedddedeedeDFfffffffffwwffffffffuuuddddddddddddddddddddddddddddddddddddddddddddddddddddddddddddddddddddddddddddddddddeefeeeDEeeeeeeeeeeuuvFfeeeDEeeedddededuwfffffffffwuffddffdfwwffffffffEDedddDDedeeeeedeeDFdfffdddffwwffffffffwwfuwfffffffffwwffffffeefdefeeEDddededdedewwffffffffuwfffffffffwwffffffffwwffffffffuueeedDFffffffddfdddeffddeddewwffffffffwwffffffffuwfffffffffwwffffffffEDeedeEEdeeddeeeeeFDddffffffuwdfddfffffwwffffffffwwffffffffuudfedfddffffffffDEdedddeedddwwffffffffwwffffffffuwfffffffffwwffffffffvveeedEDddddffddfddfddffffffuwfffffffffwwffffffffwwffffffffuwfffffffffDEfedeFEeeddddeedeFFffffffffwwffffffffuwfffffffffwwffffffffvueeddFFffffffffDDdeddeededduwfffffffffwwffffffffwwffffffffuwfffffffffDDeeddDDdddddddddeFFffffffffwwffffffffuwfffffffffwwffffffffwudfedfddfffffffDDddddddddeduwfffffffffwwffffffffwwffffffffuwfffffffffuueeddEDfdeddfddffeefddfffffwwffffffffuwfffffffffwwffffffffwwffffffffDDddddDDddddddfdddDFfffffffffwwffffffffwwffffffffuwfffffffffvvddddFFffffffffDDededdeedddwwffffffffuwfffffffffwwffffffffwwffffffffDDedddDDddddeeefddDFfffffffffwwffffffffwwffffffffuwfffffffffwwddfeefddffffffDDddddddddddwwffffffffuwfffffffffwwffffffffwufdffffffuueeddDDffffdddfdddddfdddddedwuffdffdfdwufdfdfdfduwdfdfdfdffwwdffdfdfdDDeedfEDfeddeeddddfdfffdfddduudfdfdddfduuddfdffffuufdfdfdfduwdfdfdfdfdDDeeddEEddddfddeddFDfddfffdfwufdfdfdfduudddfdfdfdwufdfdfdfduwdffdfdfdDDeeddDDddddddddddDFdfdfdfffduwfdfdfdfduwfdfddddduuffdfdfdffuuddfdfdfdDDdeddDDdddeedddddFFfffdfdfduuffdfdddfdwwfdfdfdfduuddfdfdfduudddfddddefdddfdEEddddddeedduudffdfffduwfdddfdffuwdfdfdedddwufdfdfdfdwueeeeFDfdfdfffdEDdeddddededuwfdffdddfduufdfdfddduuuddddddddddddddddddddddddddddddddddddddddddddddddedddddddddddddddddddddddddddddddddefeedeEEeeeeeeeedduuuEeeeeDEeeddddeeeeuuuffdfdfdfduwfdfdfdfduwfdfdddfdEDeedeEDedddedddedDddfdfdfdffuwfffffdfdwufdfdfdfduwdddfffffduwfdfdfdfdDDeeddDDddddddddddDDfdfdfdffuudfdfdfffduufdddfdfdwufdfdfdfduwfffffffffFFddddFFddddddddddFDfdfdfdfduwdfffdffduufdffffdffuwfdfdfdfduufdedfdddddfdfdDDdddddddddduFdfdfdfdffuwfffdfdffwwfffffffduudfdfdfdffuuddddDDfdfdfdfdDDddddddddddwwffffffffuwfffffffffwwffffffffwwfffdfdfdDuddddDDdddddddddffddffffffffwwffffffffwwffffffffuwfffffffffwwffffffffdDddddDDddddddddddFFffffffffuwfffffffffwwffffffffwwffffffffuuddddDFfffffffffddddddddddddwwffffffffwwffffffffuwfffffffffwwffffffffDDeeddDDddddddddddFFffffffffuwfffffffffwwffffffffwwffffffffuudddfddfffffffffDDddddddedddwwffffffffwwffffffffuwfffffffffwwffffffffuuddddDDddddddfddfddffffffffuwfffffffffwwffffffffwwffffffffuwfffffffffDDddddDDddddddddddFFffffffffwwffffffffuwfffffffffwwffffffffuuddddFFffffffffdddddddddddduwfffffffffwwffffffffwwffffffffuwfffffffffDDeeedDDddddddeeeeFFffffffffwwffffffffuwfffffffffwwffffffffuuedffeeffffffffDDddeddddedduwfffffffffwwffffffffwwffffffffuwffdfdffdfuueeddDDfdeefddeddfdfeedddddwufdfdfddduwdfdffdffdwwdffdfdfdwuddfdfdffDDeeddDDddeddddddedfdfdfdfdfdwufdfdddffuudfdfdffduuffdfdfffduudfdffdfdEEffddEEddddddedddDDfdfdfdfduwdfdfdfdfdwufdfdfffdwufdfdfddfuwdfdfdffffDDeeddDEddddddedfdFDfdfdfdfduudffdfdfduufffffdfdfwufdfdffdfuufdfdfdfdEEeeddEDdddddedfefDFdfdfdfdfduuddddddffwufdfdfdfduuffdfdfdfdwufdfdddddfffedfEDddddeddfeewufdfdfdfduwffdffdfffwwfdfdfddfuwfdfdfffdvveedddddddfdfdfdEDeeeeeeeedduuddfdfdfdwwfdffdfffuudffdffdffuudddddddddddddeddddddddddddddddddddddffddddddddddddddddddddddddddddddddddddddddddddeeeeefEEeeedeeeddeuuvvefeeEEeeeeeeeeeeuwufdfdfdfduwdfdfdfdfdEEeeeeEEeeeeeeeeeeFDfdddfdfduwfdfdfdfduudddddfdfduwfdfdfdfdwwddfdfddfEDefedDEeddeeedeeeDFdfdfdffdfwufdfdfdfdwufffdfdfduwfffdfddfduwfdddffdfDEddddDDeededeedddFDddfdffdfuudfdfdfdfdwufffffdfduwdffdddfduufdfdfdfdfddeeedFFededddedddDFfdfdfdfdwwdfffdffduwdffffdffdwufdfdfdffvvddddffffffffffDEdddddddedduwfffffffffwwffffffffwufdfdfdfduufdfdfdffduveddeFFffffffedfdeddfdddedewwffffffffuwfffffffffwwffffffffwwffffffffEDdedeEEedededddeeDFfffffffffwwffffffffwwffffffffuwfffffffffuveeddFfffffffffDEdddddddddewwffffffffuwfffffffffwwffffffffwwfffuueeddEEdddedddddfeefffffffffwwffffffffwwffffffffuwfffffffffwwffffffffdeddddDDddddddddeeFFffffffffuwfffffffffwwffffffffwwffffffffuueeddDFfffffffffddddddddddddwwffffffffwwffffffffuwfffffffffwwffffffffDDeedeDDddddddedddFFffffffffuwfffffffffwwffffffffwwffffffffuudeeddffffffffffDDddddddeeeewwffffffffwwffffffffuwfffffffffwwffffffffuueeeeEEddddddfddfeeffffffffuwfffffffffwwffffffffwwffffffffuwfffffffffDFeeddDEeeeddeeddeFFffffffffwwffffffffuuffdfdfdfduwfdfffdfdvueeedDDfdfdfdffDEdedddddddduwdfdfdfdfdwuddfdfdfdwufdfdfdfduudfdfdfddduueeddDFfffdfdfdDDddddddedddwuffdfdfffuudfdfdfddfuufffdfdfdwudddffdfdvveeddDFdfdefddfdddeeddfddddewufdfdfdfdwuddfdffffuudfdfdfdfduufdfdfdfdDFddedDDddedddddefdffdfdfdfduuffdfdfdfdwufdfdfdfduwfdfdfdfduwdfdfdfdffEEefedDDddddddddedDDfdfdfdfdwwdffdfdfduwdfdfdfdfdwufdfdfdfduuddddfdfdDDddddDEddddddddedDFdfdfdfdfdwufdddfffduwfdddffdfuwffdfdfdffwufdddfdfdEEddddEEeeddeeedeeDFfdfdfdfduuffdddfdfduufdddfdfdDDDDdDdddDdfdfdfdfddDDdddddddddddddduudddddddddddddedddddddddddddddddddddddddddddddddddddddddddddddddddddddddddddddddddddddedddEEeeddeeeeeeuuddDDuveeeeEEeefedeeededuuwfdddfdfdvueeeeFFfdfdddfdedeeeeeeeeeeuudddfdffdfuwfdfdfffduwffdfffdfuwdfdfdddddvvdeeeEEddeefdedfdefffddfdfdwufffffffduwfdffdfddfwwfdfddfffwufdfdfdfdDEeeefEDddeedeeeeedfdfdfdfdfdwwfdffdfffwwffffdffduudfffddffduwfffdfffdEEeeedEEefeededeeeFDfdfdfffduufdffdfdfdwwfdffdffdwwfffdfdfdvufffffffffddededEEdedededeeeFFffffffffwwffffffffuwfffffffffwwffffffffvvdeeeFFffffffffeddefeeedeeeuwfffffffffwwffffffffwwffffffffuwfffffffffEEeeeeEEedfdfeefdfFFffffffffwwffffffffuwfffffffffwwffffffffuueeffdfffffffffEDdeeeedededuwfffffffffwwffffffffwwffffffffuwfffffffffvveeedDEddedeefddfeeffffffffwwffffffffuwfffffffffwwffffffffwwffffffffEEdeefDDedededfdedDFfffffffffwwffffffffwwffffffffuwfffffffffuuedeeFFffffffffeeededeedeeewwffffffffuuDFfffffffffwwffffffffwwffffffffFDeedeEDdddedeeedeDFfffffffffwwffffffffwwffffffffuwfffffffffvveeffedffffffffEEeeddfdedeewwffffffffuwfffffffffwwffffffffwwffffffffvvdeddDEdddedfedfedfeefffffffwwffffffffwwffffffffuwfffffffffwwffffffffEEeeddDDddeddedeeeFFffffffffuwfffffffffwwffffffffuufdffffdfvveedeDfdfdfdfffdEEdeeeeeefeewwfdddfddduufffdfdfduwdffdffdfdwufffdfdfduueeeeFDfdfdfdffeeeeededeeeduudfdfdfdffuufdfdfdfdwuffdfddfduudfdffffffvveeedEEeefddfeefefdfddefdfduwfdfdfdffuwdfdfdfdfduuffdfdffduwfdfffdffEEedddEEeeedefedeedddddfdfdfduuddfdfdfduwfffffdffuuffdfdfdfdwufdfdfdfdDEededDEdeeeeedeeeFDfdfdfdfduwffdffdffduufdfdfdfduuddfdddfduudddfdfdfdEEddddDEeedddeeeedFFffffdfdfwufdfdfdfduwdfffdfdfdwufdfdfdfdwwfdfdfdfdedeeeeFEeededdeedeDDffdfddddduwfdfdfdfdwufdddffdfuwdddfdddfduuddddddddddddedddddddddddddddddddddddfeddddddddddddddddddddddddddddddddddddddddddddEDeeeeEEeefeeefedfuuvEeeeeDDefeeeeeeffuFufdfdfdfdwveeeeDFDffeeffeddefdeefdeeeewuffddddfduuddddfdfduwdfdfdfdfdwufdddfdfdFEefefEEdeeeefefeeddfdfdffffuudfffdfdfdwufdfdfdffwwfdfdfdffuuffdfdfdffFFdeeeEDeedddeefddFFffffffffwwfffffffduwfffffffffwwffffffffwwfffeffddffffffDEeddfeeeeeduwfffffffffwuffdfffffwwffffffffuwfffffffffvudedeFFffeedefeefedfddffedfwwffffffffuwfffffffffwwffffffffuwfdfddfffDDedeeEDeeeeededdeDFdffffffffwwdffdfdfdwwfdffffffuwffdffffffwwfdfdfdfdedeedeDEeededeeedeFDfdfdfdfduwfffffffffwwffffffffwwffffffffvuddeeDFfffffffffEDdddeeededdwwffffffffwwffffffffuwfffffffffwwffffffffDEedddDDeedeeddeddFFffffffffuwfffffffffwwffffffffwwffffffffuwfddddffedffffffEEddddeeddddwwffffffffwwffffffffuwfffffffffwwffffffffuudddeDDfddfddddffeefeefffffuwfffffffffwwffffffffwwffffffffuwfffffffffDDdddeEEddddfdddeeFFffffffffwwffffffffuwfffffffffwwffffffffuuddddFFffffffffddeededddedduwfffffffffwwffffffffwwffffffffuwfffffffffDDddddEEeddefeddedFFffffffffwwffffffffuwfffffffffwwffffffffvvfeefddffffffffEDdddddddddduwfffffffffwwffffffffwwffffffffuudffdffffduueeddFDfdedfdedeefdeeffeeeewufdfffffduwdfdddfddduufdfddffduwfffffffdDDeffdDDddddeeeddddffdfdfdfdfwufdfdfdfdwwffffffffuwdfdfdffdfwufdfdfdfdDDeeddEDededddddddDDfdfdfdfduwdfdfdfdfdwufdfdfdfdwufdfdfdfduuffdfffdfdDDfeddEEeeddddddddDFfdfdfdfduwddddfdfduudfdfdfdffwufdfffdfeuueefdefddfdfddfDDedddedfEDdvwdfdfdfdfdwufdfdddfdwufdfdfdfduwfffdfdfdfwuefddDDddfefdddfdddfddefdfFuwfdfdfdfduwffdfdfdddwufdfdfdffwuddfdfdfdDEffddEEedeeddddddDDffdfdfffdwuddfdffffwwfdfdfdfduwfdfdfdffduuddddddddddfdfdddddfddddddddddfddddddddddddddddddddddddddddddddddddddddddddddddddddddddddddddDEddefDDedeeeeffeeuuvueeeeEEdeeeededeeuwwffffDfdfdfdfffdFFffffffffffuwdfdffdfduuddfdfdfduwdfdfdfdfduwfdfdfffdwwffffDFfddfdddffFFffffffffffwwfffdfdfdvwfdfffffduudfdfffffdwwdffffdfduueedeFFedfeefeefddfedfedfffuwfffffffffwwffffffffwwffffffffuwfdffdfdfdDDeeddDDddddddedddFFffffffffwwffffffffuudffffffffwwfdddfddduwdfdefdfddfffffdDDdddddddddewwffffffffwwffffffffuwfffffffffwwffffffffuuedddDFffddfeedeffedfdefedffwwfffdfdfdwwffffffffuwfffffffffwwffffffffEEeeddDDddeddeddddFFffffffffuwfffffffffwwffffffffwwffffffffuufedddffffffffffEDdeedddddeewwffffffffwwffffffffuwfffffffffwwffffffffDDeeddEDddeeeddddedffffffffffwwffffffffwwffffffffuwfffffffffwwffffffeefeefddDDdddddddddewwffffffffuwfffffffffwwffffffffwwffffffffuueeddDFffffffddfdddeffedddeewwffffffffwwffffffffuwfffffffffwwffffffffEDdeddEDdeeeddedeeFFffffffffuwfffffffffwwffffffffwwffffffffuveededffffffffffDEdeeeeeedefwwffffffffwwffffffffuwfffffffffwwffffffffEDdeedDDefeeeddddddffffffffffwwffffffffwwffffffffuwfffffffffwwffffffffdefeddDDdddeddeedeFFffffffffuwfffffffffwwffffffffwwffffffffuvfeddDFffffffffeefddeedeeeeduudffffffdwwffddfdfduwdfdfdfddfuwffffdffdEEddeeEEeeeeddeeefffffffffffuwfffffffffwwfdfdffdfwufffdfffduufffffdffdEEfefeDDdeddddddeeFFffdffdffuwfdfdfddduwdfdfdddfdwufdffdffdwwfdfdffffddeeeeEEeeffeeedddDFffdfffffdwufdfdfdfdwufffdfdfduwffdfdfdfduveeddfdfdfffdfdEDddeddeddeduwfdfdffffuwdfdfdfdfduwdffdfdfdwwdfdffdffuufeddDFffdfdfdfdDDeedfeededewufdfdffffuwfdfdfdfduudfdddfdfduufdfdddfduveeeeDDfffdfdfeededeeeeeeeeuudfdfdfdfduufdfdfdfdwufdfdfdffuwfdffdfdffDDddddddddddddddddddddddddddddddddddddddddddddddddddddddddddddddddddddddddddddddddddEDeeeeEDddeededeedddeefffdffuvveeeeDEEeeeeeeedeeuvveeddEEeeeefefdeeFFfdfdfdfduwdfdfdddfduufdfffdffwwffffffffuuffeddddfeedfdfdEEeeeeedeeddwwffffffffwwffffffffuwfffffffffwwffffffffvvfeefDFFffeefedfedfeefeeffeewwffffffffwwffffffffuwffffdfddfwwffffffffEFeeefEDeddddddeeeFFffffffffuwdfdfdfffdwwffffdfffuufdfdfdfduwffffeffeeffdfffEDdeffefeeeewwdfffdfdfwwffffffffuwfffffffffwwffffffffuveedeDFfffffffeeedfeeffdededwwffffffffuDvvfeddDDedeeefffeduuvueefeEEeddeeeeedeuuvveedeDDeDfeeedeeffeuuudddEEffdeDDDdddddddddddeedeeeedeeuuvveeefEEfdeedefeffuuwvdddeDDEdeefeeeeeeuvuddedFEedddedeedeuDuuEefeeEDedeeeefeeeuEveeffEEdedfeeefedeuuDveeedEEeeeeeeeeeeuuwveeddEDdeeededdeeuuuvEfeeeEEefeeeeeddeDudwDeeeeDEdeedeeeeedDuvueefeEEedefdeeeeeuuvwffddedEEeeeededeeeuuuefefdDFedefdeeeeduDuuddddddddddddedddddddfdddddddddddddddffddddddddddddddddddddddddddddddddddddddddddddEEeefeEEeeefeeeeeeuvvvefeeEEeefeeeeeeeuvweeeeDEEefeeeefeeeuvvedeeEDefdeedeeddDuuveeeddEDeeededdddeuDufedeEEddddddedeeDuvueeddEEededdeeeeeuuvwffdeDEeeeeeeeeeeuuvEffedDEdedeedeedfuDveeeeFEdeeedfedeeFuvveefeDEDedddeeeddduDvueeddDEEeeefeefdeeuvveeeeEDddfeeeeeeduDuuvEedefEDeedeeeeeeevEufffdEDfedeedeeeeeduvveefeEEeeedeeeefeuuvvffddeeDEDeedeeeeeeeuvuefefEEeeeeeeeeefuuwEffedDEeeededeeefuEveeffEEddfedeeeefeuvwfffeEDfeedffeefduvvDffedEEeedeeeeddeufvfeeeEEddeeeeeeeeFuvveeeeEEeeeddefefeuuuudddddddddddddddddddddddddddddddddddddddddddddedddddddddddddddeddddddddddddddddddddEEfeeeFEeeeedeeeefuuvEeeeeFEeeeeeeeeefuEvffffDEeeeeeefeeffuduveefdEDeeedeeeeeeuuvEdeedEEeeedefeedeuDwfefeEEdfededddeeduuEvfeddEEeedeefeedeuuwueeeeEEeeeeeefefeuuvEeeeeFEdedeededfduFveeeeEDdeeedddedeeuvveeeeEEeeefeeddfeuuvveedeeFDedfedddeeeuuDueffeDEefeededeeduuvvfdeeFEeddeeddeeeuuvEeeeeEEedeeedfedduwveffdDEFeeefeeeeeeuuEvfefeEFeeeeeeefeeuuveeeefDDdeeeedeeeduuvveffeEFefeeeeeeeeuuuEFefdeEEeeedfedeffuEvfeeeDEDeeeeeeeeeeuvveffeEFeeefdedddeuuuvEeeeeEEeeeeeefedeueveeeeEEeeeeeeeeeeDuuDddddddddddddddddddddfdddddddddddddddddddddddeeddddddddddddddddddddddddddddddddddddEEeeffEEeeeedeeeeeuDudDDdddddddddddddddddduvfefeeFFEEuuddDDuueeeeEEeeeeeeedeeDuvveeeeDDdedeeeeddeuuuddeedEEeeeeeedeeeuuueeddDDedddeddedduuuuDdeeeDDdddddddddeDuvuddeeDDDdddedddddduuuddedDDddddddeedduuuDdeddDDddeddddddduDuuddddDEdeeeddddddDuuuddddDDddddffddeeuDvuddddDDDdddddddddduvvededDDdeeeeeeeeduuuuEeeeeEEeeddedddeeudveeeeEEdeeddeedeeDuvuddddDEdeededdeefuuuEvdeedDDeeedeeeeddduvveeeeDDEEeeddededeeuuddDDDddddddddddddddddddddDDdddddDDddddddddddddddddddDDDDDDDDddddddddddddddddddddddddddEEeedeDEEeeedeeeeeduudDuvueedeDEedeeedeeeeuuvDeeeeEEedddeddeeeuEuededDDDededdedfdduwuefdfDDeeeeddeeeeuuuudddddddddddddeddddddddddddddddddddddedddddddedddddddddddddddddddddddddddddddddddddEEeeffFDeeeeeeedefuuuEeeeeEEeedeefeeeeuEweeeeDEEeeeeeeeeeeuuddDddddddddddddddddddddddddddddddduuueeeeDEdefeedffeeuuwDedeeEEeeedeeeeeeuFueeddDDeedeedddddeuuueddeEDeddddedeeduuvDeefdEEededeeeeddueveedeDDEddddfeeedduvuededDDddddeeddeeuuvuddddDDddededdedduuvDeeedDEdedededeefuEwddeeEDeefddddeedeuuueeeeEDededeeddeeuuuDeeeeDDeddddeeeeduEveeddDEeedeedddedDuvueeeeEEeeeeeeeedduuvvddeeDDdeeeefddeduuvEeeedDDeeeddeddeeuEueeeeDEdeeedddeeeduuveefeDDeeeddddddduuudddddEEdeeddddddeuuvedeeEEddddedededuuvufedeDDefdeddeedeuuuddddddddddddddddddddffddddddddddddddddddddddddddddddddddddddddddddddddddddddddddddEEfeedDEEeeeefffffeuuveeddFEeedeeeeedduuvveeeeDDedeedeededuvveedeDEDdddedddddeuuuefddDDeededeeedduuudddddddddddddddddddddddddddddddddddDDDDdddddddDDdDdDddddddddDDededEDdfddededdduuveeedDEDddeddddddeuvufeefDEeddedddddduuvEeeddEDedeedddddduDvedddDDeddededeedeuvveeeeEEfeeeeeeeeeuuvEeeeeEEeeeeeeeeeduEvfeeeEEeeeeeeeeeeDuwvfeeeEFddfeeeeeeefeuuvvfeeeFEeeeeeeedeeuuvEeefeFFeeeeeeeefeuEveeeeFEeffeeeffeeduwweeefEFeeeeeeeeffuuvffeeeEEeeeeefeeeeuvvfeeeEEeefeefeeeeuuwveeeeFEeeeeefeeeeuvveeeeDEEeeeeeeeeefuvvfeeeEEeefeffeefeuuwEffefEFeffeeefeeeuDuddddddddddddddddddddddddddddddddddddddddddddddddddddddddddddddddddddddddddddddddddEFfefeDFFefeeeeeeeeuvvefffEEeeeeeefffeuuwFefeeFEeffffffeeeuvweefeDEEffeeeeffefuvvefeeFEfeeefeefefuuvEefefEFeeeeeeeeeeuEveedeEEeeeeeeeeeeduuddddddddddddddddddddvveeeeEEfeeeeeeeeeuuvEeeffEEeeeefeeeeeuEveeeeEEeeffeeeefeDuvweeeeEEeeeeeeeeeeuvveeeeDEEeeeeeefeeeuvveeeeEEeeeeeeeeefuuvEeeffEEeeeeeefeeeuvvffeeDeEeeeeefeeefuvveefeEEeeeefffffeuuvFffefEFefeeeefeeeuFwefefDFfffffeeeeeeuvvfefeFEeddeeeeefeuuvFeeeeFEeffeeefeeeuFwffffDFFffffddddffuwwffffFFfffffdddffuuwwffffDDddddffffffuuvEefffEEfeddeeeeeeududdddddDDddddddddddddddddddddddddddddddddddddddddddddddddddddddddddddddddddddddddddEEefffEEdefeeeefeeeuvveeffFEffffffeeefuuwFeeefEEeeeefeeffeuFweeeeEFdeeeeeefefeuwvefffddEEeeefeeeeeeuuvEeeeeEEeeeeeeeeeeuewffeeDEEfeeeeeeeeeuvveeeeEEeeeeeeeeeeuuwveeeeEEeeeeeeeeeeuuuddDddddddddddddddddDDDddddDEdeeeddedeeuEveeeeEEeeeedeeeeeeuvveeeeEEeeeeeeeeeeuuvEeeedEEefeeeeeeefuevefeeEEeeeeeeeeeeDuwvfefeEEeeeeeeeeefuvwfeeedEEeeeefeeeeeuvvefeeEEeeeeeeefeeuuwveeeeEEefeeedeeeeuvvffefDeEeeefeefeeeuvveeeeFFeeeeefefeeuuwEfeeeEEeeeeefeeefuEvfeeeDEEeeeeeeeeeeuwwffddeeEEeefeefeeeeuuvEffeeEEeeeeeeeeeeuDuddddddddddddddddddddddddddddddddddddddddddddddddddddddddddddddddddddddddddddddddddEEeefeEEeeefeefeffduvveeeeFEeefefeeefeuuvEffeeEFeeeeefeefeuEveeeeEFeeeeefeeefduwveeeeEFeeeeeeeeeeuuvefefeEEfeefeffeeeuFwffeeEEeeeeeeeeeeDuvveeeeEEeeeeeeefeeuuuddddDDDeedddddedduvveeddDDddddeeeeeeuuvDeeeeDDeeeeedeedeuuuddddddddddddddddddeeeeeeDEEeeeeeeeeeuvvefeeFEeeeeeeeeeeuuvEfeeeEEeeeeeeeeefuFveeeeDFffeeeeeeeefuwveefeEEfeffeffeeeuuvFeeeeEEeeeeeeeeeeuFvddffeeFFeefefeefffDuwwfeeeEEefeeeeeeeeuvwdeeefDDeefeddfffeuvvfeefEFeeeffefefeuuwFffefEFfefeffeeeeuvveeedDeEedeeffeeeeuwwffeeFFeeeeeeeeeeuuuddddddddddddddddddddddddddeddddddddddddddddddddddddddddddddddddddddddddddddddddddddEEffffEFeeeeeeeefeuFvffefDFEefefefeeefuwweeefFFeeefeeeeeeuuwFffeeEEeefeeeefefuFwfefeDEeefefefefeeuvvffefEFeeefeefeefuuvveeeeEEeeeefeeeeeuuvEeeeeEEeeeeeeeedfuvveeeeDEEdddeddfddeuuvddedDEdeeddeddeeuuvDeeeeDEdedededeeduEveeeeEEeeeeeeeeeeduvveeeeEEeeeeeeeeeeuuveeeeeEFeefeeeeeeeuFvfeeeFFeeeeeeeeeeDuwvefefFFeefeeeefeeuudvweeeeEFeeeeeeeeefDuwwfffeFEeeeeeeefefuuwveeeeFFeeeeeeffeeuuuddddddddddddddddddwwdefeeFEeefeeeefefuFvfffeEEeeeeeeeeeeDuvweeeeEEefeffeffefuuwvefeeEFeeefeeeeefuuvEffeeEEeeffeffeeeuDudddddddddddddeddddddddddddddddddddededddddddddddddddddddddddddddddddddddddddddddddFFeeeeEEeefeefeeeeduwweeeeFEfeeeddefefuuwveeeeEEffefeeeefeuuvEefeeEEffeeeeeeeeuwwefeeDEEeefeefeefeuvveeeeEEeeeeeeeeeeuuwweeeeEFefeeeeeeeeuuvEeeeeEEffeeeeeeeeuuvedddDeEeeeeeeeedduvveeefEDdeeddddeeeDuvveeeeEEeeeefeeeeeuuvveeefFEeeeeeeeeeeuvveeeeDEEeffefeefeeuFvffedEEeeeeefefeeDuvveeeeEEeeeeeeeeefuuvweeeeEFefefdeeeeeuwvffdeeEEfeeeeeeefeuEvffefEFfeeeefeeeeDuvveeefEEeeefeeeeefuuvweeeeFFfeefeffeeeuuwEeeeeEFeeeefeeefeueweeeeEEefeeefeeeeDuvvefffEEefeeeeeeefuuvvefeeFEfeefefeeeeuuudddddddddddddddddddddddeddddedddddddddddddeddddddddddddddddddedddddddddddddddddddddEFffeeEEeffeeeeeeeu#440wwfFFFFFFFFFFffFFFFFFFFFFFffffffffffffFFffFFffFFffFFfffffffffffffffFFffFFffFFffFFfffffffffffffffFFffFFffFFffFFfffffffffffffffFFffFFffFFffFFfffffffffffffff0v0vveEDddeeeededvveeeeEEeeedeeeeddwwvwfeeeEEedeeeddeddvvdedeDEdeeeeeeedduveeeeDEeeedeeeddevvfeeeDEdddeeeeedduueedeEEeedddeedddvueddeDDdeeedeeddduudddeEEeddedeeeddvvedeeEDdddddededdvvdedeEEfefeeeddddvuedddEEeeeeeddddduuededDDdddeeeedddvveeeeEDddddeddddduudedeDDdddddddddduuddedEDdddddddddduuddddDDeeddddeddevuddddDEdddddddddduvdeddDDdedeeeeeddwwfffwwfffwwfffDEddedDFfffeEddeedeeddduwdfdwwdffwwfffwwdffuwfffuwfffEDedeeEEeeddddeeddfffffwwfffwwfffwufffwwfffwwfffuuffeedfeeeDDedeeddedddDDdfdwwffduwfffuuffduufffuwfffvudddeDDdffEEeeeeeededdDDfffwwfffuufffwwfffwwfffuwfffDEeeeeDDfffEEeedeeeeeddwwfffwwdffuudddwwfffuuffdwwfffEEeeeedDDfeefeddeeeeefddwwfffwwfffwwfffwwfffwwfffwwfffdedeeeEFeeeeeeeedeFFfffwwfffwwfffwwfffwwfffwwfffvveeeeFFfffEEeededeeeddFFfffwwfffwwfffwwfffwwfffwwfffEEeeeeFEeeefeeeeeeddfffwwfffwwfffwwfffwwfffwwfffwwfeeeefeefFDeeeeeeeeddFFfffwwfffwwfffwwfffwwfffwwfffEEeedeFFfffEDdeddeddeddwwfffwwfffwwfffwwfffwwfffwwfffDEededDDeeddeededdfffffwwfffwwfffwwfffwwfffwwfffvvfeddeffffEEeeeddeeeddFFdffwufffuwffdwwfffwwfffwwfffEEeddeFFfffEEddeedededdwwfffwwfffwwfffwwfffwwfffwwfffEDedeeEDeedeeedddefffffwwfffwwfffwwfffwwfffwwfffuudeeefffffEDedeeeedeeeFFfffwwfffwwfffwwfffwwfffwwfffEDeeedFFfffEDeddddeeeeewwfffwwfffwwfffwwfffwwfffwwfffDEeeddDDddddeeddddFFfffwwfffwwfffwwfffwwfffwwfffuuddddFffffDEddedddddddFFfffwwfffwwfffwwfffwwfffwwfffDDdddeFFfffddddddddddddwwfffwwfffwwfffwwfffwwfffwwfffdDddddDDddddddddddFFfffwwfffwwfffwwfffwwfffwwfffuuddddFFfffDDdddddeddddFFfffwwfffwwfffwwfffwwfffwwfffDDedddFFfddfddddddddfddwwfffwwfffwwfffwwfffwwfffwwfffddedeeDDddddddddddFFfffuwffduwfffwwfffwwfffwwfffvveeedFFfffDDdddddeddddFFfffwwfffwwfffwwfffwwfffwwfffDDedeeDFffddfddddddddeduwfffwufffwwfffwwfffwwfffwwfffEEeeedDDddddddedddFFfffwwfffuufffuwddfwwfffwwfffvuedeeFFfffDDddddddddddFFfffwwfffwwfffwwfffwwfffwwfffEDeedeFFfffddddddddddddwwfffwwfffwwfffwwfffwwfffwwffffFffffddFFffddffffffFFfffwwfffwwfffwwfffwwfffwwfffvvdfeeFFfffEEeeeeeeeeeeFFfffwwfffwwfffwwfffwwfffwwfffEEeeeeFFfeedefeeeeeefddwwfffwwfffwwfffwwfffwwfffwwfffddddefDDdddeeddeddFFfffwwfffwwfffwwfffwwfffwwfffEvddedFFfffDEeeeeeeeeeeFFfffwwfffwwfffwwfffwwfffwwfffDDdeedDEddfdeeedefedfffwwfffwwfffwwfffwwfffwwfffwwedeefedffEDeeeeedeeddFFfffwwfffwwfffwwfffwwfffwwfffEEedddFFfffEEdedeeddeedwwfffwwfffwwfffwwfffwwfffwwfffEEdeddEDedeeeeededfffffwwfffwwfffwwfffwwfffwwfffvvededfffffEDeededddddeFFfffwwfffwwfffwwfffwwfffwwfffEEeeeeFFfffEEdeeeedeeeewwfffwwfffwwfffwwfffwwfffwwfffDEeeeeDDedddddddedFFfffwwfffwwfffwwfffwwfffwwfffuuddddFFfffDDddddddddddFFfffwwfffwwfffwwfffwwfffwwfffEEedddFFfffddedddedddeewwfffwwfffwwfffwwfffwwfffwwfffdDedddDDddddddeddeFFfffwwfffwwfffwwfffwwfffwwfffuvedddFFfffDDedddddededFFfffwwfffwwfffwwfffwwfffwwfffDDddddFFfddddfddddddedfwwfffwwfffwwfffwwfffwwfffwuddddededeDDddddddddddFFfffwwfffwwfffuuffduuffduwfffuvfedeDDdffDDdddeddddddDFfffuufffwwfffwwfffuwfffwuddfDDedddFFfffDDddddddddddwwfddwwfdfwwfffuuddfwwfffwwfffEDeedeFFddfddddddfddedfwwfffuwfffwwfffuufdfwwdffuwdddDDeeddDDddddddddddDFfffuufffuwfffuwfffuufffuwfffvvdedddfdddDDdddddddddeDDfffuufffwwfffwwfffuwfdduufffvveeeeFDddfEEdddddeeeddDFfffuwfffuwfffwwfffwufffwwfffFDeeedDFfffDDfdedddeeeewwfffuuddfuwfffuudfduwfffwwfffEEeeeeEDddddddfeeddffffwwfdduwfffwufffwuffdwwfffwwfdfeeeeddEEddddddeeedFFfffuufffwwFfffuwfffuudfdwwfffuveedeDFfddDDdddddeefddFFfffuufdfwwfffuufffwufffuwfffEDeeedFFffdDDeddddddeddwwfffuwfffuuffdwwfffuwfffwwdffEEeeddDDeededdddeedffffuufdfwwfffwwfffwwfffwwfffwwfeefeefdeEDeddeddeeddFFfffwwfffwwfffwwfffwwfffwwfffEEeeedFFfffDDeeddddeeddwwfffwwfffuwfffwufdfwwfffwwfffDEedeeDDffeeeddfeeddfffwwfffuwfffwwfffwwfffwwfffwwfeeeffdefDDededddeeddFFfffwwfffwwfffwwfffwwfffwwfffEDdedeFFfffDDdeeeddddddwwfffwwfffwwfffwwfffwwfffwwfffEDedeeDDeddddeddddfffffwwfffwwfffwwfffwwfffwwfffvufdefddfffDDddddddddddFFfffwwfffwwfffwwfffwwfffwwfffDEddddFFfffDDddddddedddwwfffwwfffwwfffwwfffwwfffwwfffEEedddDDdddedededdFffffwwfffwwfffwwfffwwfffwwfffvveeeefffffDDdedddeedddFFfffwwfffwwfffwwfffwwfffwwfffEEeeeeFFfffddeeeeeeeeeewwfffwwfffwwfffwwfffwwfffwwfffEDeeddDDedeeeeedeeFFfffwwfffwwfffwwfffwwfffwwfffuueeddDDfffDDdeddddddddFFfffuuddfuwfffuwfffuwfffwwfffEDedddFFddfDDddddddddddwwffduwfffwwfffwwfffwwfffwwfffDEddddDDddddddfdddddfffwwfffuwfffuwddfuwfffuwfdfwwfffeededeDDeeddddeddeDFffdwuddduwfffwudddwwfffwwfffuuddeddffffDDddedddeeeeDDfffuwddfuwfffwwfffwwfffuwfffEEeeeeFFffdDDedeeedeedeuwfffuwfffuuddfuudddwwfffuudffEEeeffeeFFfffeeeeeeeeeeeewwfffuufffuwddfuufffwwfffuudffDEeeeeEEeeeeeeeeeeFFfffuufffwwfffuwfddwwfffwwfffwvefeefeeffEEeeeeeeeeeeDFfffuwfffuwfffuwfddwwfffuudffuveeedDFdffEEdeeeeeeeeeFFfffwwfffuwfdfwwfffuudffuwfffEEeeeeDFfffeeeeeeeeeeeewwfffwwfffuwfdfuwfffwwfffwwfffEEeeeeEEeeddeeeeeeFfffdwwfffwwfffwwfffwwfffwwfffuvddddfffffDEeedddeeddeFFfffwwfffwwfffwwfffwwfffwwfffDDeeeeFFfffdDeeedeeedeewwfffwwfffwwfffwwfffwwfffwwfffDEeeeeEEeeeeeeeedeFFfffwwfffwwfffwwfffwwfffwwfffvveeeeFffffDEeeedeeedeeFFfffwwfffwwfffwwfffwwfffwwfffDEeeddFFfffdedddedeeddewwfffwwfffwwfffwwfffwwfffwwfffdDdedeEDddddddddddFFfffwwfffwwfffwwfffwwfffwwfffuuddddFFfffDDdedddeddddFFfffwwfffwwfffwwfffwwfffwwfffDEdeddFFddfddedddfeeddfwwfffwwfffwwfffwwfffwwfffwwfffddedddDDddddeeddddFFfffwwfffwwfffwwfffwwfffwwfffvwddddFFfffFFffffffffeeFFfffwwfffwwfffwwfffwwfffwwfffFFffffFFfffffffffffffffwwfffwwfffwwfffwwfffwwfffwwfffffffffFFffffffffffFFfffwwfffwwfffwwfffwwfffwwfffFFffffFFfffFFffffffffffwwfffuuddfuufffwwfffwwfdduufffFFffffDFfdfffffffffffffwwfffuwfffuwfffuwfffwwfffuuffffFffffFFffffffffffFFfffwwffdwwfffwwfffwwfffuufffuuddedfffffDEededddededFFddfuwfddwwddfuufffuuddfwwffdEEeeddDFfffDEddddeeddeewFfffuwfffwufffwwdffuwfffwwfffDDddedFDefeedefedeefdefwwfffwwfffuufffwwfddwwfffuwfffdeddeedeDEeedddeeeeeFFfffwudffuwfffwwfffuwfffwwfffvueedeeddddEDeeeeeeefedDDdffuwfffwwfffwwfffuwfffuufffEveeeeDFfffEEeeedeededeFFfffuufddwwfffwwfffuwfffuwfffEEeedeFFfffdedddeeddeddwwfffwwfffwwfffwwfffwwfffuwfffdEeeeeEEeeeedeffeeFFfffwwfffwwfffwwfffuwfffwwfffuueeeeDDfffEEeeeedeeeedFFfffwwfffwwfffwwfffuwfffuudffEEeeedDFfffEEeeeeeeeddeuwfdfwwfffwwfffwwfffwwfffwwfffEEeeedEEeeddeeeeedfffffwwfffwwfffwwfffwwfffwwfffvveefeeffffEEeeeeeeededFFfffwwfffuwddfwwfffwwfffwwfffEEeddeFFfffDEdedeedeeeewwfffwwfffwwfffwwfffwwfffwwfffEEdddeEDedeeeeeeddFFfffwwfffwwfffwwfffwwfffwwfffuuedddfffffEDedededddddFFfffwwfffwwfffwwfffwwfffwwfffEEeeddFFfffeededeeeeeedwwfffwwfffwwfffwwfffwwfffwwfffDEdeddDDddddddedddFFfffwwfffwwfffwwfffwwfffwwfffvueeedFFfffDDddddddddddFFfffwwfffwwfffwwfffwwfffwwfffEEddeeFFfddfddedddfddddwwfffwwfffwwfffwwfffwwfffwwfffddeeddDDdeddddeedeFFfffwwfffwwfffwwfffwwfffwwfffwveedeFFfffDDddddddddddFFfffwwfffwwfffwwfffwwfffwwfffEEeeddDEfdddeedfedddfffwwfdfwwfffuudffwuddfuwffdwufffdDedddDDdedededeeeDDdffwwfffuudffwwfffuufdfwwfffvueeffeefffEEfedeeeeeddDDdffwwfffwwfffwwfffuufdduudfdEueeeeDFfffEDeededdededDDfffwufffuufffwwfffuwfffuwfffEEeeeeDDfffdddedededeeeuwfddwwfffwwfffwwfffwufddwwfffEDeeeeDDddddfdddEEeeeeeeeeeeDDdffuwfffuwddfwuddfwufffuufffuwfffeeeeeeEEeeeeeedeeeDFfffwufffwwfffuwdffuwfffuwfdfvveeeefffffEEeeeeeeeefeDffdfdddfdFFfffuwfdfddfddfdfdfwwfddDDfdddfdddFFfffFudffddfddFDdffuwfffdffdddddddEEeeeeDFfffEEeeeeefedeeDDfddddffdDDffduufdfdfddfddfffuwfffDDfdfdddfdFFfdfFDfddffdddDFfddwwfffddfdddfdddEEeeeeDEdfdeeefededdeffDDdddddffdDDddfuwfddddfddfdfffwwfffFDfdddfdfdFFfffFDddfdfdddFFfffuwfffddfdddfdfdeeeeddEEeddeeeeeeeFDfffFDfdfdddfdDFfffwufdfdfdfddffffuwddfFDfdfdfdfdDDfffDDfdfdddfdDFfffwvdfeefddffffffffffffEEeeeeeeeeddFFfffFFffffffffFFfffuuddfdfdfdfdfdfwwfffFFffffffffFFfffwwfffdfdddDDfffEDffdeFFfffFFeefeeedfdeedfeefffffFFfffFFffffdddfFFfffwwfffffffffffffwwfffFFffffffffFFfffwwfffffffffffffEEeeeeEEedeeeedeeeFFfffFFffffffffFFfffwwfffffffffffffwwfffFFffffffffFFfffFFffffffffFFfffvveeeeFffffffffffffffEEeddddeededFFfffFFffffffffFFfffwwfffffffffffffwwfffFFffffffffFFfffwwfffffffffffffEEeeedDEdfddddefdeeefffFFffffffffFFfffwwfffffffffffffwwffFDFfdfdfdfdwwfffFFffffffffFFfffuuffeeffdefffffffffffDDeeedddddeeFFfffFFffffffffFFfffwwfffffffffffffwwfffFFffffffffFFfffFFffffffffFFfffEEeeedFFfffeedddedefddfedffffffffwwfffFFffffffffFFfffwwfffffffffffffwwfffFFffffffffFFfffwwffffffffffffddfdeddDEdeeeeededdFFfffFFffffffffFFfffFwffffffffFffffwwfffFFffffffffFFfffFFffffffffFFfffEEeeeeFFfffffffffffffdeeeededffeewwfffFFffffffffFFfffwwfffffffffffffwwfffFFffffffffFFfffwwfffffffffffffEEeefeEEeeddedfeeeFFfffFFffffffffFFfffwwfffffffffffffwwfffFFffffffffFFfffFFffffffffFFfffuvedeefffffffffffffffEEedeeeeeeeeFFfffFFffffffffFFfffwwfffffffffffffwwfffFFffffffffFFfffwwfffffffffffffEEeeeeFFdefeeeefdedfeefFFffffffffFFfffFFffffffffFFfffwwfffffffffffffwwfffFFffffffffFFfffwwfffffffefffeefeefffFFedeeedeeeeFFfffFFffffffffFFfffwwfffffffffffffwwfffFFffffffffFFfffwufdfddffdDFffdEEeeeeFFfffDFfdfdfeedeeddefeeeeeeuwfffDDfdfdfdfdDFfffuwdfdddddfddfddwwfffFFffffffffDFfffwufdfdfdfdDddffDEdedeDFfedeeddfeeeefeeFDfdfdddfdFFffdFDfdfdfdfdFFffdwwfddfdfdfdddfdwwfffFDfddffdfdDDdffwufdfdfdfddffdfEEeedeEEededdddeeeFFfffDFfdfdfdfdDFddfDDdffdfdfdDDfdduufffddfdfdfdfdwwfffFDdfdffdfdFFfffuufdfdfdddddeedddedeeEEeeeeeeeeeeDFfffFDfdfdfdddDDdffDDfdfdfdfdFFfffuwffdfddfddfdfduwfffDFfdddddfdFFfffwvfdedffeddddffddffffDDeeeddeeeeeFFfffDFdddddddfwwfffDDfdfdfdfdFFfffwwfffffffffffffwwfffFDfdddfdfdDDddfEEeeeeDDddfdfdfdFDfeefeeeedeeddeewwfffwwfffwwfffwwfffuwfffuufffFFffeeFFffffffffffFFfffwwfffuwfffuwfffuwdffwwfddvveefeeffffDEeeeeeeeeeeFDfdddfdfdDFfffuwffffdddddfdfdwwfffFDdddddddfFDdffwuddfdfdfdfdddfwufffFDfdddfdddEFeeeeFFfffEEeeeeeeeeffDFfdfdfddfFFffdwwffffdfdfddffduuddfFDddfdfdddFFfffwufdfdfddddddffwwfffFDfdfdddfdeEeeeeDDdddfefeeeefeeeeDFfdfddffdDDfffuuffffDfdfdfddduwfffDDdddffdddFFfffwudddddddddfddfwwfffEEfdeefeeddffdfdEEedeeeeeeddDffffDDddddfdfdFFfffuwfffddddddddfduudfdFDfdddfdfdDDdddwufdfdfdfddddffwvFfeeefFFFfeeffefffffffffffwwuFFfffffffdwwffffffffuueeedFFfedfedeefdefddffdeffwwffffffffwwffffffffwwffffffffwwffffffffEEeeeeEDedddedededFFffffffffwwffffffffwwffffffffuwfdfdfddfvuddedFFffffffffEDeeedeeeeeewwfffffdddwufdddfdfdwwffffffffwwffffffffEueeedDDeededeeeffeeffffffffwwffffffffwwffffffffwwffffffffwwffffffffedddddDEddeedeedeeFFffffffffwwffffffffwwffffffffwwffffffffuueeddFFffffffffdeddeeeedeeewwffffffffwwffffffffwwffffffffwwffffffffDDdeddDDddddddddddFFffffffffwwffffffffwwffffffffwwffffffffuuddfddfffffffffDEddedddddddwwffffffffwwffffffffwwffffffffwwffffffffuuedddDEeddddeffddfdefffffffwwffffffffwwffffffffwwffffffffwwffffffffDDeeeeDDdeedeeededFFffffffffwwffffffffwwffffffffwwffffffffuuddddFFffffffffdDdddddddeddwwffffffffwwffffffffwwffffffffwwffffffffDDedddEDdddddddeddFFffffffffwwffffffffwwffffffffwwffffffffvvfeddddfdfddffdDDeddededdddwufdddfdfdwudffdfddfuufdfdddfduwfdfdfdfduueeeeFDdddffdddDEddeededddewwffffffffwwffffffffwwffffffffuuddfddfddDDddddDDddddddddddfdfdddfdfdwufdfddffdwuddfdfdfduuddddfdfdwuddfdfdfdDDdddeEEdeddeefedeDDfdfdfdfdwuddfddffdwufdddfdfduwdffdfdfdwwfffffffdEEddedDEeeeeedddedDDddddfddduwddfdfdfdwwffffffffuudffdfdfduveeeeffffffffffEDeedeeeeeeeuuddfddddfuudeeeeedEEeeeeeeedeeuveeeeEEdeeeeeeddeuuddfdfdddwuddddfdddwwffffffffwwfffdfdddEEeeedEEddeedeeedeDDfdfdfddduufdfddddduufdfdfdfdwuddfdfdfdwwffffffffEEdedeEDeedddedddeFFffffffffwwffffffffwwffffffffwwffffffffvuedddFFffffffffDEeeddeedfeewwffffffffwwffffffffwwffffffffwwffffffffDDddeeEEeeeeeeedeeDDdddddddduwfdddfdfdwwffffffffuufdfdfddfwufdfdfdddDEeeedEEeeedeedeeeFFffffffffwufdfdfdfdwwffffffffwuddfdfdfduudddeFfffffffffDEeddddeddddwwfdfddfdfwufdddddfdwwffffffffwwffffffffuuedddEEfedfeefddfdefddfffffwwffffffffwwffffffffwwffffffffwwffffffffDEeeddDDddddddddddFDfdfdfddfwwffffffffwwffffffffwwffffffffvudeedFFffffffffDDddddddeeddwwffffffffwwffffffffwwffffffffwwffffffffDDddddDDddddddddddFFffffffffwwffffffffwwffffffffwwffffffffwwffffddddfddfffDDddddddddddwwffffffffwwffffffffwwffffffffwwffffffffvuddddFFffddfddddffddfddfedfwwffffffffwwffffffffwwffffffffwwffffffffDEddddDDdddfddddddFFffffffffwwffffffffwwffffffffwwffffffffuuddddFFffffffffDDddedddedddwwffffffffwwffffffffwwffffffffwwffffffffDDddddDDddddddddddFFffffffffwwffffffffwwffffffffwwffffffffwwffddffedddffffDDddddddddddwwffffffffwwffffffffwwffffffffwwffffffffuuddddFFfddfddddffddfddfddffwufddffdfdwufdfdfdfdwwffffffffwwffffffffDDeeddDDddddddddddFDfdfdfdddwwffffffffwwffffffffwwfffffdddwudfddfdefffffffDDddddddddddwwfffffffdwwffffffffwwffffffffuwfdfdfdfduuedffDFfdddddfdddddfdddddddwwffffffffwwffffffffwwffffffffwufddfddfdDEfedeDDedddddddddFDddfdddfduwdddffdfduufddffdfdwudffdddfdwwffffffffeededeDDddddddddddFFffffffffwwffffffffvveeeeEEddeddeddddvvdeeeDDeeeeddddedwwffffffffwufdddfddfwwffffffffEDeeedDDededdddddeDDfdfdddfdwwffffffffwwfwwffffffffwwffffffeefeefeeDDeeddddddedwwffffffffwwffffffffwwffffffffwwffffffffuueedeFFfffffddfdeddffddddddwwffffffffwwffffffffwwffffffffwwffffffffDDdeddDEdeeddededdFDddfdfdfdwufddffdfdwwffffffffwwffffffffuufeefddffffffffDDededddddddwwffffffffwwffffffffwwffffffffwwffffffffuueedeDDdeddffddfddfdeffffffwwffffffffwwffffffffwwffffffffwwffffffffDEeedeEEdededdddedFFffffffffwwffffffffwwffffffffwwffffffffuuddddFFffffffffDEdddedededdwwffffffffwwffffffffwwffffffffwwffffffffDDeddeDDddddddddeeFFffffffffwwffffffffwwffffffffwwffffffffwudfdefddfffffffDDddddddddddwwffffffffwwffffffffwwffffffffwwffffffffvudeddDDfddddfddffddfddfffffwwffffffffwwffffffffwwffffffffwwffffffffDDddddDDddddddddedFFffffffffwwffffffffwwffffffffwwffffffffuuddddFFffffffffDDddddddddddwwffffffffwwffffffffwwffffffffwwffffffffDDddedEDdddddeededFFffffffffwwffffffffwwffffffffwwffffffffwwddfdefddffffffDDddddddddddwwffffffffwwffffffffwwffffffffwufdfdfdfduuddddDDdffdedfdddddfdddeeedwudfddfdfdwuddfdfdfdwuddddfdfdwudffdddddDDeedeDDeeddeeddddddfdfdfddduufdfdddfduuddfdddfduuddddfdfdwufdfdfdddDDededDDdededdedddFDfddffddfwufdfdfdfduuddfdddfduufdddddfduufffdfdfdDDeeddDDddddddddddFDfdfdddfduwfdfdfdfduwfdfddddfuwfdddddffuuddddfdfdDDddedDDedddeeeeddDDfdfdfddduwfdfdddfdwufdfdfdfduudddddddduuddfddddefdddfdDDdddddddddduudffdfdfduwfdddfddfwuddfddddduufdfdfdfduueeedFDddfdfdddDDddeeddddeeuwdffdddfduufdfdfddduuededDDedeeddddedvveeeeEEddddeeeeeduwfdfdfddduwfdfdfdfduwfdfdddddDDedddDDdeddddddddDDddfddddfuufddffdddwuddddfdfdwuddfddddduufdddfdfdDDdeddDDddddddddddDDfdfdddfduufdfddffduufdddfdddwuddfdfdfdwwffffffffFFddddFFddddddddddFDfdddfdfduudffddddduwddfdfddduwfdddfdfduufdddfdddddfdfdDDdddddddddduufddddddduwdffdddddwuddfdfdfduuddddfdfduuddddDDfdddfdfdDDddddddddddwwffffffffwwffffffffwwffffffffwwfffdddfdDuddddDDddddddddffddffffffffwwffffffffwwffffffffwwffffffffwwffffffffdDddddDDddddddddddFFffffffffwwffffffffwwffffffffwwffffffffuuddddFFffffffffddddddddddddwwffffffffwwffffffffwwffffffffwwffffffffDDddddDDdddddddeddFFffffffffwwffffffffwwffffffffwwffffffffuuddfddfffffffffDDddddddddddwwffffffffwwffffffffwwffffffffwwffffffffuuddddDDddddddfddfddffffffffwwffffffffwwffffffffwwffffffffwwffffffffDDddddDDddddddddddFFffffffffwwffffffffwwffffffffwwffffffffuuddddFFffffffffddddddddddddwwffffffffwwffffffffwwffffffffwwffffffffDDdeddDDddedddeeeeFFffffffffwwffffffffwwffffffffwwffffffffuuddffedffffffffDDddddddddddwwffffffffwwffffffffwwffffffffuufdfdfddfuuddddDDddddfdddddddfdddddddwufdfdfdddwufddddffduwdffdfdfduwddfdddfdDEedddDDdddddeddeefdddfdfdfdwufdfddddfuudddfddfduwfddddffduudddffdfdDDefddDDdddddddddeDDddfdfdfdwufdfdddfdwufdddddfdwufdddfdddwufddddfdfDDedddDDddddddfedeFDfdfdddfduuddddfddduwfddfdddfuufdddfddduufdddfdfdEEededDDeeffdefffdFDfdddfddduuddddddfdwufdfdfddduuddddddfdwuddfdededddddddDDedddddddedwufdddfdfdwudddfdddduwfdddfddduufdfdfdfdvveeedDDddfdfdfdEDeeddeeeedduuddfdddfdwufdfddfdfuudfdffdddwwDEeeeeEDefedeeeedevveeeeEEdeeeedeeeeuufdfdddfduufdfdfdfdEEeeeeDFeeeeeefeeeFDfdddfdfduwfddddddduwddddfdfduwfdfdfdfdwuddddfdddEEeeedEEeeddeeededDDfdfddddduuddddfdfdwuddfdfdfduwdfdfddfduwfdddfddfEEedddDDeeeededdedFDddfdfddfuufdfdfdfdwudddffdfduudffdddfduudddddddddeddeeEEedddedddedDFfdddfdfduudffdddfdwufdfddffdwufdfdddfdvudddeffffffffffDDdeeddddddewwffffffffuwdffddffduufdfdfddduwdddfdffdvuedddFFffffffddfddddfddeeeewwffffffffwwffffffffwwffffffffwwffffffffDDdddeDDdeddeddeeeFFffffffffwwffffffffwwffffffffwwffffffffvueeddFfffffffffDDeddddddddewwffffffffwwffffffffwwffffffffwwfffvudeddDDddddddddfddfffffffffwwffffffffwwffffffffwwffffffffwwffffffffddddddDEddddedddddFFffffffffwwffffffffwwffffffffwwffffffffuueeddFFffffffffedddddddddddwwffffffffwwffffffffwwffffffffwwffffffffDEeedeDDddddddddddFFffffffffwwffffffffwwffffffffwwffffffffuuddddffffffffffDDededdedddewwffffffffwwffffffffwwffffffffwwffffffffuueeedEEddddddfddfdeffffffffwwffffffffwwffffffffwwffffffffwwffffffffEDeeddDEeeeeeeddeeFFffffffffwwffffffffuwfdddfddduwfdddddfduudeddDDfdfdfdfdDDdddddedddewufdfdfdfdwuddddfdfduuddddfdfduufdfddddduuedddDFfdfdfdfdDDdddddddddduufddddffduuddfdfddfuudffdfddduudddffdfdvvdeddFDfdddddfddddeddfdddddwufdfdfdfdwuddfdfddfuuddfdfddduufdfdddfdDDddedEEedddeeddeedffdfdfddduwfdddfdfduufdfddddduwfdfdfdddwufdfdfddfDDeedeDDddddddddeeDDfdddfdfdwuddddfdddwufdfdddddwufdddfdfduuddddddfdDDdddeDDeddeddddddFDfdddfdfdwufdddddfduwfdddfddfuwfdfdddfduufdddfdddEEddddDEededddeeeeDFfdfdddfduwfdddddfduufddddddduufdfdfddduuDeeeeEEeeededddedvveeeeEEdeeedeeeeeuwfdddfdfdvveeeeFDfdfdddfeedeeeeeeefeeuuddddfddfuwfddddffduwdddddddduuddfdddddvveedeEEeeeeddeddedfddddfdfdwuddddddfduwddddfdddwufdfddddduuddfdfdfdEDdeeeEDeeeeeedeeeFDfdddfddduufdfdddfdwuddfddddduudffddffduwfdfddffdDDedeeEEeeedeeeeeeFDfdfdfddduudffdfdfdwufddfdffduwdffdfdfduufdfdfdfdeedeeeDDeeddedeeedFFffffffffwwffffffffwwffffffffwwffffffffuvdeeeFFffffffffedeedededeeewwffffffffwwffffffffwwffffffffwwffffffffEEeeeeEEedeeeedeedFFffffffffwwffffffffwwffffffffwwffffffffuvdeeeffffffffffEEdedddedeeewwffffffffwwffffffffwwffffffffwwffffffffvuedeeDDeeedeefdefeeffffffffwwffffffffwwffffffffwwffffffffwwffffffffEDdeeeEDeedeeedeeeFFffffffffwwffffffffwwffffffffwwffffffffuveeddFFffffffffedeeedeeeeeewwffffffffwwffffffffwwffffffffwwffffffffEDededEDeddddddeeeFFffffffffwwffffffffwwffffffffwwffffffffvuedffdeffffffffEEddededeeeewwffffffffwwffffffffwwffffffffwwffffffffvvdddeEEededfeefdefeefffffffwwffffffffwwffffffffwwffffffffwwffffffffEEeeddEDdeeddedeeeFFffffffffwwffffffffwwffffffffuudddddfdfvvedeeFDfdddddfdDEddefdeeeeeuwfdddfddduufdfdfdddwufddffdddwufdddfdfduvdeddFDfdfdfdfdeeeeeeedeeeduufffdfdfduufdddfdfdwufdddddfduuddfddffdvveeeeEEeedddfeefddeddedfdfduwfdddddddwuddddfdfduufddddffduuddfddddfDDeeedEEedddedddeeDDddddddfduuddfdddfduwfdfddddfuwfdfdfdddwufdfdfdfdEDeeeeEDeeedeeeeeeFDfdddfdfdwuddfddffduuddfdddfduuddfddddduuddfdfdddEEdedeDDeedeeeeeeeFDfdfddfddwufdfdddfdwwfdfdfdddwufdfdfdfdwufdddddddfeeeeeDEdeeeedeeedDFfdfddddduwfdddfdfdwufdddfdddwuddfdddfduwfEDedeeEEddeeeeeeeevveedeFDeeeedeeeddwuddfdddfdvvdeeeFDdffefeedfdddeefdeeeewuddddddfduuddddfdfdwufdfdfdfdwufdddfdddEDeedeDEefdddfeeefddfdfdfddduufdfdfdddwuddfdfdfduufdfdfdfduwfdddfdfdEEeedeEEeeeefeedeeFFffffffffwwfffffffdwwffffffffwwffffffffwwefeeffffffffffEDdeddeeedeewwffffffffuufddffdfdwwffffffffwwffffffffuvededFFffeedefedfedfddffeefwwffffffffwwffffffffwwffffffffuwfdfddffdDDddeeEEdedeedeeedFFdffdfddfwudffdfdfdwufdfdddfdwufdfddfdfwufdddfdfddeedddEDeeeeeeeeedFDfdfdfdddwwffffffffwwffffffffwwffffffffuuddddFFffffffffDDededeeddedwwffffffffwwffffffffwwffffffffwwffffffffEEdeddDDeeedededddFFffffffffwwffffffffwwffffffffwwffffffffwwddddffeeffffffDDddddeedeedwwffffffffwwffffffffwwffffffffwwffffffffuudddeDDfddfddddffddfdefffffwwffffffffwwffffffffwwffffffffwwffffffffDDddddDDddddddddddFFffffffffwwffffffffwwffffffffwwffffffffuuddddFFffffffffddeedededdeewwffffffffwwffffffffwwffffffffwwffffffffDDddddEEdddeddddddFFffffffffwwffffffffwwffffffffwwffffffffuuffdfedffffffffEDdddddededdwwffffffffwwffffffffwwffffffffuudfdffdfduueeddDDddddfdddeefddefdeeedwufdfdfdfdwufdddfddduufdfdddfduwfddddffdEDededDDddddddddddfddfddddddwuddfdddfdwwffffffffwuddfdfddduuddfdddfdEDeeddEEdddddddeedDDddddfdfdwufdddfdfdwufdfdddfdwuddddfdfduwddfdfdddDDeeddDDdeddddddddDFfdfdfdfduuddddddfduufdfddddduuddddfddduufffedfddfdfddfDDedddddDEdduuddfdfdddwufdfdddfdwufdddfdfdwudfdddfdduufdddEDddedddddfeddfdddfdfduwfdddddfdwwfdfdfdddwufdfdddfdwuddfdfdfdDEeeedEEdddddddeedDDdddddffdwuddddddddwufdfdfdddwudddfdffduuddfdfdfdDEeeeeEEdeeedeeeeeuveeeeDEdeddddedeewwffffFDfdddfdfdFFffffffffffuwdddffdfduuddfdddfdwuddfdddfduuddfdddfdwwffffFDddfdddfdFFffffffffffwuddddfddduwfdfdfdfduufdfddddduwddddfdfduueddeFFddfedfdefedfddfedfffwwffffffffwwffffffffwwffffffffuudffdfdddEDeedeDDeeddddddddFFffffffffwwffffffffuudfdffdfduwfdddfdddwueedeefddfdddfdDDddddedddddwwffffffffwwffffffffwwffffffffwwffffffffuudddeFFfeefedeeffdefedfedffwwfffdfdfdwwffffffffwwffffffffwwffffffffDDdeddEDeeeeedddeeFFffffffffwwffffffffwwffffffffwwffffffffuuddddFFffffffffDDddededdeedwwffffffffwwffffffffwwffffffffwwffffffffDDdddeEDedededddddFfffffffffwwffffffffwwffffffffwwffffffffwwffffffddfdefddEDdddedddeddwwffffffffwwffffffffwwffffffffwwffffffffuueeeeFFfffffddfdddeffddddeewwffffffffwwffffffffwwffffffffwwffffffffEDdddeDEddddddddeeFFffffffffwwffffffffwwffffffffwwffffffffuveeddFfffffffffEDdedeeddeddwwffffffffwwffffffffwwffffffffwwffffffffDEeedeDDeeeeddededffffffffffwwffffffffwwffffffffwwffffffffwwffffffffffffddDEdeeeedeeedFFffffffffwwffffffffwwffffffffwwffffffffvveeddFFfffffffdefddeddededduudddfdffdwufdddfdfdwufdfdfddduwfdfdddfdEEdeeeEEeefeddeefeffffffffffwwffffffffwufdfdfdddwufdfdfdfduwfdfddffdEFffffDEedddddddeeDDfdddfdfduwfdddfdddwuddfdddfdwudddddffdwuddddfddfeefeefEFddddeeeeddFDfdfdfdfdwuddfdfdfdwufdfdddfdwufdfdddfduveeddfdfdfdfdddEEddddddeddduwfdfdfddfwufdfdfddduudffdddddwudfddfdfdvudeddFDfdfdddfdEDdddeedeeeewufddddffduwfdddfddduufdddfddduuddfdddfduveeeeDDddddfdfedeeeeeeeefeeuuddfdfddduuddfdddfdwufdfdfdfduwddddfddfvveeeeEEeeedeeddeeddeedffdfduvdeeeEEeeeeeeddefvveeeeEEeeeefeddeeFDfdfdddfdwufdfdddfduufdfdfdddwwffffffffuwdfeeedfdddfdfdEEeeeeeeeeeewwffffffffwwffffffffwwffffffffwwffffffffuueedeFFffdefedfeefeefeeffefwwffffffffwwffffffffwwfffdfdddwwffffffffEEeddeEEeeddeeedddFFffffffffwufddddffdwufdfddffduuddfdfdfdwwfffeefeefedfffDEeedeeedeeewudddfdfdfwwffffffffwwffffffffwwffffffffvudeeeFFffffffdeeefdefededeewwffffffffvvefedEDeeeedeeeddvudedeDEedddeedeeeuueeeeEEdeeeeddfeevveeedDFeeeeeeeefevveeeeFDeeededefffvvdeeeDDeedeeddddevvdedeEEeeeedfeeeevuefedDEefeeddeddevwedeeEDddeddeeeedvueeedEEdeeeeeddfeuueefdEEfdfeeeddfevvdeeeEEeeeeeeeedfuveeefEEefddeddddeuveeeeEDeeedeeeeeevufeeeEEdedeeededduveedeEEdddeeeeeeeuuffEFfeeeEFeeeedfdffevveeeeFFefeedeeefewwfeeeFEeeeeeeeeeevwedeeDEeeddeeededvweeeeEEeeedfeeeedvvdeeeEEeeeeeeeddevueeedDEeeeeedeeeduvfedeEDedeeefeeeeuvdfeeEFdeeedeededvveeeeEEdeedeeeeeeuufeeeEEedededeedeuveeedEDededdeedeevveeedEFeeeeeeeedevveeefEDeeeeeeedeevveedeEEfdeeeeeeeevveeddEDeeeeeeeedevvfeeeEEeeeeeeeeeevveeeeFEeeeeeeefeevveeeeFDeedeeeeeeewveeeeEEeeedeeeeeevvfeeeEEeefeeeeeeewvfeeeDEdddefeeefevvdedeEEddeeeeeeeevvedeeFFeeefeeeeeewveeeeDEefeeeefeefvveeeeEEeeefeeeeeewvffefEEeffeefeeeevveeeeEEeeeeddedeevvdeeeEEfeeeeedeeevvfefeDDddfdefeeedvvdfefEEdeefeeeeeeuvfefeDEedeeeeeeeeuveeeeEEeeededeeeeuveddeDEeeeedefeffvveeefEDfeeeeeeeeevvdeeeEDeedefeedeevvededEEeeeeeeeeeevveeeeEEeeeeeeeeeeuweeefEEeeeeedeedevvffdeEEeeeeeeeeeevveeeeEEeefeeeedeevueeeeEEeeeeededdevveeeeEEdeeeeedddevufefeEFeeeddeeeeevvefeeFEedefffeedevvedeeEEefeeeeeefevveeeeEEeeeedeeeeevveeddEDeeeeeeeeeeuvEeeeeEEfeefddeeeevveeeeFFEEuueeeeEEeeeeeeeeeevveeeeEEdedededeeeuuddddEDdeeeeedeeduueeddDDdddddddddevudeddDEdddddddeeduuddddDDdddddddddduuddddDDdddddddddduvddddDDdddddddddduuddddEDdeeedddddduuddddDDddddffddeduuddddDDddedddedddvueddeDDdddddeededvueeddEDddeddeeeedvveeddDEddeeedeeeeuvddedDEdeeddeeeeevvdddeDEeeeeddeeddvveeeeDEeeddedeeeevueeeeEEeededeeeeeuueeddDEeedeeeeeeeuueeeeDEeddddddedevveeeeEFeeedeeedeeuveeedEEedeefeeeeeuvEeeeeFDfeeedeeeeevvefeeEEfeedeeeeefvvefeeEEeeeeeeeeefuudeeeEEdddeedddeeuuddedEEedeedeededuveeedDFedeeddeddeuvedeeDDdddeedeeeeuudedeEDdddddededevueddeDEdddddedddduvddddDDddddddeeddvuddddDEeeededdeddvvdeddEEddededeeeduvdddeDDdefdeeedeeuueeedDEeddeedeedduuddeeEDeededdeeddvveeddEDddeeedddddvvefeeEEedeeeeeeddvvddedDDddddeedddevveeedDDeeddddddeevveeeeEEeeeedededevveeefDDeeedddeddduuddddEDedeedddddeuueedeDDddddeddedduueeddEEeeeeddddedwwDDeddeEEeeeeffffffuveeddEDedddeeeedevveeeeDEeeeddeddeevvedeeEDeedeeeeddeuuedddDEddeddeedeevvddedDEdddddddddduueeeeDEdddddddddeuvdeddEEddeddedddduvddeeDDddddeddedeuueeddEEdddeeeeeeevveeeeEEeefeeeeeeevveeeeEEeeeeeeeeeevveeeeEEdfeeeeeeeevvfeefFFffefefefeevveeeeFEeefeeeeeefvveeeeEFeefefeeeeevveeeeFFffffefefefwwffefFEefffeffeffvwffefFFfefeeeeeeewvfffeFEfeeeeffeffwweeffFEfeffeeeeefvveeeeEFeeeeefeeefvvfefeEFffeeefeeefwvffffFEfefeeffeeewwfefeFFefffeefeeewwffffFFefeefeffffwwffefFFfffffffffewwffeeEFeeefeeeeeevweefeEFeefefeefefvvfeffEEfeeeeeeeeevvefeeEFeeefeeefefwveefeEEeeeeeeeeeevveeffEEeeeeeeeeeevveeeeEEeeffeeeeffvveeeeEEeeeeeeeeeevveeeeEEeeeeeeefeevveeeeEEeeeeeffeeevveeeeEEeeeefefeeevweeeeEEefeeeefeeewvfefeEEeefeeeeefewvefffEFeefeffeeffwwffffFFfffdeeffffvwefeeFFddffddefddwvfeefFEfeffddfeeewwffffDDddffddddffwwffffFFffffddddffwwffffDDddddffffffwwffffFFeeddefddfewvffffEFfffdfefeeevweeffFEffeeffeeffwwfefeEEefffffffffwwffeeFFfeeefefeffwwfeefFFeeeeeeeeeevvefeeEEeeffeeeeeevvefeeEEefeeeeeeeevvdeeeEEeeeeeeeeeevveeeeEEeeeeeeeeeeuuddddDDeedeeeedeevveeeeEEeeeeeeeeeevveeeeEEeeeeeeeeeevveeeeEEeeeeeeeeeevvefeeEFeeeefeeeeevweeffEEffefeeeeeevveeeeEEefeeeeeeefwveeeeEEeefefffefevveeeeEEeeefffffefvvffffFEeefeddddddwweeeeEEffededefeevveeeeEEfefffeeeedvwfeefEEeeddeeeeeevveeeeEEefddfffefewvffffFEeeeefeeefewvefffEEeeeffeffffwweeefFEeffffeeefevvffeeEFffffeefeffvveeffEEffeeeeeeeevvffeeEEeeefefeeefvveeeeEFeeefeeefeevvfeeeEFeeeeedeeeevveeeeFFeeeeeeeeeeuuddddDDeddddddddduuedddDDedddeeeeeeuueedeEEddeeeeedddvveeeeEEeeeeeeeeevveeeeFEeeeeeeeeeevweeeeEEeeeeefeeeevveedeEEefeeeeeffevvefeeEEeeeefefefevveeefFEeffffffeefwvfeeeFFeeeeeeefffwwfeefEEefeeddeefdwvffffDDeffeddffefwweffeFFeffffeffefwvfffeFFfffffefeffvvfeeeEEffedfffffewwffefFFfeeffffffevwffffFEffffeefeffwvffffFFffffffeeffwwfeffFFffffffffffvvffefEFeffefefeffwvfeffFEefeeffefffwvfffeEEeeeffefefewveefeEEeeeeeeeeeevveeeeEEeeeefeeeeevveeeeEEdddeddedeeuueddeDDddddeeeddduveeeeDEdeeddddeeevveeeeEEeeeeeeeeeevvfeeeFEeefefeeeeevveeeeEEeefefeffeevveeefEEfeeefeeeeevveeeeEEeeefefefee0wwfefeEFeeeeeefeeewwffeeFFeeeeefeffevwefeeFFeefffeffeewvffeeFFeeffffefffwwfffeEDfefefeeeeevvfeefEEfffffeffffwwefeeFFeffeefffefwwffffFFfeffffffffuuFFefffFFeeffeffffewweeeeEFffeeddefffvwfeffEEeeffeefedfvweefeFFffffeeefeewwffeeEFfeefffefeevweeeeEEeeeeefeeeewwefefEEfeddeeeeeevveeefEEeeeefeeeefuvddddEEeeeeeeeeeevveeeeDDdddeeddddevvfefeEEeefeeefefewweeefEEeeeeeefeeevveeffFEefeeffeefevwffeeFFeeefefeefevvefeeFFeeffeeefeevveeeeFEeeeeeffefevvfefeFFeffeefeefevvffefFEeffeefddfewvffeeEFeffeeefeefwwefefEEfeeefeffffwwffffEFfeddeefffevwefefEEeeefeeeeffvwffffFEefefefffffvvfeefFEeeefffffeeuvFffeeFFfeffeff'
.(lp1
(F375.86548599999998
F0.259822
tp2
a(F0.0096860000000000002
F681490.97252099996
tp3
a.cnumpy.core.multiarray
scalar
p1
(cnumpy
dtype
p2
(S'f8'
I0
I1
tRp3
(I3
S'<'
NNNI-1
I-1
I0
tbS'\x1eO\x11IV\xa6\x8a?'
tRp4
.F0
.