ccopy_reg
_reconstructor
p1
(cpykov
Vector
p2
c__builtin__
dict
p3
(dp4
S'9'
F4.1035742131396446e-05
sS'G'
F0.0018876441380442366
sS'g'
F0.79231810907300271
sS'f'
F0.00041035742131396448
sS'I'
F0.00094382206902211829
sS'h'
F0.0027083589806721651
sS'F'
F8.2071484262792892e-05
sS'0'
F0.00053346464770815381
sS'z'
F0.0017235011695186507
sS'7'
F4.1035742131396446e-05
sS'y'
F0.00090278632689072178
sS'x'
F0.19574048996676105
sS'w'
F0.00012310722639418932
sS'i'
F0.0025442160121465795
stRp5
.ccopy_reg
_reconstructor
p1
(cpykov
Chain
p2
c__builtin__
dict
p3
(dp4
(S'0'
S'i'
tp5
F0.76923076923076927
s(S'G'
S'f'
tp6
F0.021739130434782608
s(S'g'
S'I'
tp7
F0.0009840480629790759
s(S'G'
S'G'
tp8
F0.19565217391304349
s(S'z'
S'y'
tp9
F0.023809523809523808
s(S'y'
S'g'
tp10
F0.36363636363636365
s(S'h'
S'i'
tp11
F0.015151515151515154
s(S'x'
S'G'
tp12
F0.0027253668763102725
s(S'x'
S'x'
tp13
F0.49350104821802937
s(S'x'
S'f'
tp14
F0.00020964360587002095
s(S'G'
S'x'
tp15
F0.2608695652173913
s(S'z'
S'0'
tp16
F0.047619047619047616
s(S'0'
S'x'
tp17
F0.076923076923076927
s(S'I'
S'g'
tp18
F0.086956521739130432
s(S'i'
S'0'
tp19
F0.16129032258064518
s(S'f'
S'I'
tp20
F0.19999999999999998
s(S'h'
S'x'
tp21
F0.045454545454545463
s(S'z'
S'z'
tp22
F0.023809523809523808
s(S'g'
S'G'
tp23
F5.1792003314688206e-05
s(S'w'
S'z'
tp24
F0.33333333333333337
s(S'h'
S'g'
tp25
F0.93939393939393945
s(S'x'
S'y'
tp26
F0.0014675052410901466
s(S'x'
S'g'
tp27
F0.49811320754716981
s(S'f'
S'F'
tp28
F0.19999999999999998
s(S'z'
S'G'
tp29
F0.19047619047619047
s(S'y'
S'x'
tp30
F0.63636363636363635
s(S'z'
S'f'
tp31
F0.023809523809523808
s(S'w'
S'f'
tp32
F0.33333333333333337
s(S'I'
S'w'
tp33
F0.043478260869565216
s(S'g'
S'z'
tp34
F0.0019680961259581518
s(S'I'
S'G'
tp35
F0.56521739130434778
s(S'G'
S'g'
tp36
F0.52173913043478259
s(S'f'
S'i'
tp37
F0.099999999999999992
s(S'x'
S'h'
tp38
F0.0025157232704402519
s(S'i'
S'x'
tp39
F0.080645161290322592
s(S'g'
S'h'
tp40
F0.0027967681789931634
s(S'g'
S'g'
tp41
F0.86958773565361491
s(S'7'
S'0'
tp42
F1
s(S'f'
S'f'
tp43
F0.39999999999999997
s(S'z'
S'g'
tp44
F0.071428571428571438
s(S'f'
S'x'
tp45
F0.099999999999999992
s(S'g'
S'y'
tp46
F0.00072508804640563479
s(S'i'
S'g'
tp47
F0.70967741935483875
s(S'i'
S'G'
tp48
F0.032258064516129031
s(S'x'
S'i'
tp49
F0.0014675052410901466
s(S'0'
S'z'
tp50
F0.15384615384615385
s(S'F'
S'i'
tp51
F0.5
s(S'g'
S'i'
tp52
F0.0021752641392169046
s(S'I'
S'x'
tp53
F0.21739130434782608
s(S'w'
S'w'
tp54
F0.33333333333333337
s(S'z'
S'x'
tp55
F0.61904761904761907
s(S'g'
S'x'
tp56
F0.1216594157862026
s(S'i'
S'I'
tp57
F0.016129032258064516
s(S'I'
S'f'
tp58
F0.086956521739130432
s(S'g'
S'w'
tp59
F5.1792003314688206e-05
s(S'9'
S'7'
tp60
F1
s(S'F'
S'I'
tp61
F0.5
stRp62
(dp63
S'_guess'
p64
g1
(cpykov
Vector
p65
g3
(dp66
S'9'
F4.1035742131396446e-05
sS'G'
F0.0018876441380442366
sS'g'
F0.79231810907300271
sS'f'
F0.00041035742131396448
sS'I'
F0.00094382206902211829
sS'h'
F0.0027083589806721651
sS'F'
F8.2071484262792892e-05
sS'0'
F0.00053346464770815381
sS'z'
F0.0017235011695186507
sS'7'
F4.1035742131396446e-05
sS'y'
F0.00090278632689072178
sS'x'
F0.19574048996676105
sS'w'
F0.00012310722639418932
sS'i'
F0.0025442160121465795
stRp67
sb.S'970z0z0i0i0i0i0i0i0i0i0i0i0xxggggggggxxggggggggxxggggggggxxggggggggxxggggggggxxggggggggIGxggggggggxxggggggggxxggggggggxxggggggggxxggggggggxxggggggggxxggggggggxxggggggggxxggggggggxxggggggggxxggggggggxxggggggggxxggggggggxxggggggggxxggggggggxxggggggggxxggggggggxxggggggggxxggggggggxxggggggggxxggggggggxxggggggggxxggggggggxxggggggggxxggggggggxxggggggggxxggggggggxxggggggggxxggggggggxxggggggggxxggggggggxxggggggggxxggggggggxxggggggggxxggggggggxxggggggggxxggggggggxxggggggggxxggggggggxxggggggggxxggggggggxxggggggggxxggggggggxxggggggggxxggggggggxxggggggggxxggggggggIxxggggggggxxggggggggxxggggggggxxggggggggxxggggggggxxggggggggxxggggggggxxggggggggxxggggggggxxggggggggxxggggggggxxggggggggxxggggggggxxggggggggxxggggggggxxggggggggxxggggggggxxggggggggxxggggggggxxggggggggxxggggggggxxggggggggxxggggggggxxggggggggxxggggggggxxggggggggxxggggggggxxggggggggxxggggggggxxggggggggxxggggggggxxggggggggxxggggggggxxggggggggxxggggggggxxggggggggxxggggggggxxggggggggxxggggggggxxggggggggxxggggggggxxgggghgggxyggggggggxxggggggggxxggggggggxxggggggggIGxggggggggxxggggggggxxggggggggxxggggggggxxggggggggxxggggggggxxggggggggxxggggggggxxggggggggxxggggggggxxggggggggxxggggggggxxggggggggxxggggggggxxggggggggxxggggggggxxggggggggxxggggggggxxggggggggxxggggggggxxggggggggxxggggggggxxggggggggxxggggggggxxggggggggxxggggggggxxggggggggxxggggggggxxggggggggxxggggggggxxggggggggxxggggggggxxggggggggxxggggggggxxggggggggxxggggggggxxggggggggxxggggggggxxggggggggxxggggggggxxggggggggxyggggggggxxggggggggxxggggggggzzfFiGggiIwwfIfIGfffFIfxxggggggggxxggggggggzxGgggggighxxggggggggxxggggggggxxggggggggxxggggggggxxggggggggxxggggggggxxggggggggxxggggggggxxggggggggxxggggggggxxggggggggxxggggggggxxggggggggxxggggggggxxggggggggxxgghgggggxxggggggggxxggggggggxxggggggggxxggggggggxxggggggggxxggggggggxxggggggggxxggggggggxxggggggggxxggggggggxxggggggggxxggggggggxxggggggggxxggggggggxxggggggggxxggggggggxxggggggggxxggggggggxxggggggggxxggggggggxxggggggggxxggggggggxxggggggggxxggggggggxxggggggggxxggggggggxxggggggggxxggggggggxxggggggggzxGggggggggxxggggggggxxggggggggxxggggggggxxggggggggxxggggggggxxggggggggxxggggggggxxggggggggxxggggggggxxggggggggxxggggggggxxggggggggxxggggggggxxggggggggxxggggggggxxggggggggxxggggggggxxggggggggxxggggggggxxggggggggxxggggggggxxggggggggxxggggggggxxggggggggxxggggggggxxggggggggxxggggggggxxggggggggxxggggggggxxggggggggxxggggggggxxggggggggxxggggggggxxggggggggxxggggggggxxggggggggxxggggggggxxggggggggxxggggggggxxggggggggxxggggggggxxggggggggxxggggggggxxggggggggxxggggggggxxggggggggxxggggggggxxggggggggzgxggggggggxxggggggggxxggggggggxxggggggggxxggggggggxxggggggggxxggggggggxxggggggggxxggggggggxxggggggggxxggggggggxxggggggggxxggggggggxxggggggggxxggggggggxxggggggggxxggggggggxxggggggggxxggggggggxxggggggggxxggggggggxxggggggggxxggggggggxxggggggggxxggggggggxxggggggggxxggggggggxxggggggggxxggggggggxxggggggggxxggggggggxxggggggggxxggggggggxxggggggggxxggggggggxxggggggggxxggggggggxxggggggggxxggggggggxxggggggggxxggggggggxxggggggggxxggggggggxxggggggggxxggggggggxxggggggggxxggggggggIxxggggggggxxggggggggxxggggggggxxggggggggxxggggggggxxggggggggxxggggggggwzggggggggxxggggggggxxggggggggxxggggggggxxgggghgggxxggggggggxxggggggggxxggggggggxxggggggggxxggggggggxxggggggggxxggggggggxxggggggggxxggggggggxxggggggggxxggggggggxxggggggggxxggggggggxxggggggggxxggggggggxxggggggggxxggggggggxxggggggggxxggggggggxxggggggggxxggggggggxxggggggggxxggggggggxxggggggggxxggggggggxxggggggggxxggggggggxxggggggggxxggggggggxxggggggggxxggggggggxxggggggggxxggggggggxxggggggggIGxggggggggxxggggggggxxggggggggxxggggggggxxggggggggxxggggggggxxggggggggxxggggggggxxggggggggxxggggggggxxggggggggxxggggggggxxggggggggxxggggggggxxggggggggxxggggggggxxggggggggxxggggggggxxggggggggxxggggggggxxggggggggxxggggggggxxggggggggxxggggggggxxggggggggxxggggggggxxggggggggxxggggggggxxggggggggxxggggggggxxggggggggxxggggggggxxggggggggxxggggggggxxggggggggxxggggggggxxggggggggxxggggggggxxggggggggxxggggggggxxggggggggxxggggggggxxgghgggggxxggggggggxxggggggggxxggggggggxxggggggggxxggggigggIGxggggggggxxggggggggxxggggggggxxggggggggxxggggggggxxggggggggxxggggggggxxggggggggxxggggggggxxggggggggxxggggggggxxggggggggxxggggggggxxggggggggxxggggggggxxggggggggxxggggggggxxggggggggxxggggggggxxggggggggxxggggggggxxggggggggxxggggggggxxggggggggxxggggggggxxggggggggxxggggggggxxggggggggxxggggggggxxggggggggxxggggggggxxggggggggxxggggggggxxggggggggxxggggggggxxggggggggxxggggggggxxggggggggxxggggggggxxggggggggxxggggggggxxggggggggxxggggggggxxggggggggxxggggggggxxggggggggzGGggggggggxxggggggggxxggggggggxxggggggggxxggggggggxxggggggggxxggggggggxxggggggggxxggggggggxxggggggggxxggggggggxxggggggggxxggggggggxxggggggigzxggggggggxxggggggggxxggggggggxxggggggggxxggggggggxxggggggggyxggggggggxxggigggggxxggggggggxxggggggggxxggggggigxxggggggggxxggggggggxxgghgggggxxggggggggxxggggggggxxggggggggxxggggggggxxggggggggxxggggggggxxggggggggxxggggggggxxggggggggxxggggggggxxggggggggxxggggggggxxggggggggxxggggggggxxggggggggxxggggggggxxggggggggxxggggggggxxggggggggxxggggggggxxggggggggxxggggggggIGxggggggggxxggggggggxxggggggggxxggggggggxxggggggggxxggggggggxxggggggggxxggggggggxxggggggggyxggggggggxxggggggggxxggghggggxxggggggggxxggggggggxxggggggggxxggggggggxxggggggggxxggggggggxxggggggggxxggggggggxxhgggggggxxggggggggxxggggggggxxggggggggxxggggggggxxggggggggxxggggggggxxggggggggxxggggghggxxggggggggyxggggggggxxggggggggxxggggggggxxggggggggxxigggggggxxggggggggxxggggggggxxggggggggxxggggggggxxggggggggxxggggggggxxggggggggxxggggggggxxggggggggxxggggggggxxggggggggzxGggggggggxxggggggggxxggggggggxxggggggggxxggggggggxxggggggggxxggggggggxxggggggggxxggggggggxxggggggggxxggggggggxxggggggggxxggggggggxxggggggggxxggggggggxxggggggggxxggggggggxxggggggggxxggggggggxxggggggggxxggggggggxxggggggggxxggggggggxxggggggggxxggggggggxxggggggggxxggggggggxxggggggggxxggggggggxxggggggggxxggggggggxxggggggggxxggggggggxxggggggggxxggggggggxxggggggggxxggggggggxxggggggggxxggggggggxxggggggggxxggggggggxxggggggggxxggggggggxxggggggggxxggggggggxxggggggggxxggggggggxxggggggggxxggggggggixxggggggggxxggggggggxxggggggggxxggggggggxxggggggggxxggggggggxxggggggggxxggggggggxxggggggggxxggggggggxxggggggggxxggggggggxxggggggggxxggggggggxxggggggggxxggggggggxxggggggggxxggggggggxxggggggggxxggggggggxxggggggggxxggggggggxxggggggggxxggggggggxxggggggggxxggggggggxxggggggggxxggggggggxxggggggggxxggggggggxxggggggggxxgghgggggxxggggggggxxggggggggxxggggggggxxggggggggxxggggggggxxggggggggxxggggggggxxggggggggxxggggggggxxggggggggxxgggghgggxxggggggggxxggggggggxxggggggggxxggggggggxxggggggggzGGggggggggxxggggggggxxggggggggxxggggggggxxggggggggxxggggggggxxggggggggxxggggggggxxggggggggxxggggggggxxggggggggxxggggggggxxggggggggxxggggggggxxggggggggxxggggggggxxggggggggxxggggggggxxggggggggxxggggggggxxggggggggxxggggggggxxggggggggxxggggggggxxggggggggxxggggggggxxggggggggxxggggggggxxggggggggxxggggggggxxggggggggyxggggggggxxggggggggxxggggggggxxggggggggxxggggggggxxggggggggxxggggggggxxggggggggxxggggggggxxggggggggxxggggggggxxggggggggxxggggggggxxggggggggxxggggggggxxggggggggzGGggggggggxxggggggggxxggggggggxxggggggggxxggggggggxxggggggggzxggggggggxxggggggggxxggggggggxxggggggggxxggggggggxxggggggggxxggggggggxxggggggggxxggggggggxxggggggggxxggggggggxxggggggggxxggggggggxxggggggggxxggggggggxxggggggggxxggggggggyxggggggggxxggggggggxxggggggggxxggggggggxxggggggggxxggggggggxxggggggggxxggggggggxxggggggggxxggggggggxxggggggggxxggggggggxxggggggggxxggggggggxxggggggggxxggggggggxxggggggggxxggggggggxxggggggggxxggggggggxxggggggggxxggggggggxxggggggggxxggggggggxxggggggggxxggggggggxxggggggggIxxggggggggxxggggggggxxggggggggxxggggggggxxggggggggxxggggggggxxggggggggxxggggggggxxggggggggxxggggggggxxggggggggxxggggggggxxggggggggxxggggggggxxggggggggxxggggggggxxggggggggxxggggggggxxggggggggxxggggggggxxggggggggxxggggggggxxggggggggxxggggggggxxggggggggxxggggggggxxgggggghgxxggggggggxxggggggggxxggggggggxxggggggggxxggggggggxxggggggggxxggggggggxxggggggggxxggggggggxxggggggggxxggggggggxxggggggggxxggggggggxxggggggggxxggggggggxxggggggggxxggggggggxxggggggggxxggggggggIGxggggggggxxggggggggxxggggggggxxggggggggxxggggggggxxggggggggxxggggggggxxggggggggxxggggggggxxggggggggxxggggggggxxggggggggxxgggggghgxxggggggggxxggggggggxxggggggggxxggggggggxxggggggggxxggggggggxxggggggggxxggggggggxxggggggggxxggggggggxxggggggggxxggggggggxxggggggggxxggggggggxxggggggggxxgghgggggxxggggggggxxggggggggxxggggggggxxggggggggxxggggggggxxggggggggxxggggggggxxggggggggxxggggggggxxggggggggxxggggggggxxggggggggxxggggggggxxggggggggxxggggggggxxggggggggxxggggggggxxggggggggxxggggggggxxggggggggzxGggggggggxxggggggggxxggggggggxxggggggggxxggggggggxxggggggggxxggggggggxxggggggggxxhgggggggxxggggggggxxggggggggxxggggggggxxgghgggggxxggggggggxxggggggggxxggggggggxxggggggggxxggggggggxxggggggggxxggggggggxxggggggggxxggggggggxxggggggggxxggggggggxxggggggggxxggggggggxxggggggggxxggggggggxxggggggggxxggggggggxxggggggggxxggggggggxxggggggggxxggggggggxxggggggggxxggggggggxxggggggggxxggggggggxxggggggggxxggggggggxxggggggggxxggggggggxxggggggggxxggggggggxxggggggggxxggggggggxxggggggggzxGggggggggxxggggggggxxggggggggxxggggggggxxggggggggxxggggggggxxggggggggxxggggggggzxggggggggxxggggggggxxggggggggxxggggggggxxggggggggxxggggggggxxggggggggxxggggggggxxggggggggxxggggggggxxggggggggxxggggggggxxggggggggxxggggggggxxggggggggxxggggggggxxggggggggxxggggggggxxggggggggxxggggggggxxggggggggxxggggggggxxggggggggxxggggggggxxggggggggxxggggggggxxggggggggxxggggggggxxggggggggxxggggggggxxggggggggxxggggggggxxggggggggxxggggggggxxhgggigigxxggigggggxxggggggggxxggggggggxxggggigggzxGggigigggxxggigggggxxggggggggxxggggggggxxggggggggxxggggggggxxggggggggxxggggggggxxggggggggxxggggggggxxggggggggxxggggggggxxggggggggxxggggggggxxggggggggxxggggggggxxggggggggxxggggggggxxggggggggxxggggggggxxggggggggxxggggggggxxgggghgggxxggggggggxxggggggggxxggggggggxxggggggggxxggggggggxxhgggggggxxggggggggxxggggggggxxggggggggxxggggggggxxggggggggxxggggggggxxggggggggxxggggggggxxggggggggxxggggggggxxggggggggxxggggggggxxggggggggxxggggggggxxggggggggxxggggggggxxggggggggxxggggggggxxggggggggxxggggggggzgxggggggggxxggggggggxxggggggggxxggggggggxxggggggggxxggggghggxxggggggggxxggggggggxxggggggghxxggggggggxxggggggggxxggggggggxxggggggggxxggggggggxxggggggggxxggggggggxxggggggggxxggggggggxxggggggggxxggggggggxxggggggggxxggggggggxxggggggggxxggggggggxxggggggggxxgggggghgxxggggggggxxggggggggxxggggggggxxggggggggxxggggggggxxggggggggxxggggggggxxggggggggxxggggggggxxggggggggxxggggggggxxggggggggxxggggggggxxggggggggxxggggggggxxggggggggxxggggggggxxggggggggxxggggggggxxggggggggzxGggggggggxxggggggggxxggggggggxxggggggggxxggggggggxxggggggggxxggggggggxxggggggggxxggggggggxxggggggggxxggggggggxxggggggggxxggggggggxxggggggggxxggggggggxxggggggggxxggggggggxxggggggggxxggggggggxxggggggggxxggggggggxxggggggggxxggggggggxxggggggggxxggggggggxxggggggggxxggggggggxxggggggggxxggggggggxxggggggggxxgggghgggxxggggggggxxggggggggxxggggggggxxggggggggxxggggggggxxggggggggxxggggggggxxggggggggxxgghgggggxxggggggggxxggggggggxxggggggggxxggggggggxxggggggggxxggggggggxxggggggggxxggggggggxxggggggggzxGggggggggxxggggggggxxggggggggxxggggggggxxggggggggxxggggggggxxggggggggxxggggggggxxggggggggxxggggggggxxggggggggxxggggggggxxggggggggxxggggggggxxggggggggxxgghgggggxxggggggggxxggggggggxxggggggggxxggggggggxxggggggggxxggggggggxxggggggggxxggggggggxxggggggggxxggggggggxxggggggggxxggggggggxxggggggggxxggggggggxxggggggggxxggggggggxxggggggggxxggggggggyxggggggggxxggggggggxxggggggggxxggggggggxxggggggggxxggggggggxxggggggggxxggggggggxxggggggggxxggggggggxxggggggggxxgghgggggxxggggggggxxggggggggxxggggggggxxigggggggIGxggggggggxxggggggggxxggggggggxxggggggggxxggggggggxxggggggggxxggggggggxxggggggggxxggggggggxxggggggggxxggggggggxxggggggggxxggggggggxxggggggggxxggggggggxxggggggggxxggggggggxxggggggggxxggggggggxxggggggggxxggggggggxxggggggggxxggggggggxxggggggggxxggggggggxxggggggggxxggggggggxxggggggggxxggggggggxxggggggggxxgggggghgxxggggggggxxggggggggxxggggggggxxggggggggxxggggggggxxggggggggxxggggggggxxggggggggxxggggggggxxggggggggxxggggggggxxggggggggxxggggggggxxggggggggxxgghgggggxxggggggggxxggggggggxxggggggggxxggggggggxxggggggggxxggggggggIGxggggggggxxggggggggxxggggggggxxggggggggxxggggggggxxggggggggxxggggggggxxgghgggggxyggggggggxxggggggggxxggggggggxxggggggggxxggggggggxxggggggggxxggggggggxxggggggggxxggggggggxxggggggggxxggggggggxxggggggggxxggggggggxxggggggggxxggggggggxxggggggggxxgghgggggxxggggggggxxggggggggxxgggghgggxxggggggggxxggggggggxxggggggggxxggggggggxxggggggggxxggggggggxxggggggggxxggggggggxxhgggggggxxggggggggxyggggggggxxgggggghgxxggggggggxxgghgggggxxggggggggxxggggggggxyggggggggxxggggggggxxggggggggxxggggggggxxggggggggxxggggggggxxggggggggxxhgggggggzxGggggggggxxggggggggxxggggggggxxggggggggxxggggggggxxggggggggxxggggggggxxggggggggxxggggggggxxggggggggxxggggggggxxggggggggxxggggggggxxggggggggxxggggggggxxggggggggxxggggggggxxggggggggxxggggggggxxggggggggxxggggggggxxggggggggxxggggggggyxggggggggxxggggggggxxggggggggxxggggggggxxggggggggxxggggggggxxggggggggxxggggggggxxggggggggxxggggggggxxggggggggxxggggggggxxggggggggxxggggggggxxggggggggxxggggggggxxggggggggxxggggggggxxggggggggxxggggggggxxggggggggxxggggggggxxggggggggxxgghgggggxxggggggggxxggggggggxxggggggggxxggggggggxxggggggggxxggggggggixxggigggggxxggggggggxxggggggggxxggggggggxxggggggggxxggggggggxxggggggggxxggggggggxxggggigggxxggggggggxxggggggggxxggggggggxxggggggggxxggggggggxxggggggggxxggggggggxxggggggggxxggggggggxxggggggggxxggggggggxxggggggggxxggggggggxxggggggggxxggggggggxxhgggggggxxggggggggxxggggggggxxggggggggxxhgggggggxxggggigggxxggggggggxxggggggggxxggggggggxxggggggggxxggggggggxxggggggggxxggggggggxxggggggggxxggggggggxxgggggghgxxggggggggxxggggggggxxggggggggxxigggggggxxggggggggxxggggggggxxigggggggxxggggggggxxggggggggxxggggggggxxggggggggxxggggggggzxGggggggggxxggggggggxxggggggggxxggggggggxxggggggggxxggggggggxxggggggggxxggggggggyxggggggggxxhgggggggxxggggggggxxggggggggxxggggggggxxggggggggxxggggggggxxggggggggxxggggggggxxggggggggxxggggggggxxggggggggxxggggggggxxggggggggxxggggggggxxggggggggxxggggggggxxgghgggggxxggggggggxxggggggggxxggggggggxxggggggggyxggggggggxxggggggggxxggggggggyxggggggggxxigggggggxxggggggggxxggggggggxxggggggggxxggggggggxxggggggggxxggggggggxxggggggggxxggggggggxxggggggggxxhgggggggxxggggggggxxggggggggxxggggggggxxggggggggxxggggggggxxggggggggxxggggggggxxggggggggixxggggggggxxggggggggxxggggggggxxggggggggxxggggggggxxggggggggxxggggigggxxggggggggxxggggggggxxggggggggxxggggggggxxggggggggyxggggggggzxggggggggxxhgggggggxxggggggggxxggggggggxxggggggggxxggggggggxxggggggggxxggggggggxxggggggggxxggggggggxxgggghgggxxggggggggxxgghgggggxxggggggggxxggggggggxxggggggggxxggggggggxxggggggggzxigggggigxxggggggggxxgggghgggzxggggggggxxggggggggxxggggigggxxggggggggxxggggggggxxggggggggxxggggggggxxggggggggxxggggggggxxggggggggxxggggggggxxggggggggxxggggggggxxggggggggxxggggggggxxgggggghgzxggggggigxxggggggggzGGgghgggggxxggggggggxxggggggggxxggggggggxxggggggggxxggggggggxxggggggggxxggggggggxxggggggggxxggggggggxxggggggggxxggggggggxxggggggggxxggggggggxxggggggggxxggggggggxxggggggggxxggggggggxxggggggggxxggggggggxxggggggggxxggggggggxxggggggggxxggggggggxxggggggggxxggggggggxxggggggggxxggggggggxxggggggggxxggggggggxxggggggggxxggggggggxxggggggggxxggggggggxxggggggggxxggggggggxxggggggggxxggggggggxxggggggggxxggggggggxxggggggggxxggggggggxxggggggggxxggggggggxxggggggggxxggggggggxxggggggggxxggggggggxxggggggggxxggggggggxxggggggggxxggggggggxxggggggggixxggggggggxxggggggggxxggggggggxxggggggggxxggggggggxxggggggggxxggggggggxxggggggggxxggggggggxxggggggggxxggggggggxxggggggggxxggggggggxxggggggggxxggggggggxxggggggggxxggggggggxxggggggggxxggggggggxxggggggggxxggggggggxxggggggggxxggggggggxxggggggggxxggggggggxxggggggggxxggggggggxxggggggggxxggggggggxxggggggggxxggggggggxxggggggggxxggggggggxxggggggggxxggggggggxxggggggggxxggggggggxxggggggggxxggggggggxxggggggggxxggggggggxxggggggggxxggggggggxxggggggggxxggggggggxxggggggggxxggggggggxxggggggggxxggggggggxxggggggggxxggggggggzxGggggggggxxggggggggxxggggggggxxggggggggxxggggggggxxggggggggxxggggggggxxggggggggxxggggggggxxgggghgggxxggggggggxxggggggggxxggggggggxxggggggggxxggggggggxxggggggggxxfffigggggxxggggggggxxggggggggxxggggggggxxggggggggxxggggggggxxggggggggxxggggggggxxggggggggxxggggggggxxggggggggxxggggggggxxggggggggxxggggggggxxggggggggxxggggggggxxggggggggxxggggggggxxggggggggxxggggggggxxggggggggxxggggggggxxggggggggxxggggggggxxggggggggxxggggggggxxggggggggxxggggggggxxggggggggxxggggggggxxggggggggxxggggggggxxggggggggxxggggggggxxggggggggxxggggggggxxggggggggzGGggggggggxxggggggggxxggggggggxxggggggggxxggggggggxxggggggggxxggggggggxxggggggggxxggggggggxxggggggggxxggggggggxxggggggggxxggggggggxxggggggggxxggggggggxxggggggggxxggggggggxxggggggggxxggggggggxxggggggggxxggggggggxxggggggggxxggggggggxxggggggggxxggggggggxxgghgggggxxggggggggxxggggggggxxggggggggxxggggggggxxggggggggxxggggggggxxggggggggxxggggggggxxggggggggxxggggggggxxggggggggxxggggggggxxggggggggxxggggggggxxggggggggxxggggggggxxggggggggxxggggggggxxggggggggxxggggggggxxggggggggxxggggggggxxggggggggxxggggggggxxggggggggxxggggggggxxggggggggIgGggggggggxxggggggggxxggggggggxxggggggggxxggggggggxxggggggggxxggggggggxxggggggggxxggggggggxxggggggggxxggggggggxxggggggggxxggggggggxxggggggggxxggggggggxxggggggggxxggggggggxxggggggggxxggggggggxxggggggggxxggggggggxxggggggggxxggggggggxxggggggggxxggggggggxxggggggggxxggggggggxxggggggggxxggggggggxxggggggggxxggggggggxxggggggggxxggggghggxxggggggggxxggggggggxxggggggggxxggggggggxxggggggggxxggggggggxxggggggggxxggggggggxxggggggggxxggggggggxxggggggggxxggggggggxxggggggggxxggggggggxxggggggggxxggggggggxxggggggggxxggggggggxxggggggggxxggggggggIGxggggggggxxggggggggxxggggggggxxggggggggxxggggggggxxggggggggxxggggggggxxggggggggxxggggggggxxggggggggxxggggggggxxggggggggxxggggggggxxggggggggzyggggggggxxggggggggxxggggggggxxggggggggxxggggggggxxggggggggxxggggggggxxggggggggxxggggggggxxggggggggxxggggggggzxggggggggxxggggggggxxggggggggxxggigggggxxggggggggxxggggggggxxggggggggxxggggggggxxggggggggxxggggggggxxggggggggxxggggggggxxggggggggxxggggggggxxggggggggxxggggggggxxggggggggxxggggggggxxggggggggxxggggggggxxggggggggxxggggggggxxggggggggxxggggggggxxggggggggxxggggggggxxggggggggxxggggggggIxxggggggggxxggggggggxxggggggggxxggggggggxxggggggggxxggggggggxxggggggggxxggggggggxxggggggggxxggggggggxxggggggggxxggggggggxxggggggggxxggggggggxxggggggggxxggggggggxxggggggggxxggggggggxxggggggggxxggggggggxxggggggggxxggggggggxxggggggggxxggggggggxxggggggggxxggggggggxxggggggggxxggggggggxxggggggggxxggggggggxxggggggggxxggggggggxxggggggggxxggggggggxxggggggggxxggggggggxxggggggggxxggggggggxxggggggggxxggggggggxxggggggggxxggggggggxxggggggggxxggggggggxxggggggggxxggggggggxxggggggggxxggggggggxxggggggggxxggggggggxxggggggggxxggggggggxxggggggggixxggggggggxxggggggggxxggggggggxxghiGGgggxxggggggggxxggggggggxxggggggggxxggggggggxxggggggggxxggggggggxxggggggggxxggggggggxxggggggggxxggggggggxxggggggggxxggggggggxxggggggggxxggggggggxxggggggggxxggggggggxxggggggggxxggggggggxxggggggggxxggggggggxxggggggggxxggggggggxxggggggggxxggggggggxxggggggggxxggggggggxxggggggggxxggggggggxxggggggggxxggggggggxxggggggggxxggggggggxxggggggggxxggggggggxxggggggggxxggggggggxxggggggggxxggggggggxxggggggggxxggggggggxxggggggggxxggggggggxxggggggggxxggggggggxxggggggggxxggggggggxxggggggggxxggggggggzxgggggggggxxggggggggxxggggggggxxggggggggxxggggggggxxggggggggxxggggggggxxggggggggxxggggggggxxggggigggxxggggggggxxggggggggxxggggggggxxggggggggxxggggggggxxggggggggxxggggggggxxggggggggxxggggggggxxggggggggxxggggggggxxggggggggxxggggggggxxggggggggxxggggggggxxggggggggxxggggggggxxggggggggxxggggggggxxggggggggxxggggggggxxggggggggxxggggggggxxggggggggxxggggggggxxggggggggxxggggggggxxggggggggxxggggggggxxggggggggxxggggggggxxggggggggxxggggggggxxggggggggxxggggggggxxggggggggxxggggggggxxggggggggxxggggggggxxggggggggxxggggggggxxggggggggxxggggggggzxGggggggggxxggggggggxxggggggggxxggggggggxxggggggggxxggggggggxxggggggggxxggggggggxxggggggggxxggggggggxxggggggggxxggggggggxxggggggggxxggggggggxxggggggggxxggggggggxxggggggggxyggggggggxxggggggggyxggggggggxxggggggggxxggggggggxxggggggggxxggggggggxxggggggggxxggggggggxxggggggggxxggggggggxxggggggggxxggggggggxxggggggggxxggggggggxxggggggggxxggggggggxxggggggggxxggggggggxxggggggggxxggggggggxxggggggggxxggggggggxxggggggggxxggggggggxxggggggggxxggggggggxxggggggggxxggggggggxxggggggggxxggggggggxxggggggggxxggggggggxxggggggggxxggggggggxxggggggggzGGggggggggxxggggggggxxggggggggxxggggggggxxggggggggxxggggggggxxggggggggxxggggggggxxggggggggxxggggggggxxggggggggxxggggggggxxggggggggxxggggggggxxggggggggxxggggggggxxggggggggxxggggggggxxggggggggxxggggggggxxggggggggxxggggggggxxggggggggxxggggggggxxggggggggxxggggggggxxggggggggxxggggggggxxggggggggxxggggggggxxggggggggxxggggggggxxggggggggxxggggggggxxggggggggxxggggggggxxggggggggxxggggggggxxggggggggxxggggggggxxggggggggxxggggggggxxggigggggxxggggggggxxggggggggxxggggggggxxggggggggxxggggggggxxggggggggxxggggggggxxggggggggxxggggggggxxggggggggzGGggggggggxxggggggggxxggggggggxxggggggggxxggggggggxxggggggggxxggggggggxxggggggggxxggggggggxxggggggggxxggggggggxxggggggggxxggggggggxxggggggggxxggggggggxxggggggggxxggggggggxxggggggggxxggggggggxxggggggggxxggggggggxxggggggggxxggggggggxxggggigigxxggggggggxxggggggggxxggggggggxxggggggggxxggggggggxxggggggggxxggggggggxxggggggggxxggggggggxxggggghggxxggggggggxxggggggggxxggggggggxxggggggggxxggggggggxxggggggggxxggggggggxxggggggggxxggggggggxxggggggggxxgghgggggxxggggggggxxggggggggxxggggggggxxggggggggxxggggggggxxggggggggxxggggggggxxggggggggIGxggggggggxxggggggggxxggggggggxxggggggggxxggggggggxxggggggggxxggggggggxxggggggggxxggggggggxxggigggggxxggggghggxxggggggggxxggggggggxxggggggggzxggggggggxxggggggggxxggggggggxxggggggggxxggggggggxxggggggggxxggggggggxxggggggggxxggggggggxxggggggggxxggggggggxxggggggggxxggggggggxxggggggggxxggggggggxxggggggggxxggggggggxxggggggggxxggggggggxxggggggggxxggggggggxxggggggggxxggggggggxxggggggggxxggggggggxxggggggggxxggggggggxxggggggggxxggggggggxxggggggggxxggggggggyxggggggggxxggggggggxxggggggggxxggggggggxxggggggggxxgggghgggxxggggggggxxggggggggIGxggggggggxxggggggggxxggggggggxxggggggggxxggggggggxxggggggggxxggggggggxxggggggggxxggggggggxxggggggggxxggggggggxxggggggggxxggggggggxxggggggggxxggggggggxxggggggggxxggggggggxxggggggggxxggggggggxxggggggggxxggggggggxxggggggggxxggggggggxxggggggggxxggggggggxxggggggggxxggggggggxxggggggggxxggggggggxxggggggggxxgggggghgxxggggggggxxggggggggxxgghgggggxxggggggggxxggggggggxxggggggggxxggggggggxxggggggigxxggggggggxxggggggggxxggggggggxxggggggggxxggggggggxxgggggghgxxggggggggxxggggggggxxggggggggxxgghgggggxxggggggggxxggggggggxxggggggggxxggggggggIxxggggggggxxggggggggxxggigggggxxggggggggxxhgggggggxxggggggggxxggggggggxxggggggggxxggggggggxxggggggggxxggggggggxxggigggggxxggggggggxxgggghgggxxggggggigxxggggggggxxggggggggxxggggggggxxggggggggxxggggggggxxggggggggxxggggggggxxggggggggxxggggggggxxggggggggxxggggggggxxggggggggxxggggggggxxggggggggxxggggggggxxggggggggxxggggggggxxggggggggxxggggghggxxggggggggxxggggggggxxggggggggxxggggggggxxggggggggxxggggggggxxggggggggxxggggggggxxggggggggxxggggggggxxggggggggxxggggggggxxggggggggxxggggggggxxggggggggxxggggggggxxggggggggxxggggggggzxgggggggggxxggggggggxxggggggggxxggggggggxxggggggggxxggggggggxxggggggggxxggggggggxxggggggggxxggggggggxxggggggggxxggggggggxxggggggggxxggggggggxxggggggggxxggggggggxxggggggggxxggggggggxxggggggggxxggggggggxxggggggigxxggggggggxxggggggggxxggggggggxxggggggggxxggggggggxxggggggggxxggggggggxxggggggggxxggggggggxxggggggggxxggggggggxxggggggggxxggggggggxxggggggggxxggggggggxxggggggggxxggggggggxxggggggggxxggggggggxxggggggggxxggggggggxxggggggggxxggggggggxxggggggggxxggggggggxxggggggggxxggggggggxxggggggggxxggggggggxxggggggggxxggggggggxxggggggggzxGggggggggxxggggggggxxggigggggxxggggggggxxggggggggxxggggggggxxggggggggxxggggggggxxggggggggxxggggggggxxggggggggxxggggggggxxggggggggxxggggggggxxggggggggxxggggggggxxggggggggxxggggggggxxggggggggxxggggggggzxggggggggxxggggggggxxggggggggxxggggggggxxggggggggxxggggggggxxggggggggzxggggggggxxggggggggxxggggggggxxggggggggxxggggggggxxggggggggxxggggggghxxggggggggxxggggggggxxggggggggxxggggggggxxggggggggxxggggggggxxggggggggxyggggggggxxgghgggggxxggggggggxxggggggggxxggggggggxxggggggggxxggggggggxxggggggggxxggggggggxxggggggggxxggggggggxxggggggggzGGggggggggxxggggggggxxggggggggxxggggggggxxggggggggxxggggggggxxggggggggxxggggggggxxggggggggxxggggggggxxggggggggxxggggggggxxggggggggxxggggggggxxggggggggxxggggggggxxggggggggxxggggggggxxggggggggxxggggggggxxggggggggxxggggggggxxggggggggxxggggggggxxggggggggxxggggggggxxggggggggxxggggggggxxggggggggxxggggggggxxggggggggxxggggggggxxggggggggxxggggggggxxggggggggxxggggggggxxggggggggxxggggggggxxggggggggxxggigggggxxggggggggxxggggggggxxggggggggxxggggggggxxggggggggyxigigigggxxggggggggxxggggggggxxggggggggxxggggggggxxggggggggxxggggggggxxggggggggIgxggggggggxxggggggggxxggggggggxxggggggggxxggggggggxxggggggggxxggggggggxxggggggggxxggggggggxxggggggggxxggggggggxxggggggggxxggggggggxxggggggggxxggggggggxxggggggggxxggggggggxxggggggggxxggggggggxxggggggggxxggggggggxxggggggggxxggggggggxxggggggggxxggggggggxxggggggggxxggggggggxxggggggggxxggggggggxxggggggggxxggggggggxxggggggggxxggggggggxxggggggggxxggigggggxxggggggggxxggggggggxxggggggggxxggggggggxxggggggggxxggggggggxxggggggggxxggggggggxxggggggggxxggggggggxxggggggggxxggggggggxxggggggggxxggggggggxxggggggggxxggggggggxxgggghgigxxggggggggIGxggggggggxxggggggggxxggggggggxxggggggggxxggggggggxxggggggggxxggggggggxxggggggggxxggggggggxxgggggggg'
p1
.(lp1
(F2562.3439699999999
F33442.348071
tp2
a.cnumpy.core.multiarray
scalar
p1
(cnumpy
dtype
p2
(S'f8'
I0
I1
tRp3
(I3
S'<'
NNNI-1
I-1
I0
tbS'\x0e/\x057\xd6\xdaw?'
tRp4
.F0
.