ccopy_reg
_reconstructor
p1
(cpykov
Vector
p2
c__builtin__
dict
p3
(dp4
S'i'
F0.067238421955403083
sS'G'
F0.00068610634648370492
sS'f'
F0.043567753001715268
sS'I'
F0.0075471698113207548
sS'h'
F0.00068610634648370492
sS'F'
F0.0048027444253859342
sS'y'
F0.016809605488850771
sS'0'
F0.0037735849056603774
sS'g'
F0.010291595197255574
sS'w'
F0.022298456260720412
sS'9'
F0.00068610634648370492
sS'x'
F0.81063464837049737
sS'z'
F0.010977701543739279
stRp5
.ccopy_reg
_reconstructor
p1
(cpykov
Chain
p2
c__builtin__
dict
p3
(dp4
(S'G'
S'G'
tp5
F0.5
s(S'z'
S'y'
tp6
F0.03125
s(S'f'
S'z'
tp7
F0.015748031496062992
s(S'x'
S'G'
tp8
F0.00042319085907744394
s(S'x'
S'x'
tp9
F0.95429538721963614
s(S'i'
S'i'
tp10
F0.78061224489795922
s(S'z'
S'I'
tp11
F0.0625
s(S'w'
S'h'
tp12
F0.015384615384615384
s(S'9'
S'9'
tp13
F0.5
s(S'0'
S'x'
tp14
F1
s(S'G'
S'w'
tp15
F0.5
s(S'i'
S'0'
tp16
F0.0051020408163265302
s(S'z'
S'h'
tp17
F0.03125
s(S'f'
S'I'
tp18
F0.023622047244094488
s(S'h'
S'x'
tp19
F1
s(S'z'
S'z'
tp20
F0.03125
s(S'w'
S'z'
tp21
F0.12307692307692307
s(S'x'
S'y'
tp22
F0.018197206940330089
s(S'x'
S'g'
tp23
F0.00084638171815488788
s(S'f'
S'F'
tp24
F0.11023622047244094
s(S'y'
S'x'
tp25
F0.87755102040816335
s(S'I'
S'I'
tp26
F0.1818181818181818
s(S'w'
S'f'
tp27
F0.35384615384615387
s(S'y'
S'g'
tp28
F0.020408163265306121
s(S'I'
S'i'
tp29
F0.81818181818181812
s(S'i'
S'g'
tp30
F0.030612244897959186
s(S'f'
S'i'
tp31
F0.13385826771653542
s(S'i'
S'x'
tp32
F0.030612244897959186
s(S'w'
S'y'
tp33
F0.015384615384615384
s(S'g'
S'g'
tp34
F0.20000000000000004
s(S'f'
S'f'
tp35
F0.6141732283464566
s(S'z'
S'g'
tp36
F0.21875000000000003
s(S'f'
S'x'
tp37
F0.03937007874015748
s(S'x'
S'z'
tp38
F0.0080406263224714353
s(S'g'
S'y'
tp39
F0.066666666666666666
s(S'i'
S'f'
tp40
F0.08673469387755102
s(S'y'
S'w'
tp41
F0.020408163265306121
s(S'F'
S'i'
tp42
F0.35714285714285721
s(S'w'
S'x'
tp43
F0.030769230769230767
s(S'9'
S'I'
tp44
F0.5
s(S'x'
S'0'
tp45
F0.0042319085907744393
s(S'w'
S'w'
tp46
F0.41538461538461541
s(S'i'
S'w'
tp47
F0.0051020408163265302
s(S'f'
S'g'
tp48
F0.062992125984251968
s(S'z'
S'x'
tp49
F0.625
s(S'i'
S'I'
tp50
F0.061224489795918373
s(S'F'
S'f'
tp51
F0.6428571428571429
s(S'g'
S'x'
tp52
F0.66666666666666674
s(S'y'
S'y'
tp53
F0.040816326530612242
s(S'w'
S'i'
tp54
F0.046153846153846156
s(S'g'
S'w'
tp55
F0.066666666666666666
s(S'x'
S'w'
tp56
F0.013965298349555649
s(S'y'
S'z'
tp57
F0.040816326530612242
stRp58
(dp59
S'_guess'
p60
g1
(cpykov
Vector
p61
g3
(dp62
S'i'
F0.067238421955403083
sS'G'
F0.00068610634648370492
sS'f'
F0.043567753001715268
sS'I'
F0.0075471698113207548
sS'h'
F0.00068610634648370492
sS'F'
F0.0048027444253859342
sS'y'
F0.016809605488850771
sS'0'
F0.0037735849056603774
sS'g'
F0.010291595197255574
sS'w'
F0.022298456260720412
sS'9'
F0.00068610634648370492
sS'x'
F0.81063464837049737
sS'z'
F0.010977701543739279
stRp63
sb.S'99IIiiiiiiiiiiiiiiiiiiiiiifFiIiiifFiIiiiiiiiiiiiiiiiiiiiiiiiiiiiiiiifFfiIiiiifFiIiiiiiiifFfiIiiiiiifFiIiiiiifFfffzIiiiiiiiiiiiifFfiIiiiifIIiiiiiiiiiiiiiiiiiiiiiiiiiiifFfiIiiiiiiiiifFffiIiiiiiiiifFfiIiiiiiiiiiiifIIiiiiiiifIIiiifFffiIiiifFiIiiiiiiifFfffzIii0xxxxxxxxxxxxxxxxxxxxwwffffixxwwfffffffffxxwwfffffffffxxxxxxyxxxxxxxyxxxwwfffffffigxxxxxxxxxxxxxxxxxxyxxxwwfigxxxxxxxxxxxxxxxxwwhxxxxxxxxxxxxxxxxxxxxwwffffgxxxxxxwwfggxxxxxxwwffiwzgxxxxxxyxxxxxyxxxxxxxxxxxxxxxxxxxwzgxxxxxxxx0xxxxxxxxxxwwfigxxwwfffffffigxxxxxxxxxxxxxxxxxxxxxxyxxxxxxxxxxxxxxxxxxxxxyxxxxxxxxxxxxxxxyxyxxxwwfffggxxwwixxwxgxxxxxxxxxxxxyxxxxxxxxxxxxxxxxxxxwygxxxxzxxxxxxywwfffffffffxxxxxxyxxxxxxxxxzxxxxxxxxxxxxxxxxxxxxxxxxxyxxxxxxxxxxxxxxxzxxxxxxxxxxxxxxxxxxxxxxxxxxxzxxxxx0xxwxgyxyxxxxxxxxxxxyxxxxxxxxxxxyxwzhxxxxxxxxxxxxxxxyxxxxxxxxxxxxxxxxxxxxxxxxxxxxyxxxxxxxwwfggxxxxxxwwfffffffffxxwwfggyxxxxxxxxxxxxxxxxxxxxxxxxxxxxxxxyxxxxxxxwwixxwwfggxxxxxxxxxxxxwwfffigxxxxxxxxxxyxzxwzgxxxxxxxxxyxxxxzxxxxxxxyxwzgxxxxxxxxxxxxxxxxxxzxxxyxxyxxxx0xxxxxxxxxxxxxxxxxxxxxxxxxxxxxxxxwzgxxzxxxwwixxxxxxxxxxxxxxxxxxxxxxxxxxxxxxxxwwfggxxxxxxxxxxxxxxxxxxxxxxxxwwffixxxxxxxxxxxxzxwwffffgwzgxxxxxxzxxxxxxxxxzxxxxxxxxxxxxxwzgwwfffffffffxxxxxxxxxxwwffixxxxxxGGwwfffffigxxxxxxxxxxxxxxxxxxxxxxxxxxxxxxxxxxxxxxxxxxxxxxxxxxxxxxxxxx0xxxxxxxxxxxxxxxxxxxxxxxxxxxxxxxxxxxxxxxxxxxxxxxxyxxxxxxxxxxxxxxxxxxxxxxxxxxxxxxxxxxxxxxxxxxxxxxxxxxxxxxxxxxxxxxxxxxxxxxxxxxxxxzyxxxxxxxxxxxxxxxxxxxxxxxxxxxxxxxxxxxxxxxxxxxxxxxxxxxxxxxxxxxxxxxxxxxxxxxxxxxxxxxxxxxxxxxxxxxxxxxxxxxxxxxxzx0xxxxxxxxxxxxxxxxxxxxxxxxxxxxxxxxxxxxxxxxxxxxxxxxxxxxxxxxxxxxxxyxxxxxxxxxxxxxxxxxxxxxxxxxxxxxxxxxxxxxxxxxxxxxxxxxxxxxxxxxxxxxxxxxxxxxxxxxxxxxxxxxxxxxxxxxxxxxxxxxxxxxxxxxxxxxxxxxxxxxxxxxxxxxxxxxxxxxxxxxxxxxxxxxxxxxxxxxxxxxxxxxxxxxxxxxxx0xxxxxxxxxxxxxxxxxxxxxxxxxxxxxxxxxxxxxxxxxxxxxxxxxxxxxxxxxxxxxxxxxxxxxxxxxxxxxxxxxxxxxxxxxxxxxxyxxxxxxxxxxxxxxxxxxxxxxxxxxxxxxxxxxxxxxxxxxxxxxxxxxxxxxxxxxxxxxxxxxxxxxxxxxxxxxxxxxxxxxxxxxxxxxxxxxxxxxxxxxxxxxxxxxxxxxxxxxxxxxxxxxxxxxxxxxx0xxxxxxxxxxxxxxxxxxxxxxxxxxxxxxxxxxxxxxxxxxxxxxxxxxxxxxxxxxxxxxxxxxxxxxxxxxxxxxxxxxxxxxxxxxxxxxxxxxxxxxxxxxxxxxxxxxxxxxxxxxxxxxxxxxxxxxxxxxxxxxxxxxxxxxxxxxxxxxxxxxxxxxxxxxxxxxxxxxxxxxxxxxxxxxxxxxxxxxxxxxxxxxxxzxxxxxxxxxxxxxxxxxxxxxxxxx0xxxxxxxxxxxxxxxxxxxxxxxxyxxxxxxxxxxxxxxxxxyxxxxxxxxxxxxxxxxxyxxxxxxxyyyxxxxxxxxxxxxxxxxxxxxxxxxxxxxxxxxxxyzxxxxxxxxxxxxxxxxxxxxxxxxxxxxxyxxxxxxxxxxxxxxxxxxxxyxxxxxxxxxxyxxxxxxxxxxxxxxxxxzxxxxxxxxxxxxxxxxxxxxxxxxxxxxxxxxxxxxzzxxxxxxxxx0xxxxxxxxxxxxxxxxxxxxyzxxxxxxxxxxxxxxxxxxxxxxxxxxxxxxxxxxxxxxxxxxxxxxxxxxxxxxxxxxxxxxxxxxxxxxxxxxxxxxxxxxxxxxxxxxxxxxxxxxxyxxxxyxxxxxxxxxxxxxxxxxxxxxxxxxyxxxxxxxxxxxxxxxxxxxxxxxxxxxxxxxxxxxxxxxxxyxxxxxxxxxxxxxxxyxxxxxxxxxxxxxxxxxxxxxxx0xxxxxxxxxxxxxxxxxxxxzxxxxxxxxxxxxxxxxxxxxxxxxxxxxxxxxxxxxxxxxxxxxxxxzxxxxxxxxxxxxxxxxxxxxxxxxxxxxxxxxxxxxxxxxxxxxxxxxxxxxxxxxxxxxxxyxxxxxxxxxxxxxxxxxxxxxxxxxxxxxxxxxxxxxxxxxxxxxxxxxxxxxxxxxxxxxxyxxxxxxxxxxxxxxxxxxxxxxxxxxxxxzxxxxxxxxx'
p1
.(lp1
(F179.740037
F61.449095
tp2
a.cnumpy.core.multiarray
scalar
p1
(cnumpy
dtype
p2
(S'f8'
I0
I1
tRp3
(I3
S'<'
NNNI-1
I-1
I0
tbS'\xd6\xa8\xc9\xf9g\xa2r?'
tRp4
.F0
.